Archive member included to satisfy reference by file (symbol)

/Applications/microchip/xc32/v4.10/bin/bin/../../lib/gcc/pic32c/8.3.1/../../../../pic32c/lib/thumb/v8-m.base/nofp/libpic32c.a(data_init.o)
                              build/default/debug/_ext/1171490990/startup_xc32.o (__pic32c_data_initialization)
/Applications/microchip/xc32/v4.10/bin/bin/../../lib/gcc/pic32c/8.3.1/../../../../pic32c/lib/thumb/v8-m.base/nofp/libm-emfloat.a(lib_a-_MODF.o)
                              build/default/debug/_ext/1414040249/az_span.o (modf)
/Applications/microchip/xc32/v4.10/bin/bin/../../lib/gcc/pic32c/8.3.1/../../../../pic32c/lib/thumb/v8-m.base/nofp/libm-emfloat.a(floatasmops_arm.o)
                              /Applications/microchip/xc32/v4.10/bin/bin/../../lib/gcc/pic32c/8.3.1/../../../../pic32c/lib/thumb/v8-m.base/nofp/libm-emfloat.a(lib_a-_MODF.o) (__aeabi_fadd)
/Applications/microchip/xc32/v4.10/bin/bin/../../lib/gcc/pic32c/8.3.1/../../../../pic32c/lib/thumb/v8-m.base/nofp/libm-emfloat.a(lib_a-_ILOGB.o)
                              /Applications/microchip/xc32/v4.10/bin/bin/../../lib/gcc/pic32c/8.3.1/../../../../pic32c/lib/thumb/v8-m.base/nofp/libm-emfloat.a(lib_a-_MODF.o) (ilogb)
/Applications/microchip/xc32/v4.10/bin/bin/../../lib/gcc/pic32c/8.3.1/../../../../pic32c/lib/thumb/v8-m.base/nofp/libm-emfloat.a(lib_a-_LDEXP.o)
                              /Applications/microchip/xc32/v4.10/bin/bin/../../lib/gcc/pic32c/8.3.1/../../../../pic32c/lib/thumb/v8-m.base/nofp/libm-emfloat.a(lib_a-_MODF.o) (ldexp)
/Applications/microchip/xc32/v4.10/bin/bin/../../lib/gcc/pic32c/8.3.1/../../../../pic32c/lib/thumb/v8-m.base/nofp/libg-musl.a(isxdigit.o)
                              build/default/debug/_ext/1414040249/az_json_reader.o (isxdigit)
/Applications/microchip/xc32/v4.10/bin/bin/../../lib/gcc/pic32c/8.3.1/../../../../pic32c/lib/thumb/v8-m.base/nofp/libg-musl.a(__libc_start_main.o)
                              build/default/debug/_ext/1171490990/startup_xc32.o (__libc_init_array)
/Applications/microchip/xc32/v4.10/bin/bin/../../lib/gcc/pic32c/8.3.1/../../../../pic32c/lib/thumb/v8-m.base/nofp/libg-musl.a(exit.o)
                              build/default/debug/_ext/1360937237/azure_iot_pnp_pic32cmls60-curiosity.o (exit)
/Applications/microchip/xc32/v4.10/bin/bin/../../lib/gcc/pic32c/8.3.1/../../../../pic32c/lib/thumb/v8-m.base/nofp/libg-musl.a(libc.o)
                              /Applications/microchip/xc32/v4.10/bin/bin/../../lib/gcc/pic32c/8.3.1/../../../../pic32c/lib/thumb/v8-m.base/nofp/libg-musl.a(__libc_start_main.o) (__progname_full)
/Applications/microchip/xc32/v4.10/bin/bin/../../lib/gcc/pic32c/8.3.1/../../../../pic32c/lib/thumb/v8-m.base/nofp/libg-musl.a(malloc.o)
                              build/default/debug/_ext/1360937237/pic32cmls60-curiosity-commands.o (free)
/Applications/microchip/xc32/v4.10/bin/bin/../../lib/gcc/pic32c/8.3.1/../../../../pic32c/lib/thumb/v8-m.base/nofp/libg-musl.a(expand_heap.o)
                              /Applications/microchip/xc32/v4.10/bin/bin/../../lib/gcc/pic32c/8.3.1/../../../../pic32c/lib/thumb/v8-m.base/nofp/libg-musl.a(malloc.o) (__expand_heap)
/Applications/microchip/xc32/v4.10/bin/bin/../../lib/gcc/pic32c/8.3.1/../../../../pic32c/lib/thumb/v8-m.base/nofp/libg-musl.a(__sio_fprintf_dfosux.o)
                              (_fprintf_cdfFgGnopsuxX)
/Applications/microchip/xc32/v4.10/bin/bin/../../lib/gcc/pic32c/8.3.1/../../../../pic32c/lib/thumb/v8-m.base/nofp/libg-musl.a(__sio_printf_dfosux.o)
                              (_printf_cdfFgGnopsuxX)
/Applications/microchip/xc32/v4.10/bin/bin/../../lib/gcc/pic32c/8.3.1/../../../../pic32c/lib/thumb/v8-m.base/nofp/libg-musl.a(__sio_snprintf_dfosux.o)
                              (_snprintf_cdfFgGnopsuxX)
/Applications/microchip/xc32/v4.10/bin/bin/../../lib/gcc/pic32c/8.3.1/../../../../pic32c/lib/thumb/v8-m.base/nofp/libg-musl.a(__fmt_d.o)
                              /Applications/microchip/xc32/v4.10/bin/bin/../../lib/gcc/pic32c/8.3.1/../../../../pic32c/lib/thumb/v8-m.base/nofp/libg-musl.a(__sio_fprintf_dfosux.o) (__fmt_d_needed)
/Applications/microchip/xc32/v4.10/bin/bin/../../lib/gcc/pic32c/8.3.1/../../../../pic32c/lib/thumb/v8-m.base/nofp/libg-musl.a(__fmt_fp.o)
                              /Applications/microchip/xc32/v4.10/bin/bin/../../lib/gcc/pic32c/8.3.1/../../../../pic32c/lib/thumb/v8-m.base/nofp/libg-musl.a(__sio_fprintf_dfosux.o) (__fmt_f_needed)
/Applications/microchip/xc32/v4.10/bin/bin/../../lib/gcc/pic32c/8.3.1/../../../../pic32c/lib/thumb/v8-m.base/nofp/libg-musl.a(__fmt_o.o)
                              /Applications/microchip/xc32/v4.10/bin/bin/../../lib/gcc/pic32c/8.3.1/../../../../pic32c/lib/thumb/v8-m.base/nofp/libg-musl.a(__sio_fprintf_dfosux.o) (__fmt_o_needed)
/Applications/microchip/xc32/v4.10/bin/bin/../../lib/gcc/pic32c/8.3.1/../../../../pic32c/lib/thumb/v8-m.base/nofp/libg-musl.a(__fmt_s.o)
                              /Applications/microchip/xc32/v4.10/bin/bin/../../lib/gcc/pic32c/8.3.1/../../../../pic32c/lib/thumb/v8-m.base/nofp/libg-musl.a(__sio_fprintf_dfosux.o) (__fmt_s_needed)
/Applications/microchip/xc32/v4.10/bin/bin/../../lib/gcc/pic32c/8.3.1/../../../../pic32c/lib/thumb/v8-m.base/nofp/libg-musl.a(__fmt_u.o)
                              /Applications/microchip/xc32/v4.10/bin/bin/../../lib/gcc/pic32c/8.3.1/../../../../pic32c/lib/thumb/v8-m.base/nofp/libg-musl.a(__fmt_d.o) (__cvt_u)
/Applications/microchip/xc32/v4.10/bin/bin/../../lib/gcc/pic32c/8.3.1/../../../../pic32c/lib/thumb/v8-m.base/nofp/libg-musl.a(__fmt_x.o)
                              /Applications/microchip/xc32/v4.10/bin/bin/../../lib/gcc/pic32c/8.3.1/../../../../pic32c/lib/thumb/v8-m.base/nofp/libg-musl.a(__sio_fprintf_dfosux.o) (__fmt_x_needed)
/Applications/microchip/xc32/v4.10/bin/bin/../../lib/gcc/pic32c/8.3.1/../../../../pic32c/lib/thumb/v8-m.base/nofp/libg-musl.a(__printf_core.o)
                              /Applications/microchip/xc32/v4.10/bin/bin/../../lib/gcc/pic32c/8.3.1/../../../../pic32c/lib/thumb/v8-m.base/nofp/libg-musl.a(__fmt_d.o) (__pad)
/Applications/microchip/xc32/v4.10/bin/bin/../../lib/gcc/pic32c/8.3.1/../../../../pic32c/lib/thumb/v8-m.base/nofp/libg-musl.a(fflush.o)
                              build/default/debug/_ext/1360937237/azure_iot_pnp_pic32cmls60-curiosity.o (fflush)
/Applications/microchip/xc32/v4.10/bin/bin/../../lib/gcc/pic32c/8.3.1/../../../../pic32c/lib/thumb/v8-m.base/nofp/libg-musl.a(fwrite.o)
                              build/default/debug/_ext/1360937237/azure_iot_pnp_pic32cmls60-curiosity.o (fwrite)
/Applications/microchip/xc32/v4.10/bin/bin/../../lib/gcc/pic32c/8.3.1/../../../../pic32c/lib/thumb/v8-m.base/nofp/libg-musl.a(putc.o)
                              build/default/debug/_ext/1360937237/main.o (fputc)
/Applications/microchip/xc32/v4.10/bin/bin/../../lib/gcc/pic32c/8.3.1/../../../../pic32c/lib/thumb/v8-m.base/nofp/libg-musl.a(sscanf.o)
                              build/default/debug/_ext/1414040249/az_span.o (sscanf)
/Applications/microchip/xc32/v4.10/bin/bin/../../lib/gcc/pic32c/8.3.1/../../../../pic32c/lib/thumb/v8-m.base/nofp/libg-musl.a(stdin.o)
                              build/default/debug/_ext/1171490990/initialization.o (_stdin)
/Applications/microchip/xc32/v4.10/bin/bin/../../lib/gcc/pic32c/8.3.1/../../../../pic32c/lib/thumb/v8-m.base/nofp/libg-musl.a(stdout.o)
                              build/default/debug/_ext/1360937237/azure_iot_pnp_pic32cmls60-curiosity.o (_stdout)
/Applications/microchip/xc32/v4.10/bin/bin/../../lib/gcc/pic32c/8.3.1/../../../../pic32c/lib/thumb/v8-m.base/nofp/libg-musl.a(vsscanf.o)
                              /Applications/microchip/xc32/v4.10/bin/bin/../../lib/gcc/pic32c/8.3.1/../../../../pic32c/lib/thumb/v8-m.base/nofp/libg-musl.a(sscanf.o) (vsscanf)
/Applications/microchip/xc32/v4.10/bin/bin/../../lib/gcc/pic32c/8.3.1/../../../../pic32c/lib/thumb/v8-m.base/nofp/libg-musl.a(puts.o)
                              build/default/debug/_ext/1360937237/pic32cmls60-curiosity-commands.o (puts)
/Applications/microchip/xc32/v4.10/bin/bin/../../lib/gcc/pic32c/8.3.1/../../../../pic32c/lib/thumb/v8-m.base/nofp/libg-musl.a(setbuf.o)
                              build/default/debug/_ext/1171490990/initialization.o (setbuf)
/Applications/microchip/xc32/v4.10/bin/bin/../../lib/gcc/pic32c/8.3.1/../../../../pic32c/lib/thumb/v8-m.base/nofp/libg-musl.a(atoi.o)
                              build/default/debug/_ext/1360937237/main.o (atoi)
/Applications/microchip/xc32/v4.10/bin/bin/../../lib/gcc/pic32c/8.3.1/../../../../pic32c/lib/thumb/v8-m.base/nofp/libg-musl.a(div.o)
                              build/default/debug/_ext/1360937237/main.o (div)
/Applications/microchip/xc32/v4.10/bin/bin/../../lib/gcc/pic32c/8.3.1/../../../../pic32c/lib/thumb/v8-m.base/nofp/libg-musl.a(memcmp.o)
                              build/default/debug/_ext/1360937237/azure_iot_pnp_pic32cmls60-curiosity.o (memcmp)
/Applications/microchip/xc32/v4.10/bin/bin/../../lib/gcc/pic32c/8.3.1/../../../../pic32c/lib/thumb/v8-m.base/nofp/libg-musl.a(memcpy.o)
                              build/default/debug/_ext/1360937237/main.o (memcpy)
/Applications/microchip/xc32/v4.10/bin/bin/../../lib/gcc/pic32c/8.3.1/../../../../pic32c/lib/thumb/v8-m.base/nofp/libg-musl.a(memmove.o)
                              build/default/debug/_ext/1414040249/az_span.o (memmove)
/Applications/microchip/xc32/v4.10/bin/bin/../../lib/gcc/pic32c/8.3.1/../../../../pic32c/lib/thumb/v8-m.base/nofp/libg-musl.a(memset.o)
                              build/default/debug/_ext/1360937237/azure_iot_pnp_pic32cmls60-curiosity.o (memset)
/Applications/microchip/xc32/v4.10/bin/bin/../../lib/gcc/pic32c/8.3.1/../../../../pic32c/lib/thumb/v8-m.base/nofp/libg-musl.a(strlen.o)
                              build/default/debug/_ext/1360937237/main.o (strlen)
/Applications/microchip/xc32/v4.10/bin/bin/../../lib/gcc/pic32c/8.3.1/../../../../pic32c/lib/thumb/v8-m.base/nofp/libg-musl.a(strcpy.o)
                              build/default/debug/_ext/1360937237/pic32cmls60-curiosity-commands.o (strcpy)
/Applications/microchip/xc32/v4.10/bin/bin/../../lib/gcc/pic32c/8.3.1/../../../../pic32c/lib/thumb/v8-m.base/nofp/libg-musl.a(strlcat.o)
                              build/default/debug/_ext/1360937237/pic32cmls60-curiosity-commands.o (strlcat)
/Applications/microchip/xc32/v4.10/bin/bin/../../lib/gcc/pic32c/8.3.1/../../../../pic32c/lib/thumb/v8-m.base/nofp/libg-musl.a(strlcpy.o)
                              /Applications/microchip/xc32/v4.10/bin/bin/../../lib/gcc/pic32c/8.3.1/../../../../pic32c/lib/thumb/v8-m.base/nofp/libg-musl.a(strlcat.o) (strlcpy)
/Applications/microchip/xc32/v4.10/bin/bin/../../lib/gcc/pic32c/8.3.1/../../../../pic32c/lib/thumb/v8-m.base/nofp/libg-musl.a(strnlen.o)
                              /Applications/microchip/xc32/v4.10/bin/bin/../../lib/gcc/pic32c/8.3.1/../../../../pic32c/lib/thumb/v8-m.base/nofp/libg-musl.a(strlcat.o) (strnlen)
/Applications/microchip/xc32/v4.10/bin/bin/../../lib/gcc/pic32c/8.3.1/../../../../pic32c/lib/thumb/v8-m.base/nofp/libg-musl.a(localtime.o)
                              build/default/debug/_ext/1360937237/azure_iot_pnp_pic32cmls60-curiosity.o (localtime)
/Applications/microchip/xc32/v4.10/bin/bin/../../lib/gcc/pic32c/8.3.1/../../../../pic32c/lib/thumb/v8-m.base/nofp/libg-musl.a(strftime.o)
                              build/default/debug/_ext/1360937237/azure_iot_pnp_pic32cmls60-curiosity.o (strftime)
/Applications/microchip/xc32/v4.10/bin/bin/../../lib/gcc/pic32c/8.3.1/../../../../pic32c/lib/thumb/v8-m.base/nofp/libg-musl.a(time.o)
                              build/default/debug/_ext/1360937237/azure_iot_pnp_pic32cmls60-curiosity.o (time)
/Applications/microchip/xc32/v4.10/bin/bin/../../lib/gcc/pic32c/8.3.1/../../../../pic32c/lib/thumb/v8-m.base/nofp/libg-musl.a(tolower.o)
                              /Applications/microchip/xc32/v4.10/bin/bin/../../lib/gcc/pic32c/8.3.1/../../../../pic32c/lib/thumb/v8-m.base/nofp/libg-musl.a(__fmt_fp.o) (tolower)
/Applications/microchip/xc32/v4.10/bin/bin/../../lib/gcc/pic32c/8.3.1/../../../../pic32c/lib/thumb/v8-m.base/nofp/libg-musl.a(toupper.o)
                              /Applications/microchip/xc32/v4.10/bin/bin/../../lib/gcc/pic32c/8.3.1/../../../../pic32c/lib/thumb/v8-m.base/nofp/libg-musl.a(__fmt_x.o) (toupper)
/Applications/microchip/xc32/v4.10/bin/bin/../../lib/gcc/pic32c/8.3.1/../../../../pic32c/lib/thumb/v8-m.base/nofp/libg-musl.a(__environ.o)
                              /Applications/microchip/xc32/v4.10/bin/bin/../../lib/gcc/pic32c/8.3.1/../../../../pic32c/lib/thumb/v8-m.base/nofp/libg-musl.a(__libc_start_main.o) (__environ)
/Applications/microchip/xc32/v4.10/bin/bin/../../lib/gcc/pic32c/8.3.1/../../../../pic32c/lib/thumb/v8-m.base/nofp/libg-musl.a(__errno_location.o)
                              /Applications/microchip/xc32/v4.10/bin/bin/../../lib/gcc/pic32c/8.3.1/../../../../pic32c/lib/thumb/v8-m.base/nofp/libg-musl.a(malloc.o) (__errno_val)
/Applications/microchip/xc32/v4.10/bin/bin/../../lib/gcc/pic32c/8.3.1/../../../../pic32c/lib/thumb/v8-m.base/nofp/libg-musl.a(_Exit.o)
                              /Applications/microchip/xc32/v4.10/bin/bin/../../lib/gcc/pic32c/8.3.1/../../../../pic32c/lib/thumb/v8-m.base/nofp/libg-musl.a(exit.o) (_Exit)
/Applications/microchip/xc32/v4.10/bin/bin/../../lib/gcc/pic32c/8.3.1/../../../../pic32c/lib/thumb/v8-m.base/nofp/libg-musl.a(langinfo.o)
                              /Applications/microchip/xc32/v4.10/bin/bin/../../lib/gcc/pic32c/8.3.1/../../../../pic32c/lib/thumb/v8-m.base/nofp/libg-musl.a(strftime.o) (__nl_langinfo_l)
/Applications/microchip/xc32/v4.10/bin/bin/../../lib/gcc/pic32c/8.3.1/../../../../pic32c/lib/thumb/v8-m.base/nofp/libg-musl.a(c_locale.o)
                              /Applications/microchip/xc32/v4.10/bin/bin/../../lib/gcc/pic32c/8.3.1/../../../../pic32c/lib/thumb/v8-m.base/nofp/libg-musl.a(strftime.o) (__global_locale)
/Applications/microchip/xc32/v4.10/bin/bin/../../lib/gcc/pic32c/8.3.1/../../../../pic32c/lib/thumb/v8-m.base/nofp/libg-musl.a(__int_vfprintf.o)
                              /Applications/microchip/xc32/v4.10/bin/bin/../../lib/gcc/pic32c/8.3.1/../../../../pic32c/lib/thumb/v8-m.base/nofp/libg-musl.a(__sio_fprintf_dfosux.o) (__vfprintf)
/Applications/microchip/xc32/v4.10/bin/bin/../../lib/gcc/pic32c/8.3.1/../../../../pic32c/lib/thumb/v8-m.base/nofp/libg-musl.a(__int_vsnprintf.o)
                              /Applications/microchip/xc32/v4.10/bin/bin/../../lib/gcc/pic32c/8.3.1/../../../../pic32c/lib/thumb/v8-m.base/nofp/libg-musl.a(__sio_snprintf_dfosux.o) (__vsnprintf)
/Applications/microchip/xc32/v4.10/bin/bin/../../lib/gcc/pic32c/8.3.1/../../../../pic32c/lib/thumb/v8-m.base/nofp/libg-musl.a(__string_read.o)
                              /Applications/microchip/xc32/v4.10/bin/bin/../../lib/gcc/pic32c/8.3.1/../../../../pic32c/lib/thumb/v8-m.base/nofp/libg-musl.a(vsscanf.o) (__string_read)
/Applications/microchip/xc32/v4.10/bin/bin/../../lib/gcc/pic32c/8.3.1/../../../../pic32c/lib/thumb/v8-m.base/nofp/libg-musl.a(fputs.o)
                              /Applications/microchip/xc32/v4.10/bin/bin/../../lib/gcc/pic32c/8.3.1/../../../../pic32c/lib/thumb/v8-m.base/nofp/libg-musl.a(puts.o) (fputs)
/Applications/microchip/xc32/v4.10/bin/bin/../../lib/gcc/pic32c/8.3.1/../../../../pic32c/lib/thumb/v8-m.base/nofp/libg-musl.a(__io_init_needed.o)
                              /Applications/microchip/xc32/v4.10/bin/bin/../../lib/gcc/pic32c/8.3.1/../../../../pic32c/lib/thumb/v8-m.base/nofp/libg-musl.a(stdout.o) (__io_init_needed)
/Applications/microchip/xc32/v4.10/bin/bin/../../lib/gcc/pic32c/8.3.1/../../../../pic32c/lib/thumb/v8-m.base/nofp/libg-musl.a(__io_rw_needed.o)
                              /Applications/microchip/xc32/v4.10/bin/bin/../../lib/gcc/pic32c/8.3.1/../../../../pic32c/lib/thumb/v8-m.base/nofp/libg-musl.a(stdin.o) (__io_rw_needed)
/Applications/microchip/xc32/v4.10/bin/bin/../../lib/gcc/pic32c/8.3.1/../../../../pic32c/lib/thumb/v8-m.base/nofp/libg-musl.a(__out.o)
                              /Applications/microchip/xc32/v4.10/bin/bin/../../lib/gcc/pic32c/8.3.1/../../../../pic32c/lib/thumb/v8-m.base/nofp/libg-musl.a(putc.o) (__out_needed)
/Applications/microchip/xc32/v4.10/bin/bin/../../lib/gcc/pic32c/8.3.1/../../../../pic32c/lib/thumb/v8-m.base/nofp/libg-musl.a(__pop_float.o)
                              /Applications/microchip/xc32/v4.10/bin/bin/../../lib/gcc/pic32c/8.3.1/../../../../pic32c/lib/thumb/v8-m.base/nofp/libg-musl.a(__printf_core.o) (__pop_float)
/Applications/microchip/xc32/v4.10/bin/bin/../../lib/gcc/pic32c/8.3.1/../../../../pic32c/lib/thumb/v8-m.base/nofp/libg-musl.a(__pop_int.o)
                              /Applications/microchip/xc32/v4.10/bin/bin/../../lib/gcc/pic32c/8.3.1/../../../../pic32c/lib/thumb/v8-m.base/nofp/libg-musl.a(__printf_core.o) (__pop_int)
/Applications/microchip/xc32/v4.10/bin/bin/../../lib/gcc/pic32c/8.3.1/../../../../pic32c/lib/thumb/v8-m.base/nofp/libg-musl.a(__pop_ptr.o)
                              /Applications/microchip/xc32/v4.10/bin/bin/../../lib/gcc/pic32c/8.3.1/../../../../pic32c/lib/thumb/v8-m.base/nofp/libg-musl.a(__printf_core.o) (__pop_ptr)
/Applications/microchip/xc32/v4.10/bin/bin/../../lib/gcc/pic32c/8.3.1/../../../../pic32c/lib/thumb/v8-m.base/nofp/libg-musl.a(__stdio_read.o)
                              /Applications/microchip/xc32/v4.10/bin/bin/../../lib/gcc/pic32c/8.3.1/../../../../pic32c/lib/thumb/v8-m.base/nofp/libg-musl.a(stdin.o) (__stdio_read)
/Applications/microchip/xc32/v4.10/bin/bin/../../lib/gcc/pic32c/8.3.1/../../../../pic32c/lib/thumb/v8-m.base/nofp/libg-musl.a(__towrite_rw.o)
                              /Applications/microchip/xc32/v4.10/bin/bin/../../lib/gcc/pic32c/8.3.1/../../../../pic32c/lib/thumb/v8-m.base/nofp/libg-musl.a(__io_rw_needed.o) (__towrite_rw_needed)
/Applications/microchip/xc32/v4.10/bin/bin/../../lib/gcc/pic32c/8.3.1/../../../../pic32c/lib/thumb/v8-m.base/nofp/libg-musl.a(setvbuf.o)
                              /Applications/microchip/xc32/v4.10/bin/bin/../../lib/gcc/pic32c/8.3.1/../../../../pic32c/lib/thumb/v8-m.base/nofp/libg-musl.a(setbuf.o) (setvbuf)
/Applications/microchip/xc32/v4.10/bin/bin/../../lib/gcc/pic32c/8.3.1/../../../../pic32c/lib/thumb/v8-m.base/nofp/libg-musl.a(vfscanf.o)
                              /Applications/microchip/xc32/v4.10/bin/bin/../../lib/gcc/pic32c/8.3.1/../../../../pic32c/lib/thumb/v8-m.base/nofp/libg-musl.a(vsscanf.o) (vfscanf)
/Applications/microchip/xc32/v4.10/bin/bin/../../lib/gcc/pic32c/8.3.1/../../../../pic32c/lib/thumb/v8-m.base/nofp/libg-musl.a(snprintf.o)
                              /Applications/microchip/xc32/v4.10/bin/bin/../../lib/gcc/pic32c/8.3.1/../../../../pic32c/lib/thumb/v8-m.base/nofp/libg-musl.a(strftime.o) (snprintf)
/Applications/microchip/xc32/v4.10/bin/bin/../../lib/gcc/pic32c/8.3.1/../../../../pic32c/lib/thumb/v8-m.base/nofp/libg-musl.a(abs.o)
                              /Applications/microchip/xc32/v4.10/bin/bin/../../lib/gcc/pic32c/8.3.1/../../../../pic32c/lib/thumb/v8-m.base/nofp/libg-musl.a(strftime.o) (abs)
/Applications/microchip/xc32/v4.10/bin/bin/../../lib/gcc/pic32c/8.3.1/../../../../pic32c/lib/thumb/v8-m.base/nofp/libg-musl.a(strtol.o)
                              /Applications/microchip/xc32/v4.10/bin/bin/../../lib/gcc/pic32c/8.3.1/../../../../pic32c/lib/thumb/v8-m.base/nofp/libg-musl.a(strftime.o) (strtoul)
/Applications/microchip/xc32/v4.10/bin/bin/../../lib/gcc/pic32c/8.3.1/../../../../pic32c/lib/thumb/v8-m.base/nofp/libg-musl.a(memchr.o)
                              /Applications/microchip/xc32/v4.10/bin/bin/../../lib/gcc/pic32c/8.3.1/../../../../pic32c/lib/thumb/v8-m.base/nofp/libg-musl.a(strnlen.o) (memchr)
/Applications/microchip/xc32/v4.10/bin/bin/../../lib/gcc/pic32c/8.3.1/../../../../pic32c/lib/thumb/v8-m.base/nofp/libg-musl.a(stpcpy.o)
                              /Applications/microchip/xc32/v4.10/bin/bin/../../lib/gcc/pic32c/8.3.1/../../../../pic32c/lib/thumb/v8-m.base/nofp/libg-musl.a(strcpy.o) (__stpcpy)
/Applications/microchip/xc32/v4.10/bin/bin/../../lib/gcc/pic32c/8.3.1/../../../../pic32c/lib/thumb/v8-m.base/nofp/libg-musl.a(__tm_to_secs.o)
                              /Applications/microchip/xc32/v4.10/bin/bin/../../lib/gcc/pic32c/8.3.1/../../../../pic32c/lib/thumb/v8-m.base/nofp/libg-musl.a(strftime.o) (__tm_to_secs)
/Applications/microchip/xc32/v4.10/bin/bin/../../lib/gcc/pic32c/8.3.1/../../../../pic32c/lib/thumb/v8-m.base/nofp/libg-musl.a(__year_to_secs.o)
                              /Applications/microchip/xc32/v4.10/bin/bin/../../lib/gcc/pic32c/8.3.1/../../../../pic32c/lib/thumb/v8-m.base/nofp/libg-musl.a(__tm_to_secs.o) (__year_to_secs)
/Applications/microchip/xc32/v4.10/bin/bin/../../lib/gcc/pic32c/8.3.1/../../../../pic32c/lib/thumb/v8-m.base/nofp/libg-musl.a(__tz.o)
                              /Applications/microchip/xc32/v4.10/bin/bin/../../lib/gcc/pic32c/8.3.1/../../../../pic32c/lib/thumb/v8-m.base/nofp/libg-musl.a(strftime.o) (__tm_to_tzname)
/Applications/microchip/xc32/v4.10/bin/bin/../../lib/gcc/pic32c/8.3.1/../../../../pic32c/lib/thumb/v8-m.base/nofp/libg-musl.a(clock_gettime.o)
                              /Applications/microchip/xc32/v4.10/bin/bin/../../lib/gcc/pic32c/8.3.1/../../../../pic32c/lib/thumb/v8-m.base/nofp/libg-musl.a(time.o) (__clock_gettime)
/Applications/microchip/xc32/v4.10/bin/bin/../../lib/gcc/pic32c/8.3.1/../../../../pic32c/lib/thumb/v8-m.base/nofp/libg-musl.a(gettimeofday.o)
                              /Applications/microchip/xc32/v4.10/bin/bin/../../lib/gcc/pic32c/8.3.1/../../../../pic32c/lib/thumb/v8-m.base/nofp/libg-musl.a(clock_gettime.o) (gettimeofday)
/Applications/microchip/xc32/v4.10/bin/bin/../../lib/gcc/pic32c/8.3.1/../../../../pic32c/lib/thumb/v8-m.base/nofp/libg-musl.a(gmtime_r.o)
                              /Applications/microchip/xc32/v4.10/bin/bin/../../lib/gcc/pic32c/8.3.1/../../../../pic32c/lib/thumb/v8-m.base/nofp/libg-musl.a(localtime.o) (__gmtime_r)
/Applications/microchip/xc32/v4.10/bin/bin/../../lib/gcc/pic32c/8.3.1/../../../../pic32c/lib/thumb/v8-m.base/nofp/libg-musl.a(readv.o)
                              /Applications/microchip/xc32/v4.10/bin/bin/../../lib/gcc/pic32c/8.3.1/../../../../pic32c/lib/thumb/v8-m.base/nofp/libg-musl.a(__stdio_read.o) (readv)
/Applications/microchip/xc32/v4.10/bin/bin/../../lib/gcc/pic32c/8.3.1/../../../../pic32c/lib/thumb/v8-m.base/nofp/libg-musl.a(intscan.o)
                              /Applications/microchip/xc32/v4.10/bin/bin/../../lib/gcc/pic32c/8.3.1/../../../../pic32c/lib/thumb/v8-m.base/nofp/libg-musl.a(strtol.o) (__intscan)
/Applications/microchip/xc32/v4.10/bin/bin/../../lib/gcc/pic32c/8.3.1/../../../../pic32c/lib/thumb/v8-m.base/nofp/libg-musl.a(syscall_ret.o)
                              /Applications/microchip/xc32/v4.10/bin/bin/../../lib/gcc/pic32c/8.3.1/../../../../pic32c/lib/thumb/v8-m.base/nofp/libg-musl.a(clock_gettime.o) (__syscall_ret)
/Applications/microchip/xc32/v4.10/bin/bin/../../lib/gcc/pic32c/8.3.1/../../../../pic32c/lib/thumb/v8-m.base/nofp/libg-musl.a(shgetc.o)
                              /Applications/microchip/xc32/v4.10/bin/bin/../../lib/gcc/pic32c/8.3.1/../../../../pic32c/lib/thumb/v8-m.base/nofp/libg-musl.a(strtol.o) (__shlim)
/Applications/microchip/xc32/v4.10/bin/bin/../../lib/gcc/pic32c/8.3.1/../../../../pic32c/lib/thumb/v8-m.base/nofp/libg-musl.a(__uflow.o)
                              /Applications/microchip/xc32/v4.10/bin/bin/../../lib/gcc/pic32c/8.3.1/../../../../pic32c/lib/thumb/v8-m.base/nofp/libg-musl.a(shgetc.o) (__uflow)
/Applications/microchip/xc32/v4.10/bin/bin/../../lib/gcc/pic32c/8.3.1/../../../../pic32c/lib/thumb/v8-m.base/nofp/libg-musl.a(__fopen_rw.o)
                              /Applications/microchip/xc32/v4.10/bin/bin/../../lib/gcc/pic32c/8.3.1/../../../../pic32c/lib/thumb/v8-m.base/nofp/libg-musl.a(__io_rw_needed.o) (__fopen_rw_needed)
/Applications/microchip/xc32/v4.10/bin/bin/../../lib/gcc/pic32c/8.3.1/../../../../pic32c/lib/thumb/v8-m.base/nofp/libg-musl.a(__ftello_rw.o)
                              /Applications/microchip/xc32/v4.10/bin/bin/../../lib/gcc/pic32c/8.3.1/../../../../pic32c/lib/thumb/v8-m.base/nofp/libg-musl.a(__io_rw_needed.o) (__ftello_adj_rw_needed)
/Applications/microchip/xc32/v4.10/bin/bin/../../lib/gcc/pic32c/8.3.1/../../../../pic32c/lib/thumb/v8-m.base/nofp/libg-musl.a(__init_stdio.o)
                              /Applications/microchip/xc32/v4.10/bin/bin/../../lib/gcc/pic32c/8.3.1/../../../../pic32c/lib/thumb/v8-m.base/nofp/libg-musl.a(__io_init_needed.o) (__init_stdio_needed)
/Applications/microchip/xc32/v4.10/bin/bin/../../lib/gcc/pic32c/8.3.1/../../../../pic32c/lib/thumb/v8-m.base/nofp/libg-musl.a(__io_buf_needed.o)
                              /Applications/microchip/xc32/v4.10/bin/bin/../../lib/gcc/pic32c/8.3.1/../../../../pic32c/lib/thumb/v8-m.base/nofp/libg-musl.a(__io_rw_needed.o) (__io_buf_needed)
/Applications/microchip/xc32/v4.10/bin/bin/../../lib/gcc/pic32c/8.3.1/../../../../pic32c/lib/thumb/v8-m.base/nofp/libg-musl.a(__io_file_needed.o)
                              /Applications/microchip/xc32/v4.10/bin/bin/../../lib/gcc/pic32c/8.3.1/../../../../pic32c/lib/thumb/v8-m.base/nofp/libg-musl.a(__io_init_needed.o) (__io_file_needed)
/Applications/microchip/xc32/v4.10/bin/bin/../../lib/gcc/pic32c/8.3.1/../../../../pic32c/lib/thumb/v8-m.base/nofp/libg-musl.a(__io_scan_needed.o)
                              /Applications/microchip/xc32/v4.10/bin/bin/../../lib/gcc/pic32c/8.3.1/../../../../pic32c/lib/thumb/v8-m.base/nofp/libg-musl.a(vfscanf.o) (__io_scan_needed)
/Applications/microchip/xc32/v4.10/bin/bin/../../lib/gcc/pic32c/8.3.1/../../../../pic32c/lib/thumb/v8-m.base/nofp/libg-musl.a(__io_std_needed.o)
                              /Applications/microchip/xc32/v4.10/bin/bin/../../lib/gcc/pic32c/8.3.1/../../../../pic32c/lib/thumb/v8-m.base/nofp/libg-musl.a(__io_buf_needed.o) (__io_std_needed)
/Applications/microchip/xc32/v4.10/bin/bin/../../lib/gcc/pic32c/8.3.1/../../../../pic32c/lib/thumb/v8-m.base/nofp/libg-musl.a(__putc.o)
                              /Applications/microchip/xc32/v4.10/bin/bin/../../lib/gcc/pic32c/8.3.1/../../../../pic32c/lib/thumb/v8-m.base/nofp/libg-musl.a(__io_buf_needed.o) (__putc_needed)
/Applications/microchip/xc32/v4.10/bin/bin/../../lib/gcc/pic32c/8.3.1/../../../../pic32c/lib/thumb/v8-m.base/nofp/libg-musl.a(__scan_d.o)
                              /Applications/microchip/xc32/v4.10/bin/bin/../../lib/gcc/pic32c/8.3.1/../../../../pic32c/lib/thumb/v8-m.base/nofp/libg-musl.a(__io_scan_needed.o) (__scan_d_needed)
/Applications/microchip/xc32/v4.10/bin/bin/../../lib/gcc/pic32c/8.3.1/../../../../pic32c/lib/thumb/v8-m.base/nofp/libg-musl.a(__scan_fp.o)
                              /Applications/microchip/xc32/v4.10/bin/bin/../../lib/gcc/pic32c/8.3.1/../../../../pic32c/lib/thumb/v8-m.base/nofp/libg-musl.a(__io_scan_needed.o) (__scan_a_needed)
/Applications/microchip/xc32/v4.10/bin/bin/../../lib/gcc/pic32c/8.3.1/../../../../pic32c/lib/thumb/v8-m.base/nofp/libg-musl.a(__scan_i.o)
                              /Applications/microchip/xc32/v4.10/bin/bin/../../lib/gcc/pic32c/8.3.1/../../../../pic32c/lib/thumb/v8-m.base/nofp/libg-musl.a(__io_scan_needed.o) (__scan_i_needed)
/Applications/microchip/xc32/v4.10/bin/bin/../../lib/gcc/pic32c/8.3.1/../../../../pic32c/lib/thumb/v8-m.base/nofp/libg-musl.a(__scan_o.o)
                              /Applications/microchip/xc32/v4.10/bin/bin/../../lib/gcc/pic32c/8.3.1/../../../../pic32c/lib/thumb/v8-m.base/nofp/libg-musl.a(__io_scan_needed.o) (__scan_o_needed)
/Applications/microchip/xc32/v4.10/bin/bin/../../lib/gcc/pic32c/8.3.1/../../../../pic32c/lib/thumb/v8-m.base/nofp/libg-musl.a(__scan_s.o)
                              /Applications/microchip/xc32/v4.10/bin/bin/../../lib/gcc/pic32c/8.3.1/../../../../pic32c/lib/thumb/v8-m.base/nofp/libg-musl.a(__io_scan_needed.o) (__scan_s_needed)
/Applications/microchip/xc32/v4.10/bin/bin/../../lib/gcc/pic32c/8.3.1/../../../../pic32c/lib/thumb/v8-m.base/nofp/libg-musl.a(__scan_u.o)
                              /Applications/microchip/xc32/v4.10/bin/bin/../../lib/gcc/pic32c/8.3.1/../../../../pic32c/lib/thumb/v8-m.base/nofp/libg-musl.a(__io_scan_needed.o) (__scan_u_needed)
/Applications/microchip/xc32/v4.10/bin/bin/../../lib/gcc/pic32c/8.3.1/../../../../pic32c/lib/thumb/v8-m.base/nofp/libg-musl.a(__scan_x.o)
                              /Applications/microchip/xc32/v4.10/bin/bin/../../lib/gcc/pic32c/8.3.1/../../../../pic32c/lib/thumb/v8-m.base/nofp/libg-musl.a(__io_scan_needed.o) (__scan_x_needed)
/Applications/microchip/xc32/v4.10/bin/bin/../../lib/gcc/pic32c/8.3.1/../../../../pic32c/lib/thumb/v8-m.base/nofp/libg-musl.a(__scanf_core.o)
                              /Applications/microchip/xc32/v4.10/bin/bin/../../lib/gcc/pic32c/8.3.1/../../../../pic32c/lib/thumb/v8-m.base/nofp/libg-musl.a(__scan_d.o) (__skipws)
/Applications/microchip/xc32/v4.10/bin/bin/../../lib/gcc/pic32c/8.3.1/../../../../pic32c/lib/thumb/v8-m.base/nofp/libg-musl.a(__stderr.o)
                              /Applications/microchip/xc32/v4.10/bin/bin/../../lib/gcc/pic32c/8.3.1/../../../../pic32c/lib/thumb/v8-m.base/nofp/libg-musl.a(__io_std_needed.o) (__init_stderr_needed)
/Applications/microchip/xc32/v4.10/bin/bin/../../lib/gcc/pic32c/8.3.1/../../../../pic32c/lib/thumb/v8-m.base/nofp/libg-musl.a(__stdio_close.o)
                              /Applications/microchip/xc32/v4.10/bin/bin/../../lib/gcc/pic32c/8.3.1/../../../../pic32c/lib/thumb/v8-m.base/nofp/libg-musl.a(__fopen_rw.o) (__stdio_close_rw)
/Applications/microchip/xc32/v4.10/bin/bin/../../lib/gcc/pic32c/8.3.1/../../../../pic32c/lib/thumb/v8-m.base/nofp/libg-musl.a(__stdio_exit.o)
                              /Applications/microchip/xc32/v4.10/bin/bin/../../lib/gcc/pic32c/8.3.1/../../../../pic32c/lib/thumb/v8-m.base/nofp/libg-musl.a(__io_buf_needed.o) (__stdio_exit_needed)
/Applications/microchip/xc32/v4.10/bin/bin/../../lib/gcc/pic32c/8.3.1/../../../../pic32c/lib/thumb/v8-m.base/nofp/libg-musl.a(__stdio_write.o)
                              /Applications/microchip/xc32/v4.10/bin/bin/../../lib/gcc/pic32c/8.3.1/../../../../pic32c/lib/thumb/v8-m.base/nofp/libg-musl.a(setvbuf.o) (__stdio_write_buffered)
/Applications/microchip/xc32/v4.10/bin/bin/../../lib/gcc/pic32c/8.3.1/../../../../pic32c/lib/thumb/v8-m.base/nofp/libg-musl.a(__stdout.o)
                              /Applications/microchip/xc32/v4.10/bin/bin/../../lib/gcc/pic32c/8.3.1/../../../../pic32c/lib/thumb/v8-m.base/nofp/libg-musl.a(__io_std_needed.o) (__init_stdout_needed)
/Applications/microchip/xc32/v4.10/bin/bin/../../lib/gcc/pic32c/8.3.1/../../../../pic32c/lib/thumb/v8-m.base/nofp/libg-musl.a(__towrite.o)
                              /Applications/microchip/xc32/v4.10/bin/bin/../../lib/gcc/pic32c/8.3.1/../../../../pic32c/lib/thumb/v8-m.base/nofp/libg-musl.a(__stdio_write.o) (__towrite)
/Applications/microchip/xc32/v4.10/bin/bin/../../lib/gcc/pic32c/8.3.1/../../../../pic32c/lib/thumb/v8-m.base/nofp/libg-musl.a(vsnprintf.o)
                              /Applications/microchip/xc32/v4.10/bin/bin/../../lib/gcc/pic32c/8.3.1/../../../../pic32c/lib/thumb/v8-m.base/nofp/libg-musl.a(snprintf.o) (vsnprintf)
/Applications/microchip/xc32/v4.10/bin/bin/../../lib/gcc/pic32c/8.3.1/../../../../pic32c/lib/thumb/v8-m.base/nofp/libg-musl.a(strtod.o)
                              /Applications/microchip/xc32/v4.10/bin/bin/../../lib/gcc/pic32c/8.3.1/../../../../pic32c/lib/thumb/v8-m.base/nofp/libg-musl.a(__scan_fp.o) (strtold)
/Applications/microchip/xc32/v4.10/bin/bin/../../lib/gcc/pic32c/8.3.1/../../../../pic32c/lib/thumb/v8-m.base/nofp/libg-musl.a(__month_to_secs.o)
                              /Applications/microchip/xc32/v4.10/bin/bin/../../lib/gcc/pic32c/8.3.1/../../../../pic32c/lib/thumb/v8-m.base/nofp/libg-musl.a(__tm_to_secs.o) (__month_to_secs)
/Applications/microchip/xc32/v4.10/bin/bin/../../lib/gcc/pic32c/8.3.1/../../../../pic32c/lib/thumb/v8-m.base/nofp/libg-musl.a(__secs_to_tm.o)
                              /Applications/microchip/xc32/v4.10/bin/bin/../../lib/gcc/pic32c/8.3.1/../../../../pic32c/lib/thumb/v8-m.base/nofp/libg-musl.a(gmtime_r.o) (__secs_to_tm)
/Applications/microchip/xc32/v4.10/bin/bin/../../lib/gcc/pic32c/8.3.1/../../../../pic32c/lib/thumb/v8-m.base/nofp/libg-musl.a(writev.o)
                              /Applications/microchip/xc32/v4.10/bin/bin/../../lib/gcc/pic32c/8.3.1/../../../../pic32c/lib/thumb/v8-m.base/nofp/libg-musl.a(__stdio_write.o) (writev)
/Applications/microchip/xc32/v4.10/bin/bin/../../lib/gcc/pic32c/8.3.1/../../../../pic32c/lib/thumb/v8-m.base/nofp/libg-musl.a(floatscan.o)
                              /Applications/microchip/xc32/v4.10/bin/bin/../../lib/gcc/pic32c/8.3.1/../../../../pic32c/lib/thumb/v8-m.base/nofp/libg-musl.a(strtod.o) (__floatscan)
/Applications/microchip/xc32/v4.10/bin/bin/../../lib/gcc/pic32c/8.3.1/../../../../pic32c/lib/thumb/v8-m.base/nofp/libg-musl.a(__overflow.o)
                              /Applications/microchip/xc32/v4.10/bin/bin/../../lib/gcc/pic32c/8.3.1/../../../../pic32c/lib/thumb/v8-m.base/nofp/libg-musl.a(__putc.o) (__overflow)
/Applications/microchip/xc32/v4.10/bin/bin/../../lib/gcc/pic32c/8.3.1/../../../../pic32c/lib/thumb/v8-m.base/nofp/libg-musl.a(__toread.o)
                              /Applications/microchip/xc32/v4.10/bin/bin/../../lib/gcc/pic32c/8.3.1/../../../../pic32c/lib/thumb/v8-m.base/nofp/libg-musl.a(__uflow.o) (__toread)
/Applications/microchip/xc32/v4.10/bin/bin/../../lib/gcc/pic32c/8.3.1/../../../../pic32c/lib/thumb/v8-m.base/nofp/libg-musl.a(__fclose.o)
                              /Applications/microchip/xc32/v4.10/bin/bin/../../lib/gcc/pic32c/8.3.1/../../../../pic32c/lib/thumb/v8-m.base/nofp/libg-musl.a(__io_buf_needed.o) (__fclose_needed)
/Applications/microchip/xc32/v4.10/bin/bin/../../lib/gcc/pic32c/8.3.1/../../../../pic32c/lib/thumb/v8-m.base/nofp/libg-musl.a(__fopen.o)
                              /Applications/microchip/xc32/v4.10/bin/bin/../../lib/gcc/pic32c/8.3.1/../../../../pic32c/lib/thumb/v8-m.base/nofp/libg-musl.a(__io_std_needed.o) (__fopen_needed)
/Applications/microchip/xc32/v4.10/bin/bin/../../lib/gcc/pic32c/8.3.1/../../../../pic32c/lib/thumb/v8-m.base/nofp/libg-musl.a(__fseeko.o)
                              /Applications/microchip/xc32/v4.10/bin/bin/../../lib/gcc/pic32c/8.3.1/../../../../pic32c/lib/thumb/v8-m.base/nofp/libg-musl.a(__io_buf_needed.o) (__fseeko_needed)
/Applications/microchip/xc32/v4.10/bin/bin/../../lib/gcc/pic32c/8.3.1/../../../../pic32c/lib/thumb/v8-m.base/nofp/libg-musl.a(__ftello.o)
                              /Applications/microchip/xc32/v4.10/bin/bin/../../lib/gcc/pic32c/8.3.1/../../../../pic32c/lib/thumb/v8-m.base/nofp/libg-musl.a(__io_buf_needed.o) (__ftello_adj_needed)
/Applications/microchip/xc32/v4.10/bin/bin/../../lib/gcc/pic32c/8.3.1/../../../../pic32c/lib/thumb/v8-m.base/nofp/libg-musl.a(__fwrite.o)
                              /Applications/microchip/xc32/v4.10/bin/bin/../../lib/gcc/pic32c/8.3.1/../../../../pic32c/lib/thumb/v8-m.base/nofp/libg-musl.a(__io_std_needed.o) (__fwrite_needed)
/Applications/microchip/xc32/v4.10/bin/bin/../../lib/gcc/pic32c/8.3.1/../../../../pic32c/lib/thumb/v8-m.base/nofp/libg-musl.a(__push_float.o)
                              /Applications/microchip/xc32/v4.10/bin/bin/../../lib/gcc/pic32c/8.3.1/../../../../pic32c/lib/thumb/v8-m.base/nofp/libg-musl.a(__scanf_core.o) (__push_float)
/Applications/microchip/xc32/v4.10/bin/bin/../../lib/gcc/pic32c/8.3.1/../../../../pic32c/lib/thumb/v8-m.base/nofp/libg-musl.a(__push_int.o)
                              /Applications/microchip/xc32/v4.10/bin/bin/../../lib/gcc/pic32c/8.3.1/../../../../pic32c/lib/thumb/v8-m.base/nofp/libg-musl.a(__scanf_core.o) (__push_int)
/Applications/microchip/xc32/v4.10/bin/bin/../../lib/gcc/pic32c/8.3.1/../../../../pic32c/lib/thumb/v8-m.base/nofp/libg-musl.a(vfprintf.o)
                              /Applications/microchip/xc32/v4.10/bin/bin/../../lib/gcc/pic32c/8.3.1/../../../../pic32c/lib/thumb/v8-m.base/nofp/libg-musl.a(vsnprintf.o) (vfprintf)
/Applications/microchip/xc32/v4.10/bin/bin/../../lib/gcc/pic32c/8.3.1/../../../../pic32c/lib/thumb/v8-m.base/nofp/libg-musl.a(__io_fmt_needed.o)
                              /Applications/microchip/xc32/v4.10/bin/bin/../../lib/gcc/pic32c/8.3.1/../../../../pic32c/lib/thumb/v8-m.base/nofp/libg-musl.a(vfprintf.o) (__io_fmt_needed)
/Applications/microchip/xc32/v4.10/bin/bin/../../lib/gcc/pic32c/8.3.1/../../../../pic32c/lib/thumb/v8-m.base/nofp/libg-musl.a(__fmt_a.o)
                              /Applications/microchip/xc32/v4.10/bin/bin/../../lib/gcc/pic32c/8.3.1/../../../../pic32c/lib/thumb/v8-m.base/nofp/libg-musl.a(__io_fmt_needed.o) (__fmt_a_needed)
/Applications/microchip/xc32/v4.10/bin/bin/../../lib/gcc/pic32c/8.3.1/../../../../pic32c/lib/thumb/v8-m.base/nofp/libc-musl.a(fprintf.o)
                              (fprintf)
/Applications/microchip/xc32/v4.10/bin/bin/../../lib/gcc/pic32c/8.3.1/../../../../pic32c/lib/thumb/v8-m.base/nofp/libc-musl.a(printf.o)
                              (printf)
/Applications/microchip/xc32/v4.10/bin/bin/../../lib/gcc/pic32c/8.3.1/../../../../pic32c/lib/thumb/v8-m.base/nofp/libm-emfloat.a(lib_a-_SCALBN.o)
                              /Applications/microchip/xc32/v4.10/bin/bin/../../lib/gcc/pic32c/8.3.1/../../../../pic32c/lib/thumb/v8-m.base/nofp/libg-musl.a(floatscan.o) (scalbn)
/Applications/microchip/xc32/v4.10/bin/bin/../../lib/gcc/pic32c/8.3.1/../../../../pic32c/lib/thumb/v8-m.base/nofp/libm-emfloat.a(lib_a-_FLOOR.o)
                              /Applications/microchip/xc32/v4.10/bin/bin/../../lib/gcc/pic32c/8.3.1/../../../../pic32c/lib/thumb/v8-m.base/nofp/libg-musl.a(__fmt_fp.o) (floor)
/Applications/microchip/xc32/v4.10/bin/bin/../../lib/gcc/pic32c/8.3.1/../../../../pic32c/lib/thumb/v8-m.base/nofp/libm-emfloat.a(lib_a-_FMOD.o)
                              /Applications/microchip/xc32/v4.10/bin/bin/../../lib/gcc/pic32c/8.3.1/../../../../pic32c/lib/thumb/v8-m.base/nofp/libg-musl.a(floatscan.o) (fmodl)
/Applications/microchip/xc32/v4.10/bin/bin/../../lib/gcc/pic32c/8.3.1/../../../../pic32c/lib/thumb/v8-m.base/nofp/libm-emfloat.a(lib_a-_FABS.o)
                              /Applications/microchip/xc32/v4.10/bin/bin/../../lib/gcc/pic32c/8.3.1/../../../../pic32c/lib/thumb/v8-m.base/nofp/libg-musl.a(floatscan.o) (fabsl)
/Applications/microchip/xc32/v4.10/bin/bin/../../lib/gcc/pic32c/8.3.1/../../../../pic32c/lib/thumb/v8-m.base/nofp/libm-emfloat.a(lib_a-_FMA.o)
                              /Applications/microchip/xc32/v4.10/bin/bin/../../lib/gcc/pic32c/8.3.1/../../../../pic32c/lib/thumb/v8-m.base/nofp/libg-musl.a(__fmt_fp.o) (fma)
/Applications/microchip/xc32/v4.10/bin/bin/../../lib/gcc/pic32c/8.3.1/../../../../pic32c/lib/thumb/v8-m.base/nofp/libm-emfloat.a(lib_a-_COPYSIGN.o)
                              /Applications/microchip/xc32/v4.10/bin/bin/../../lib/gcc/pic32c/8.3.1/../../../../pic32c/lib/thumb/v8-m.base/nofp/libg-musl.a(floatscan.o) (copysignl)
/Applications/microchip/xc32/v4.10/bin/bin/../../lib/gcc/pic32c/8.3.1/thumb/v8-m.base/nofp/libgcc.a(_thumb1_case_uhi.o)
                              /Applications/microchip/xc32/v4.10/bin/bin/../../lib/gcc/pic32c/8.3.1/../../../../pic32c/lib/thumb/v8-m.base/nofp/libg-musl.a(strftime.o) (__gnu_thumb1_case_uhi)
/Applications/microchip/xc32/v4.10/bin/bin/../../lib/gcc/pic32c/8.3.1/thumb/v8-m.base/nofp/libgcc.a(_lshrdi3.o)
                              /Applications/microchip/xc32/v4.10/bin/bin/../../lib/gcc/pic32c/8.3.1/../../../../pic32c/lib/thumb/v8-m.base/nofp/libg-musl.a(malloc.o) (__aeabi_llsr)
/Applications/microchip/xc32/v4.10/bin/bin/../../lib/gcc/pic32c/8.3.1/thumb/v8-m.base/nofp/libgcc.a(_ashldi3.o)
                              /Applications/microchip/xc32/v4.10/bin/bin/../../lib/gcc/pic32c/8.3.1/../../../../pic32c/lib/thumb/v8-m.base/nofp/libg-musl.a(malloc.o) (__aeabi_llsl)
/Applications/microchip/xc32/v4.10/bin/bin/../../lib/gcc/pic32c/8.3.1/thumb/v8-m.base/nofp/libgcc.a(_aeabi_ldivmod.o)
                              /Applications/microchip/xc32/v4.10/bin/bin/../../lib/gcc/pic32c/8.3.1/../../../../pic32c/lib/thumb/v8-m.base/nofp/libg-musl.a(strftime.o) (__aeabi_ldivmod)
/Applications/microchip/xc32/v4.10/bin/bin/../../lib/gcc/pic32c/8.3.1/thumb/v8-m.base/nofp/libgcc.a(_aeabi_uldivmod.o)
                              build/default/debug/_ext/1414040249/az_span.o (__aeabi_uldivmod)
/Applications/microchip/xc32/v4.10/bin/bin/../../lib/gcc/pic32c/8.3.1/thumb/v8-m.base/nofp/libgcc.a(_muldi3.o)
                              build/default/debug/_ext/1414040249/az_span.o (__aeabi_lmul)
/Applications/microchip/xc32/v4.10/bin/bin/../../lib/gcc/pic32c/8.3.1/thumb/v8-m.base/nofp/libgcc.a(_udivmoddi4.o)
                              /Applications/microchip/xc32/v4.10/bin/bin/../../lib/gcc/pic32c/8.3.1/thumb/v8-m.base/nofp/libgcc.a(_aeabi_uldivmod.o) (__udivmoddi4)
/Applications/microchip/xc32/v4.10/bin/bin/../../lib/gcc/pic32c/8.3.1/thumb/v8-m.base/nofp/libgcc.a(bpabi.o)
                              /Applications/microchip/xc32/v4.10/bin/bin/../../lib/gcc/pic32c/8.3.1/thumb/v8-m.base/nofp/libgcc.a(_aeabi_ldivmod.o) (__gnu_ldivmod_helper)
/Applications/microchip/xc32/v4.10/bin/bin/../../lib/gcc/pic32c/8.3.1/thumb/v8-m.base/nofp/libgcc.a(_dvmd_tls.o)
                              /Applications/microchip/xc32/v4.10/bin/bin/../../lib/gcc/pic32c/8.3.1/thumb/v8-m.base/nofp/libgcc.a(_aeabi_ldivmod.o) (__aeabi_ldiv0)
/Applications/microchip/xc32/v4.10/bin/bin/../../lib/gcc/pic32c/8.3.1/thumb/v8-m.base/nofp/libgcc.a(_clzsi2.o)
                              /Applications/microchip/xc32/v4.10/bin/bin/../../lib/gcc/pic32c/8.3.1/thumb/v8-m.base/nofp/libgcc.a(_udivmoddi4.o) (__clzsi2)
/Applications/microchip/xc32/v4.10/bin/bin/../../lib/gcc/pic32c/8.3.1/thumb/v8-m.base/nofp/libgcc.a(_divdi3.o)
                              /Applications/microchip/xc32/v4.10/bin/bin/../../lib/gcc/pic32c/8.3.1/thumb/v8-m.base/nofp/libgcc.a(bpabi.o) (__divdi3)
/Applications/microchip/xc32/v4.10/bin/bin/../../lib/gcc/pic32c/8.3.1/../../../../pic32c/lib/thumb/v8-m.base/nofp/libpic32c.a(close.o)
                              /Applications/microchip/xc32/v4.10/bin/bin/../../lib/gcc/pic32c/8.3.1/../../../../pic32c/lib/thumb/v8-m.base/nofp/libg-musl.a(__stdio_close.o) (close)
/Applications/microchip/xc32/v4.10/bin/bin/../../lib/gcc/pic32c/8.3.1/../../../../pic32c/lib/thumb/v8-m.base/nofp/libpic32c.a(lseek.o)
                              /Applications/microchip/xc32/v4.10/bin/bin/../../lib/gcc/pic32c/8.3.1/../../../../pic32c/lib/thumb/v8-m.base/nofp/libg-musl.a(__stdio_close.o) (lseek)
/Applications/microchip/xc32/v4.10/bin/bin/../../lib/gcc/pic32c/8.3.1/../../../../pic32c/lib/thumb/v8-m.base/nofp/libpic32c.a(sbrk.o)
                              /Applications/microchip/xc32/v4.10/bin/bin/../../lib/gcc/pic32c/8.3.1/../../../../pic32c/lib/thumb/v8-m.base/nofp/libg-musl.a(expand_heap.o) (_sbrk)

Microchip PIC32 Memory-Usage Report

ROM Program-Memory Usage
section                    address  length [bytes]      (dec)  Description
-------                 ----------  -------------------------  -----------
.vectors                   0x40000          0x15c         348   
.text                      0x4015c           0x20          32  App's exec code 
.ARM.exidx                 0x4017c           0x10          16   
.rodata                    0x4018c         0x20a8        8360  Read-only const 
.text.ewf_example_azure    0x42234         0x1260        4704   
.rodata                    0x43494         0x101c        4124  Read-only const 
.text.azure_iot_process    0x444b0          0x7e4        2020   
.text.decfloat             0x44c94          0x7b8        1976   
.text._ewf_adapter_quec    0x4544c          0x780        1920   
.dinit                     0x45bcc          0x740        1856   
.text._ewf_adapter_quec    0x4630c          0x6f0        1776   
.text.__floatscan          0x469fc          0x65c        1628   
.text.az_iot_provisioni    0x47058          0x5ec        1516   
.text.ewf_adapter_quect    0x47644          0x5e0        1504   
.text.main                 0x47c24          0x4ce        1230   
.text.az_precondition_f    0x480f2            0x2           2   
.text.__fmt_fp             0x480f4          0x4c8        1224   
.text.ewf_adapter_quect    0x485bc          0x4b2        1202   
.text.ewf_adapter_quect    0x48a6e          0x4a4        1188   
.text.Dummy_App_Func       0x48f12            0x2           2   
.text.__fmt_a              0x48f14          0x494        1172   
.text._az_json_reader_p    0x493a8          0x48e        1166   
.text.__dummy              0x49836            0x2           2   
.text.ewf_adapter_quect    0x49838          0x464        1124   
.text.__intscan            0x49c9c          0x434        1076   
.text.__scanf_core         0x4a0d0          0x3f6        1014   
.text.dummy                0x4a4c6            0x2           2   
.text.__strftime_fmt_1     0x4a4c8          0x3cc         972   
.text._ewf_adapter_quec    0x4a894          0x3c8         968   
.text.ewf_adapter_quect    0x4ac5c          0x3a8         936   
.text.ewf_interface_pro    0x4b004          0x358         856   
.text.az_json_writer_ap    0x4b35c          0x346         838   
.text.__dummy              0x4b6a2            0x2           2   
.text.ewf_adapter_quect    0x4b6a4          0x320         800   
.text.fmod                 0x4b9c4          0x320         800   
.text                      0x4bce4          0x31a         794  App's exec code 
.text.__dummy              0x4bffe            0x2           2   
.text.__printf_core        0x4c000          0x318         792   
.text.az_json_writer_ap    0x4c318          0x2fe         766   
.text._ewf_interface_qu    0x4c616          0x2bc         700   
.text.azure_iot_hub_rep    0x4c8d2          0x2b6         694   
.text.ewf_interface_sta    0x4cb88          0x2a4         676   
.rodata                    0x4ce2c          0x2a0         672  Read-only const 
.text.ewf_adapter_quect    0x4d0cc          0x29a         666   
.text.ewf_adapter_quect    0x4d366          0x294         660   
.text.SERCOM2_USART_Int    0x4d5fa          0x290         656   
.text.ewf_adapter_quect    0x4d88a          0x27c         636   
.text.ewf_adapter_quect    0x4db06          0x26e         622   
.text.payload_build        0x4dd74          0x26c         620   
.text                      0x4dfe0          0x25a         602  App's exec code 
.text.az_iot_hub_client    0x4e23a          0x24c         588   
.text.__dummy              0x4e486            0x2           2   
.text.__scan_fp            0x4e488          0x248         584   
.text.az_span_dtoa         0x4e6d0          0x234         564   
.text.ewf_adapter_quect    0x4e904          0x208         520   
.text.ewf_adapter_quect    0x4eb0c          0x208         520   
.text.ewf_adapter_quect    0x4ed14          0x208         520   
.text.ewf_adapter_quect    0x4ef1c          0x208         520   
.text.az_json_token_is_    0x4f124          0x202         514   
.text.az_iot_hub_client    0x4f326          0x1fe         510   
.text.ewf_interface_ver    0x4f524          0x1f0         496   
.text.az_json_reader_ne    0x4f714          0x1ec         492   
.text.ewf_platform_queu    0x4f900          0x1e4         484   
.text.az_iot_hub_client    0x4fae4          0x1dc         476   
.text._ewf_adapter_quec    0x4fcc0          0x1d6         470   
.text.__aeabi_dadd         0x4fe98          0x1c8         456   
.text.ewf_allocator_mem    0x50060          0x1be         446   
.text.ewf_interface_sto    0x5021e          0x1ba         442   
.text.__secs_to_tm         0x503d8          0x1b8         440   
.text.ewf_adapter_quect    0x50590          0x1ae         430   
.text.ewf_platform_queu    0x5073e          0x1aa         426   
.text._ewf_interface_re    0x508e8          0x1a8         424   
.text.az_json_token_get    0x50a90          0x19a         410   
.rodata                    0x50c2c          0x194         404  Read-only const 
.text.ewf_adapter_quect    0x50dc0          0x192         402   
.text.ewf_adapter_quect    0x50f52          0x190         400   
.text.ewf_adapter_quect    0x510e2          0x18a         394   
.text.__aeabi_dmul_aux     0x5126c          0x186         390   
.text.ewf_adapter_quect    0x513f2          0x184         388   
.text.ewf_adapter_quect    0x51576          0x184         388   
.text.ewf_adapter_quect    0x516fa          0x184         388   
.text.ewf_adapter_quect    0x5187e          0x184         388   
.text.ewf_adapter_quect    0x51a02          0x184         388   
.text.ewf_adapter_quect    0x51b86          0x184         388   
.text.ewf_adapter_quect    0x51d0a          0x184         388   
.text.ewf_adapter_modem    0x51e8e          0x184         388   
.text.ewf_adapter_quect    0x52012          0x182         386   
.text.ewf_adapter_quect    0x52194          0x17e         382   
.text.ewf_adapter_quect    0x52312          0x17e         382   
.text.ewf_interface_get    0x52490          0x17a         378   
.text.ewf_adapter_quect    0x5260a          0x178         376   
.text._az_json_reader_p    0x52782          0x178         376   
.text.ewf_mqtt_receive_    0x528fa          0x174         372   
.text.ewf_interface_rec    0x52a6e          0x174         372   
.text.COMMAND_Handler_s    0x52be2          0x174         372   
.text.malloc               0x52d58          0x174         372   
.text.ewf_adapter_quect    0x52ecc          0x172         370   
.text.ewf_interface_dro    0x5303e          0x16c         364   
.text.az_iot_hub_client    0x531aa          0x16a         362   
.text.az_iot_provisioni    0x53314          0x16a         362   
.text._az_span_builder_    0x5347e          0x164         356   
.text.ewf_adapter_quect    0x535e2          0x160         352   
.text.scanexp              0x53744          0x160         352   
.rodata                    0x538a4          0x15b         347  Read-only const 
.text.__scan_i             0x53a00          0x156         342   
.text.ewf_interface_sen    0x53b58          0x154         340   
.text._ewf_adapter_quec    0x53cac          0x148         328   
.text.az_iot_hub_client    0x53df4          0x148         328   
.text.az_iot_hub_client    0x53f3c          0x148         328   
.text.__strftime_l         0x54084          0x148         328   
.text.ewf_adapter_quect    0x541cc          0x140         320   
.text.ewf_adapter_quect    0x5430c          0x140         320   
.text._az_span_url_enco    0x5444c          0x138         312   
.text.az_iot_hub_client    0x54584          0x138         312   
.text.az_iot_hub_client    0x546bc          0x134         308   
.text._ewf_adapter_quec    0x547f0          0x132         306   
.text._ewf_interface_ma    0x54922          0x130         304   
.text.__fmt_x              0x54a52          0x12c         300   
.text.ewf_adapter_modem    0x54b7e          0x12a         298   
.text.SERCOM2_USART_Wri    0x54ca8          0x128         296   
.text.az_iot_provisioni    0x54dd0          0x11a         282   
.text.ewf_adapter_quect    0x54eea          0x116         278   
.text.COMMAND_Handler_r    0x55000          0x116         278   
.text.ewf_adapter_quect    0x55116          0x112         274   
.text.ewf_interface_urc    0x55228          0x10e         270   
.text.ewf_adapter_quect    0x55336          0x10e         270   
.text.ewf_adapter_quect    0x55444          0x10e         270   
.text.ewf_allocator_mem    0x55552          0x10a         266   
.text.ewf_allocator_mem    0x5565c          0x10a         266   
.text.az_iot_message_pr    0x55766          0x10a         266   
.rodata                    0x55870          0x10a         266  Read-only const 
.text.ewf_adapter_quect    0x5597a          0x106         262   
.text.ewf_adapter_quect    0x55a80          0x106         262   
.text.ewf_adapter_quect    0x55b86          0x102         258   
.text._az_json_writer_a    0x55c88          0x102         258   
.text.azure_iot_send_co    0x55d8a          0x100         256   
.text.ewfl_escape_str_t    0x55e8c           0xfc         252   
.text.ewf_adapter_mqtt_    0x55f88           0xfc         252   
.text.az_span_atoi32       0x56084           0xfc         252   
.text.az_json_writer_ap    0x56180           0xfa         250   
.text.ewf_interface_mic    0x5627a           0xf8         248   
.text.ewf_adapter_quect    0x56372           0xf8         248   
.text.ewf_adapter_quect    0x5646a           0xf8         248   
.text._az_span_builder_    0x56562           0xf6         246   
.text.ewf_adapter_tls_b    0x56658           0xf4         244   
.text.ewf_adapter_tls_b    0x5674c           0xf4         244   
.text.ewf_adapter_mqtt_    0x56840           0xf4         244   
.text.ewf_adapter_mqtt_    0x56934           0xf4         244   
.text.ewf_adapter_mqtt_    0x56a28           0xf4         244   
.text.__year_to_secs       0x56b1c           0xf4         244   
.text.ewf_interface_mic    0x56c10           0xf2         242   
.text.ewf_adapter_start    0x56d02           0xf0         240   
.text._az_json_token_is    0x56df2           0xee         238   
.text.ewf_adapter_mqtt_    0x56ee0           0xec         236   
.text.az_json_writer_ap    0x56fcc           0xec         236   
.text.az_json_writer_ap    0x570b8           0xea         234   
.text.az_iot_provisioni    0x571a2           0xe8         232   
.text.az_iot_provisioni    0x5728a           0xe4         228   
.text.__scan_x             0x5736e           0xe2         226   
.text.ewf_interface_mic    0x57450           0xe0         224   
.text.az_iot_hub_client    0x57530           0xda         218   
.text.build_reboot_comm    0x5760a           0xd0         208   
.text.az_json_writer_sp    0x576da           0xd0         208   
.text._az_json_writer_e    0x577aa           0xd0         208   
.text.az_span_atod         0x5787a           0xd0         208   
.text.button_message_se    0x5794a           0xce         206   
.text.az_iot_hub_client    0x57a18           0xce         206   
.text.free                 0x57ae8           0xcc         204   
.text.do_tzset             0x57bb4           0xc8         200   
.text.properties_get_re    0x57c7c           0xc6         198   
.text.az_iot_hub_client    0x57d42           0xc6         198   
.text._ewf_adapter_quec    0x57e08           0xc4         196   
.rodata                    0x57ecc           0xc0         192  Read-only const 
.text.__aeabi_ddiv         0x57f8c           0xc0         192   
.text.ewf_interface_sen    0x5804c           0xbc         188   
.text.SERCOM2_USART_Ini    0x58108           0xbc         188   
.text.floor                0x581c4           0xbc         188   
.text._az_json_reader_p    0x58280           0xb6         182   
.text.az_span_atou32       0x58336           0xb6         182   
.text._ewf_adapter_quec    0x583ec           0xb4         180   
.text._az_json_writer_e    0x584a0           0xb4         180   
.text.SERCOM2_USART_Rea    0x58554           0xb2         178   
.text._az_json_token_ge    0x58606           0xae         174   
.text.__fmt_d              0x586b4           0xae         174   
.text.az_json_writer_ap    0x58762           0xac         172   
.text.az_json_token_get    0x5880e           0xaa         170   
.text.az_json_token_get    0x588b8           0xaa         170   
.text._ewf_adapter_quec    0x58962           0xa8         168   
.text.az_json_token_get    0x58a0a           0xa8         168   
.text.az_iot_hub_client    0x58ab2           0xa8         168   
.text.__shgetc             0x58b5a           0xa6         166   
.text._az_span_token       0x58c00           0xa4         164   
.text.LED_refresh          0x58ca4           0xa2         162   
.text._az_json_token_co    0x58d46           0xa2         162   
.text.ewf_interface_sen    0x58de8           0xa0         160   
.text.ewf_adapter_quect    0x58e88           0xa0         160   
.text._az_json_reader_p    0x58f28           0xa0         160   
.text.build_command_res    0x58fc8           0x9e         158   
.text.ewf_interface_rel    0x59066           0x9c         156   
.text.ewf_interface_tok    0x59102           0x9c         156   
.text.__pop_int            0x5919e           0x9c         156   
.text.ewf_interface_ini    0x5923a           0x9a         154   
.text.ewf_interface_rec    0x592d4           0x98         152   
.text.__scan_o             0x5936c           0x98         152   
.text.skip_metadata_if_    0x59404           0x96         150   
.text.build_command_err    0x5949a           0x94         148   
.text.az_iot_provisioni    0x5952e           0x94         148   
.text.__pic32c_data_ini    0x595c4           0x94         148   
.text.week_num             0x59658           0x94         148   
.text.ewf_interface_def    0x596ec           0x90         144   
.text.ewf_interface_tok    0x5977c           0x90         144   
.text.ewf_interface_tok    0x5980c           0x90         144   
.text.ewf_interface_tok    0x5989c           0x90         144   
.text.ewf_interface_tok    0x5992c           0x90         144   
.text.az_span_find         0x599bc           0x90         144   
.text.ewf_adapter_quect    0x59a4c           0x8e         142   
.text.ewf_adapter_quect    0x59ada           0x8e         142   
.text._az_json_writer_e    0x59b68           0x8e         142   
.text.__read_int           0x59bf6           0x8e         142   
.text.ewf_adapter_quect    0x59c84           0x8c         140   
.text.ewf_adapter_quect    0x59d10           0x8c         140   
.text.__tm_to_secs         0x59d9c           0x8c         140   
.text.NVIC_Initialize      0x59e28           0x88         136   
.text.modf                 0x59eb0           0x84         132   
.text.__cvt_u              0x59f34           0x84         132   
.text.__nl_langinfo_l      0x59fb8           0x84         132   
.text.__scan_s             0x5a03c           0x84         132   
.text.__write_buffered     0x5a0c0           0x82         130   
.text.az_iot_hub_client    0x5a142           0x7e         126   
.text._az_json_reader_c    0x5a1c0           0x7c         124   
.text.az_iot_provisioni    0x5a23c           0x7c         124   
.text.__stdio_write_buf    0x5a2b8           0x7c         124   
.text.__push_int           0x5a334           0x7c         124   
.text.strlcpy              0x5a3b0           0x78         120   
.text.__pad                0x5a428           0x76         118   
.text.ewf_adapter_quect    0x5a49e           0x72         114   
.text.ewfl_buffer_ends_    0x5a510           0x70         112   
.rodata                    0x5a580           0x70         112  Read-only const 
.text._get_remaining_sp    0x5a5f0           0x6e         110   
.text.__fmt_o              0x5a65e           0x6e         110   
.text.az_span_to_str       0x5a6cc           0x6c         108   
.text.getrule              0x5a738           0x6c         108   
.text._az_json_reader_p    0x5a7a4           0x6a         106   
.text.az_span_i32toa       0x5a80e           0x6a         106   
.text.__pop_ptr            0x5a878           0x68         104   
.text.ewf_platform_queu    0x5a8e0           0x66         102   
.text.ewf_allocator_sto    0x5a946           0x66         102   
.text.ewf_allocator_all    0x5a9ac           0x66         102   
.text.ewf_allocator_rel    0x5aa12           0x66         102   
.text.json_child_token_    0x5aa78           0x66         102   
.text.ADC_Initialize       0x5aade           0x66         102   
.text._az_json_reader_g    0x5ab44           0x64         100   
.text.az_span_copy         0x5aba8           0x62          98   
.text.__stdio_read         0x5ac0a           0x62          98   
.text.az_iot_hub_client    0x5ac6c           0x60          96   
.text.__aeabi_d2f          0x5accc           0x60          96   
.text.strtox               0x5ad2c           0x60          96   
.text.ewfl_buffer_ends_    0x5ad8c           0x5e          94   
.text.getoff               0x5adea           0x5e          94   
.text.__stdio_close_rw     0x5ae48           0x5e          94   
.text.strtox               0x5aea6           0x5e          94   
.text.BUTTON_SW1_check     0x5af04           0x5c          92   
.text._az_finished_cons    0x5af60           0x5c          92   
.text._az_is_appending_    0x5afbc           0x5c          92   
.text._az_log_write        0x5b018           0x5c          92   
.text.__libc_start_init    0x5b074           0x5c          92   
.rodata                    0x5b0d0           0x5c          92  Read-only const 
.text.vsnprintf            0x5b12c           0x5c          92   
.text.ewfl_find_chars_w    0x5b188           0x5a          90   
.text.BUTTON_SW0_check     0x5b1e2           0x5a          90   
.text._az_json_reader_s    0x5b23c           0x58          88   
.text.az_json_reader_in    0x5b294           0x58          88   
.text.az_iot_message_pr    0x5b2ec           0x58          88   
.text.Reset_Handler        0x5b344           0x56          86   
.text.__fmt_u              0x5b39a           0x56          86   
.text._az_json_reader_u    0x5b3f0           0x54          84   
.text.az_span_slice        0x5b444           0x52          82   
.text.ewfl_str_equals_s    0x5b496           0x50          80   
.text.unbin                0x5b4e8           0x50          80   
.text.scalbn               0x5b538           0x50          80   
.text.az_json_token_get    0x5b588           0x4e          78   
.text.append_json_prope    0x5b5d6           0x4c          76   
.text._az_validate_next    0x5b622           0x4c          76   
.text._az_json_reader_p    0x5b66e           0x4c          76   
.rodata._az_json_unesca    0x5b6bc           0x4c          76   
.rodata                    0x5b708           0x4c          76  Read-only const 
.text.EIC_Initialize       0x5b754           0x4c          76   
.text.EIC_OTHER_Interru    0x5b7a0           0x4c          76   
.text.SERCOM3_USART_Ini    0x5b7ec           0x4c          76   
.text.__fmt_s              0x5b838           0x4c          76   
.text.setvbuf              0x5b884           0x4c          76   
.text.getname              0x5b8d0           0x4c          76   
.text.__overflow           0x5b91c           0x4c          76   
.text.__toread             0x5b968           0x4c          76   
.text.__push_float         0x5b9b4           0x4c          76   
.text.SYSTICK_DelayMs      0x5ba00           0x4a          74   
.text.az_json_reader_sk    0x5ba4a           0x48          72   
.text.__aeabi_d2ulz        0x5ba94           0x48          72   
.text                      0x5badc           0x48          72  App's exec code 
.rodata                    0x5bb24           0x45          69  Read-only const 
.text.SYS_Initialize       0x5bb6a           0x44          68   
.text.__aeabi_dcmple       0x5bbb0           0x44          68   
.text.__aeabi_dcmpge       0x5bbf4           0x44          68   
.text                      0x5bc38           0x44          68  App's exec code 
.text.ewfl_unsigned_to_    0x5bc7c           0x42          66   
.text.az_span_copy_u8      0x5bcbe           0x42          66   
.text.SERCOM3_USART_Wri    0x5bd00           0x42          66   
.text                      0x5bd44           0x40          64  App's exec code 
.rodata.__func__.10365     0x5bd84           0x40          64   
.rodata.__func__.10372     0x5bdc4           0x40          64   
.text.append_json_prope    0x5be04           0x40          64   
.text.__aeabi_dcmpgt       0x5be44           0x40          64   
.text.__aeabi_dcmplt       0x5be84           0x40          64   
.text.adjust_size          0x5bec4           0x40          64   
.text.is_leap              0x5bf04           0x40          64   
.text                      0x5bf44           0x40          64  App's exec code 
.text.start_json_object    0x5bf84           0x3e          62   
.text.az_json_writer_in    0x5bfc2           0x3e          62   
.text._az_span_copy_url    0x5c000           0x3e          62   
.text.atoi                 0x5c03e           0x3e          62   
.text.__string_read        0x5c07c           0x3e          62   
.text.ewfl_buffer_equal    0x5c0ba           0x3c          60   
.rodata.__func__.10460     0x5c0f8           0x3c          60   
.rodata.__func__.7843      0x5c134           0x3c          60   
.rodata.__func__.7848      0x5c170           0x3c          60   
.text._az_span_trim_whi    0x5c1ac           0x3c          60   
.rodata                    0x5c1e8           0x3c          60  Read-only const 
.text.bin_index            0x5c224           0x3c          60   
.text.__putc               0x5c260           0x3c          60   
.text.__skipws             0x5c29c           0x3c          60   
.text                      0x5c2d8           0x3c          60  App's exec code 
.text._az_log_should_wr    0x5c314           0x3a          58   
.text.az_span_u32toa       0x5c34e           0x3a          58   
.rodata.__func__.10643     0x5c388           0x38          56   
.rodata.__func__.10725     0x5c3c0           0x38          56   
.rodata.__func__.7853      0x5c3f8           0x38          56   
.text.__fmt_state          0x5c430           0x38          56   
.text.__out                0x5c468           0x38          56   
.rodata                    0x5c4a0           0x38          56  Read-only const 
.rodata.__func__.10320     0x5c4d8           0x34          52   
.rodata.__func__.10407     0x5c50c           0x34          52   
.rodata.__func__.10431     0x5c540           0x34          52   
.rodata.__func__.10486     0x5c574           0x34          52   
.rodata.__func__.10515     0x5c5a8           0x34          52   
.rodata.__func__.10526     0x5c5dc           0x34          52   
.rodata.__func__.10543     0x5c610           0x34          52   
.rodata.__func__.10556     0x5c644           0x34          52   
.rodata.__func__.10584     0x5c678           0x34          52   
.rodata.__func__.8046      0x5c6ac           0x34          52   
.text.EIC_CallbackRegis    0x5c6e0           0x34          52   
.text.__aeabi_d2iz         0x5c714           0x34          52   
.text.__putc_unbuffered    0x5c748           0x34          52   
.text.__gmtime_r           0x5c77c           0x34          52   
.text.__stdio_exit         0x5c7b0           0x34          52   
.text                      0x5c7e4           0x34          52  App's exec code 
.text._sbrk                0x5c818           0x34          52   
.text.ewfl_str_to_unsig    0x5c84c           0x32          50   
.text.mikroe_bg96_power    0x5c87e           0x32          50   
.rodata.__func__.10209     0x5c8b0           0x30          48   
.rodata.__func__.10391     0x5c8e0           0x30          48   
.rodata.__func__.10419     0x5c910           0x30          48   
.rodata.__func__.10439     0x5c940           0x30          48   
.rodata.__func__.7893      0x5c970           0x30          48   
.rodata.__func__.8026      0x5c9a0           0x30          48   
.rodata.__func__.8035      0x5c9d0           0x30          48   
.text._az_iot_u32toa_si    0x5ca00           0x30          48   
.text.__aeabi_dcmpeq       0x5ca30           0x30          48   
.text.__aeabi_d2uiz        0x5ca60           0x30          48   
.text.alloc_rev            0x5ca90           0x30          48   
.text.vsscanf              0x5cac0           0x30          48   
.text.__consumews          0x5caf0           0x30          48   
.rodata                    0x5cb20           0x30          48  Read-only const 
.text.alloc_fwd            0x5cb50           0x2e          46   
.text.__scan_d             0x5cb7e           0x2e          46   
.text.__scan_u             0x5cbac           0x2e          46   
.rodata.__func__.9220      0x5cbdc           0x2c          44   
.rodata.__func__.10152     0x5cc08           0x2c          44   
.rodata.__func__.10169     0x5cc34           0x2c          44   
.rodata.__func__.10175     0x5cc60           0x2c          44   
.rodata.__func__.10200     0x5cc8c           0x2c          44   
.rodata.__func__.10291     0x5ccb8           0x2c          44   
.rodata.__func__.10305     0x5cce4           0x2c          44   
.rodata.__func__.10377     0x5cd10           0x2c          44   
.rodata.__func__.10382     0x5cd3c           0x2c          44   
.rodata.__func__.10469     0x5cd68           0x2c          44   
.rodata.__func__.10480     0x5cd94           0x2c          44   
.rodata.__func__.10760     0x5cdc0           0x2c          44   
.rodata.__func__.7833      0x5cdec           0x2c          44   
.rodata.__func__.8773      0x5ce18           0x2c          44   
.rodata.az_json_reader_    0x5ce44           0x2c          44   
.text._az_json_unescape    0x5ce70           0x2c          44   
.rodata                    0x5ce9c           0x58          88  Read-only const 
.text.strlcat              0x5cef4           0x2c          44   
.text.BUTTON_SW0_callba    0x5cf20           0x2a          42   
.text.BUTTON_SW1_callba    0x5cf4a           0x2a          42   
.text.fwrite               0x5cf74           0x2a          42   
.text.__pop_float          0x5cf9e           0x2a          42   
.text.__towrite_rw         0x5cfc8           0x2a          42   
.text.__clock_gettime      0x5cff2           0x2a          42   
.rodata.__func__.9111      0x5d01c           0x28          40   
.rodata.__func__.9249      0x5d044           0x28          40   
.rodata.__func__.10138     0x5d06c           0x28          40   
.rodata.__func__.10181     0x5d094           0x28          40   
.rodata.__func__.10627     0x5d0bc           0x28          40   
.rodata.__func__.10636     0x5d0e4           0x28          40   
.rodata.__func__.10655     0x5d10c           0x28          40   
.rodata.__func__.10662     0x5d134           0x28          40   
.rodata.__func__.10670     0x5d15c           0x28          40   
.rodata.__func__.10676     0x5d184           0x28          40   
.rodata.__func__.10693     0x5d1ac           0x28          40   
.rodata.__func__.10709     0x5d1d4           0x28          40   
.rodata.__func__.10718     0x5d1fc           0x28          40   
.rodata.__func__.10738     0x5d224           0x28          40   
.rodata.__func__.10748     0x5d24c           0x28          40   
.rodata.__func__.10781     0x5d274           0x28          40   
.rodata.__func__.7863      0x5d29c           0x28          40   
.rodata.__func__.7872      0x5d2c4           0x28          40   
.rodata                    0x5d2ec           0x28          40  Read-only const 
.text.EIC_EXTINT_4_Inte    0x5d314           0x28          40   
.text.fflush               0x5d33c           0x28          40   
.text.puts                 0x5d364           0x28          40   
.text.__readv              0x5d38c           0x28          40   
.text.__shlim              0x5d3b4           0x28          40   
.text.__writev             0x5d3dc           0x28          40   
.text.ewfl_str_starts_w    0x5d404           0x26          38   
.text.trim                 0x5d42a           0x26          38   
.text.memmove              0x5d450           0x26          38   
.text.__uflow              0x5d476           0x26          38   
.rodata.__func__.9238      0x5d49c           0x24          36   
.rodata.__func__.9279      0x5d4c0           0x24          36   
.rodata.__func__.10123     0x5d4e4           0x24          36   
.rodata.__func__.10255     0x5d508           0x24          36   
.rodata.__func__.10618     0x5d52c           0x24          36   
.rodata.__func__.10650     0x5d550           0x24          36   
.rodata.__func__.10684     0x5d574           0x24          36   
.rodata.__func__.10700     0x5d598           0x24          36   
.rodata.__func__.10732     0x5d5bc           0x24          36   
.rodata.__func__.7549      0x5d5e0           0x24          36   
.rodata.__func__.7556      0x5d604           0x24          36   
.rodata.__func__.7778      0x5d628           0x24          36   
.rodata.__func__.7823      0x5d64c           0x24          36   
.rodata.__func__.7887      0x5d670           0x24          36   
.rodata.__func__.8793      0x5d694           0x24          36   
.rodata.__func__.8798      0x5d6b8           0x24          36   
.rodata.__func__.9661      0x5d6dc           0x24          36   
.text.az_span_create       0x5d700           0x24          36   
.text.SERCOM2_USART_Wri    0x5d724           0x24          36   
.text.SERCOM2_USART_Rea    0x5d748           0x24          36   
.text.az_iot_hub_client    0x5d76c           0x22          34   
.text.ADC_Enable           0x5d78e           0x22          34   
.text.fputs                0x5d7b0           0x22          34   
.rodata.__func__.9266      0x5d7d4           0x20          32   
.rodata.__func__.10130     0x5d7f4           0x20          32   
.rodata.__func__.10145     0x5d814           0x20          32   
.rodata.__func__.10767     0x5d834           0x20          32   
.rodata.__func__.10773     0x5d854           0x20          32   
.rodata.__func__.7536      0x5d874           0x20          32   
.rodata.__func__.7791      0x5d894           0x20          32   
.rodata.__func__.7974      0x5d8b4           0x20          32   
.rodata.__func__.8789      0x5d8d4           0x20          32   
.rodata.__func__.8809      0x5d8f4           0x20          32   
.rodata.__func__.9813      0x5d914           0x20          32   
.text._get_remaining_js    0x5d934           0x20          32   
.text.az_iot_hub_client    0x5d954           0x20          32   
.text.libc_exit_fini       0x5d974           0x20          32   
.text.printf               0x5d994           0x20          32   
.text.getint               0x5d9b4           0x1e          30   
.rodata.__func__.9261      0x5d9d4           0x1c          28   
.text.ewfl_str_length      0x5d9f0           0x1c          28   
.rodata.ewf_adapter_que    0x5da0c           0x1c          28   
.rodata.__func__.7439      0x5da28           0x1c          28   
.rodata.__func__.7450      0x5da44           0x1c          28   
.rodata.__func__.7461      0x5da60           0x1c          28   
.rodata.__func__.7902      0x5da7c           0x1c          28   
.rodata.__func__.7912      0x5da98           0x1c          28   
.rodata.__func__.7937      0x5dab4           0x1c          28   
.rodata.__func__.7943      0x5dad0           0x1c          28   
.rodata.__func__.7960      0x5daec           0x1c          28   
.rodata.__func__.7967      0x5db08           0x1c          28   
.rodata.__func__.8759      0x5db24           0x1c          28   
.rodata.__func__.8763      0x5db40           0x1c          28   
.text.write                0x5db5c           0x1c          28   
.text.__aeabi_i2d          0x5db78           0x1c          28   
.text.__aeabi_ui2d         0x5db94           0x1c          28   
.text.isxdigit             0x5dbb0           0x1c          28   
.text.lock_bin             0x5dbcc           0x1c          28   
.rodata                    0x5dbe8           0x1c          28  Read-only const 
.text.memcmp               0x5dc04           0x1c          28   
.text.__syscall_ret        0x5dc20           0x1c          28   
.text.__month_to_secs      0x5dc3c           0x1c          28   
.text.end_json_object      0x5dc58           0x1a          26   
.text.SYSTICK_TimerInit    0x5dc72           0x1a          26   
.rodata.__func__.9186      0x5dc8c           0x18          24   
.rodata.__func__.7505      0x5dca4           0x18          24   
.rodata.__func__.7510      0x5dcbc           0x18          24   
.rodata.__func__.7813      0x5dcd4           0x18          24   
.rodata.__func__.5367      0x5dcec           0x18          24   
.rodata.__func__.5378      0x5dd04           0x18          24   
.text.az_iot_hub_client    0x5dd1c           0x18          24   
.text.BSP_Initialize       0x5dd34           0x18          24   
.text.SERCOM2_USART_Rea    0x5dd4c           0x18          24   
.rodata                    0x5dd64           0x18          24  Read-only const 
.text.vfscanf              0x5dd7c           0x18          24   
.text.__towrite            0x5dd94           0x18          24   
.text.vfprintf             0x5ddac           0x18          24   
.text                      0x5ddc4           0x30          48  App's exec code 
.text.SERCOM2_USART_Wri    0x5ddf4           0x16          22   
.text.SYSTICK_TimerStar    0x5de0a           0x16          22   
.text.exit                 0x5de20           0x16          22   
.text.__expand_heap        0x5de36           0x16          22   
.text.sscanf               0x5de4c           0x16          22   
.text.strnlen              0x5de62           0x16          22   
.text.snprintf             0x5de78           0x16          22   
.text.memchr               0x5de8e           0x16          22   
.text.fprintf              0x5dea4           0x16          22   
.rodata.__func__.9272      0x5debc           0x14          20   
.rodata.iso_spec_time_f    0x5ded0           0x14          20   
.rodata.__func__.7500      0x5dee4           0x14          20   
.rodata.__func__.7749      0x5def8           0x14          20   
.rodata.__func__.7757      0x5df0c           0x14          20   
.rodata.__func__.7762      0x5df20           0x14          20   
.rodata.__func__.7769      0x5df34           0x14          20   
.rodata.__func__.8706      0x5df48           0x14          20   
.text.az_span_slice_to_    0x5df5c           0x14          20   
.text.az_iot_hub_client    0x5df70           0x14          20   
.text.az_iot_hub_client    0x5df84           0x14          20   
.text.__aeabi_dsub         0x5df98           0x14          20   
.text.__init_stdout        0x5dfac           0x14          20   
.text.strftime             0x5dfc0           0x14          20   
.text.time                 0x5dfd4           0x14          20   
.text.strtoull             0x5dfe8           0x14          20   
.text.strtoll              0x5dffc           0x14          20   
.text                      0x5e010           0x14          20  App's exec code 
.text.ewfl_str_n_cpy       0x5e024           0x12          18   
.text.SERCOM2_USART_Err    0x5e036           0x12          18   
.text.setbuf               0x5e048           0x12          18   
.text.memcpy               0x5e05a           0x12          18   
.text.strtoul              0x5e06c           0x12          18   
.text.stpcpy               0x5e07e           0x12          18   
.text.__fclose             0x5e090           0x12          18   
.text.__fwrite             0x5e0a2           0x12          18   
.text.LED_init             0x5e0b4           0x10          16   
.text.EIC_InterruptEnab    0x5e0c4           0x10          16   
.text.SERCOM2_USART_Tra    0x5e0d4           0x10          16   
.rodata                    0x5e0e4           0x10          16  Read-only const 
.text.memset               0x5e0f4           0x10          16   
.text.localtime            0x5e104           0x10          16   
.text.__init_stdio         0x5e114           0x10          16   
.rodata                    0x5e124           0x10          16  Read-only const 
.text.fma                  0x5e134           0x10          16   
.text.copysignl            0x5e144           0x10          16   
.text.ewf_interface_mic    0x5e154            0xe          14   
.text.ADC_ConversionRes    0x5e162            0xe          14   
.text.div                  0x5e170            0xe          14   
.text.strlen               0x5e17e            0xe          14   
.text.tolower              0x5e18c            0xe          14   
.text.toupper              0x5e19a            0xe          14   
.text.az_json_writer_ap    0x5e1a8            0xc          12   
.text.az_json_writer_ap    0x5e1b4            0xc          12   
.text.az_precondition_f    0x5e1c0            0xc          12   
.text.strcpy               0x5e1cc            0xc          12   
.text.__tm_to_tzname       0x5e1d8            0xc          12   
.rodata                    0x5e1e4            0xc          12  Read-only const 
.text.ewf_platform_slee    0x5e1f0            0xa          10   
.text.__fwrite_min         0x5e1fa            0xa          10   
.text.strtold              0x5e204            0xa          10   
.rodata.command_avg_tem    0x5e210            0x8           8   
.rodata.command_empty_r    0x5e218            0x8           8   
.rodata.command_end_tim    0x5e220            0x8           8   
.rodata.command_max_tem    0x5e228            0x8           8   
.rodata.command_min_tem    0x5e230            0x8           8   
.rodata.command_start_t    0x5e238            0x8           8   
.rodata.custom_registra    0x5e240            0x8           8   
.rodata.model_id           0x5e248            0x8           8   
.rodata.property_desire    0x5e250            0x8           8   
.rodata.property_disabl    0x5e258            0x8           8   
.rodata.property_led0_n    0x5e260            0x8           8   
.rodata.property_led1_n    0x5e268            0x8           8   
.rodata.property_report    0x5e270            0x8           8   
.rodata.property_succes    0x5e278            0x8           8   
.rodata.property_teleme    0x5e280            0x8           8   
.rodata.telemetry_poten    0x5e288            0x8           8   
.text.ewf_interface_pol    0x5e290            0x8           8   
.rodata.__func__.10804     0x5e298            0x8           8   
.rodata.command_reboot_    0x5e2a0            0x8           8   
.rodata.command_resp_al    0x5e2a8            0x8           8   
.rodata.command_resp_ba    0x5e2b0            0x8           8   
.rodata.command_resp_em    0x5e2b8            0x8           8   
.rodata.command_resp_em    0x5e2c0            0x8           8   
.rodata.command_sendMsg    0x5e2c8            0x8           8   
.rodata.command_status_    0x5e2d0            0x8           8   
.rodata.resp_success_sp    0x5e2d8            0x8           8   
.rodata.json_delimiters    0x5e2e0            0x8           8   
.rodata                    0x5e2e8           0x10          16  Read-only const 
.rodata.hub_client_para    0x5e2f8            0x8           8   
.rodata.hub_client_para    0x5e300            0x8           8   
.rodata.client_sdk_devi    0x5e308            0x8           8   
.rodata.client_sdk_vers    0x5e310            0x8           8   
.rodata.hub_digital_twi    0x5e318            0x8           8   
.rodata.hub_service_api    0x5e320            0x8           8   
.rodata.command_separat    0x5e328            0x8           8   
.rodata.methods_respons    0x5e330            0x8           8   
.rodata.methods_respons    0x5e338            0x8           8   
.rodata.methods_topic_f    0x5e340            0x8           8   
.rodata.methods_topic_p    0x5e348            0x8           8   
.rodata.component_prope    0x5e350            0x8           8   
.rodata.iot_hub_propert    0x5e358            0x8           8   
.rodata.iot_hub_propert    0x5e360            0x8           8   
.rodata.iot_hub_propert    0x5e368            0x8           8   
.rodata.properties_ack_    0x5e370            0x8           8   
.rodata.properties_ack_    0x5e378            0x8           8   
.rodata.properties_ack_    0x5e380            0x8           8   
.rodata.properties_resp    0x5e388            0x8           8   
.rodata.telemetry_topic    0x5e390            0x8           8   
.rodata.telemetry_topic    0x5e398            0x8           8   
.rodata.telemetry_topic    0x5e3a0            0x8           8   
.rodata.az_iot_hub_clie    0x5e3a8            0x8           8   
.rodata.az_iot_hub_twin    0x5e3b0            0x8           8   
.rodata.az_iot_hub_twin    0x5e3b8            0x8           8   
.rodata.az_iot_hub_twin    0x5e3c0            0x8           8   
.rodata.az_iot_hub_twin    0x5e3c8            0x8           8   
.rodata.az_iot_hub_twin    0x5e3d0            0x8           8   
.rodata.az_iot_hub_twin    0x5e3d8            0x8           8   
.rodata.prov_payload_la    0x5e3e0            0x8           8   
.rodata.prov_registrati    0x5e3e8            0x8           8   
.rodata.str_get_iotdps_    0x5e3f0            0x8           8   
.rodata.str_put_iotdps_    0x5e3f8            0x8           8   
.text.putc                 0x5e400            0x8           8   
.text.do_read              0x5e408            0x8           8   
.text.abs                  0x5e410            0x8           8   
.rodata                    0x5e418            0x8           8  Read-only const 
.text.__get_stdout         0x5e420            0x8           8   
.text.scalbnl              0x5e428            0x8           8   
.text.fmodl                0x5e430            0x8           8   
.text.fabsl                0x5e438            0x8           8   
.text.close                0x5e440            0x8           8   
.rodata                    0x5e448            0x7           7  Read-only const 
.text.read                 0x5e450            0x6           6   
.text.__dummy              0x5e456            0x6           6   
.text._Exit                0x5e45c            0x6           6   
.text.__gettimeofday       0x5e462            0x6           6   
.text.ewf_allocator_mem    0x5e468            0x4           4   
.text.ewf_adapter_quect    0x5e46c            0x4           4   
.rodata                    0x5e470            0x4           4  Read-only const 
.text.Dummy_Handler        0x5e474            0x4           4   
.text.NonMaskableInt_Ha    0x5e478            0x4           4   
.text.HardFault_Handler    0x5e47c            0x4           4   
.text._exit                0x5e480            0x4           4   
.text.__dummy1             0x5e484            0x4           4   
.rodata                    0x5e488            0x8           8  Read-only const 
.text                      0x5e490            0x4           4  App's exec code 
.text.lseek                0x5e494            0x4           4   
      Total ROM used  :     0x1e46f      124015  47.3% of 0x40000
        --------------------------------------------------------------------------
         Total Program Memory used  :     0x1e46f      124015  47.3% of 0x40000
        --------------------------------------------------------------------------


RAM Data-Memory Usage
section                    address  length [bytes]      (dec)  Description
-------                 ----------  -------------------------  -----------
.bss.ewf_allocator_memo 0x20008000         0x4000       16384   
.bss.buffer_ptr.7241    0x2000c000          0x800        2048   
.bss.SERCOM2_USART_Read 0x2000c800          0x800        2048   
.bss.SERCOM2_USART_Writ 0x2000d000          0x800        2048   
.bss.ewf_mqtt_recv_mess 0x2000d800          0x508        1288   
.bss                    0x2000dd08          0x618        1560  Uninitialized data 
.bss.command_response_p 0x2000e320          0x100         256   
.bss.mqtt_client_userna 0x2000e420          0x100         256   
.bss.telemetry_topic_bu 0x2000e520          0x100         256   
.bss.BUTTON_eventBuffer 0x2000e620          0x100         256   
.bss.eicCallbackObject  0x2000e720           0xc0         192   
.bss.ewf_adapter_quecte 0x2000e7e0           0x9c         156   
.bss.azure_iot_hub_devi 0x2000e87c           0x80         128   
.bss.azure_iot_hub_endp 0x2000e8fc           0x80         128   
.bss.mqtt_client_id_buf 0x2000e97c           0x80         128   
.bss.register_topic_buf 0x2000e9fc           0x80         128   
.data.device_temperatur 0x2000ea7c            0x4           4   
.data                   0x2000ea80           0x78         120  Initialized data 
.bss.ewf_interface_micr 0x2000eaf8           0x68         104   
.data                   0x2000eb60           0x68         104  Initialized data 
.bss                    0x2000ebc8           0xa0         160  Uninitialized data 
.bss.ewf_platform_queue 0x2000ec68           0x40          64   
.bss.ewf_platform_queue 0x2000eca8           0x40          64   
.bss.sercom2USARTObj    0x2000ece8           0x40          64   
.bss.ewf_adapter_quecte 0x2000ed28           0x38          56   
.bss.hub_client         0x2000ed60           0x30          48   
.bss.ewf_allocator__mes 0x2000ed90           0x2c          44   
.data.ewf_adapter_quect 0x2000edbc           0x2c          44   
.bss                    0x2000ede8           0x2c          44  Uninitialized data 
.data.ewf_adapter_quect 0x2000ee14           0x24          36   
.bss.command_end_time_v 0x2000ee38           0x20          32   
.bss.command_start_time 0x2000ee58           0x20          32   
.bss.provisioning_clien 0x2000ee78           0x20          32   
.data.ewf_adapter_quect 0x2000ee98           0x20          32   
.data.ewf_adapter_quect 0x2000eeb8           0x20          32   
.data                   0x2000eed8           0x20          32  Initialized data 
.bss                    0x2000eef8           0x1c          28  Uninitialized data 
.data.ewf_adapter_quect 0x2000ef14           0x18          24   
.data.ewf_adapter_quect 0x2000ef2c           0x18          24   
.data.ewf_adapter_quect 0x2000ef44           0x18          24   
.data.ewf_adapter_quect 0x2000ef5c           0x18          24   
.data.ewf_adapter_quect 0x2000ef74           0x18          24   
.data.ewf_adapter_quect 0x2000ef8c           0x18          24   
.data.ewf_adapter_quect 0x2000efa4           0x18          24   
.data.ewf_adapter_quect 0x2000efbc           0x18          24   
.data.ewf_adapter_quect 0x2000efd4           0x18          24   
.bss.ewf_platform_queue 0x2000efec           0x14          20   
.bss.ewf_platform_queue 0x2000f000           0x14          20   
.data.ewf_adapter_quect 0x2000f014           0x14          20   
.data.ewf_adapter_quect 0x2000f028           0x13          19   
.bss.ewf_mqtt_rx_flag   0x2000f03b            0x1           1   
.data.ewf_adapter_quect 0x2000f03c           0x12          18   
.bss.connection_request 0x2000f04e            0x2           2   
.bss.connection_request 0x2000f050           0x10          16   
.bss.ewf_allocator_memo 0x2000f060           0x10          16   
.bss.BUTTON_pressData   0x2000f070            0xc          12   
.data.ewf_adapter_quect 0x2000f07c            0xa          10   
.bss.device_azure_iot_h 0x2000f088            0x8           8   
.bss.device_id          0x2000f090            0x8           8   
.data.device_average_te 0x2000f098            0x8           8   
.data.device_current_te 0x2000f0a0            0x8           8   
.data.device_maximum_te 0x2000f0a8            0x8           8   
.data.device_minimum_te 0x2000f0b0            0x8           8   
.data.device_temperatur 0x2000f0b8            0x8           8   
.bss.ewf_adapter_quecte 0x2000f0c0            0x8           8   
.bss.ewf_adapter_quecte 0x2000f0c8            0x8           8   
.bss.ewf_adapter_quecte 0x2000f0d0            0x8           8   
.data.ewf_adapter_quect 0x2000f0d8            0x8           8   
.data.ewf_adapter_quect 0x2000f0e0            0x8           8   
.bss                    0x2000f0e8            0x8           8  Uninitialized data 
.data                   0x2000f0f0            0x8           8  Initialized data 
.data.ewf_adapter_quect 0x2000f0f8            0x7           7   
.data.telemetryInterval 0x2000f100            0x4           4   
.bss.SYS_rebootTimer    0x2000f104            0x4           4   
.bss._az_log_message_ca 0x2000f108            0x4           4   
.bss._az_message_filter 0x2000f10c            0x4           4   
.data._az_precondition_ 0x2000f110            0x4           4   
.bss                    0x2000f114            0xc          12  Uninitialized data 
.data                   0x2000f120            0x4           4  Initialized data 
.bss                    0x2000f124            0x8           8  Uninitialized data 
.bss.LED_controller     0x2000f12c            0x2           2   
.data.ewf_adapter_quect 0x2000f130            0x3           3   
.bss.ewf_interface_micr 0x2000f134            0x1           1   
         Total RAM used  :      0x712f       28975  88.4% of 0x8000
        --------------------------------------------------------------------------
            Total Data Memory used  :      0x712f       28975  88.4% of 0x8000
        --------------------------------------------------------------------------


Dynamic Data-Memory Reservation
section                    address  length [bytes]      (dec)  Description
-------                 ----------  -------------------------  -----------
heap                    0x2000f138          0x200         512  Reserved for heap 
stack                   0x2000f350          0xca0        3232  Reserved for stack 

        --------------------------------------------------------------------------

Discarded input sections

 .text          0x00000000        0x0 /Applications/microchip/xc32/v4.10/bin/bin/../../lib/gcc/pic32c/8.3.1/thumb/v8-m.base/nofp/crti.o
 .data          0x00000000        0x0 /Applications/microchip/xc32/v4.10/bin/bin/../../lib/gcc/pic32c/8.3.1/thumb/v8-m.base/nofp/crti.o
 .bss           0x00000000        0x0 /Applications/microchip/xc32/v4.10/bin/bin/../../lib/gcc/pic32c/8.3.1/thumb/v8-m.base/nofp/crti.o
 .xc_stack_usage.hdr
                0x00000000        0xe /Applications/microchip/xc32/v4.10/bin/bin/../../lib/gcc/pic32c/8.3.1/thumb/v8-m.base/nofp/crti.o
 .xc_stack_usage
                0x00000000       0x26 /Applications/microchip/xc32/v4.10/bin/bin/../../lib/gcc/pic32c/8.3.1/thumb/v8-m.base/nofp/crti.o
 .data          0x00000000        0x4 /Applications/microchip/xc32/v4.10/bin/bin/../../lib/gcc/pic32c/8.3.1/thumb/v8-m.base/nofp/crtbegin.o
 .xc_stack_usage
                0x00000000       0x3c /Applications/microchip/xc32/v4.10/bin/bin/../../lib/gcc/pic32c/8.3.1/thumb/v8-m.base/nofp/crtbegin.o
 .xc_stack_usage.hdr
                0x00000000        0xe /Applications/microchip/xc32/v4.10/bin/bin/../../lib/gcc/pic32c/8.3.1/thumb/v8-m.base/nofp/crtbegin.o
 .text          0x00000000        0x0 build/default/debug/_ext/1360937237/azure_iot_pnp_pic32cmls60-curiosity.o
 .data          0x00000000        0x0 build/default/debug/_ext/1360937237/azure_iot_pnp_pic32cmls60-curiosity.o
 .bss           0x00000000        0x0 build/default/debug/_ext/1360937237/azure_iot_pnp_pic32cmls60-curiosity.o
 .text          0x00000000        0x0 build/default/debug/_ext/1360937237/main.o
 .data          0x00000000        0x0 build/default/debug/_ext/1360937237/main.o
 .bss           0x00000000        0x0 build/default/debug/_ext/1360937237/main.o
 .text.ewfl_str_ends_with
                0x00000000       0x66 build/default/debug/_ext/1360937237/main.o
 .text.ewfl_buffer_starts_with
                0x00000000       0x62 build/default/debug/_ext/1360937237/main.o
 .text.ewfl_str_contains_str
                0x00000000       0x48 build/default/debug/_ext/1360937237/main.o
 .text.ewfl_str_remove_white_spaces
                0x00000000       0x3c build/default/debug/_ext/1360937237/main.o
 .text.ewfl_str_remove_suffix_str
                0x00000000       0x30 build/default/debug/_ext/1360937237/main.o
 .text.ewfl_adapter_response_str_extract
                0x00000000       0x16 build/default/debug/_ext/1360937237/main.o
 .text.ewf_platform_queue_destroy
                0x00000000       0x66 build/default/debug/_ext/1360937237/main.o
 .text.ewf_allocator_start
                0x00000000       0x66 build/default/debug/_ext/1360937237/main.o
 .text.ewf_interface_clean
                0x00000000       0x8c build/default/debug/_ext/1360937237/main.o
 .text.ewf_interface_message_allocator_set
                0x00000000       0x90 build/default/debug/_ext/1360937237/main.o
 .text.ewf_interface_data_allocator_set
                0x00000000       0x90 build/default/debug/_ext/1360937237/main.o
 .text.ewf_interface_release_data
                0x00000000       0x9c build/default/debug/_ext/1360937237/main.o
 .text.ewf_interface_default_timeout_get
                0x00000000       0x9c build/default/debug/_ext/1360937237/main.o
 .text.ewf_interface_tokenizer_message_pattern_get
                0x00000000       0x9c build/default/debug/_ext/1360937237/main.o
 .text.ewf_interface_tokenizer_command_response_pattern_get
                0x00000000       0x9c build/default/debug/_ext/1360937237/main.o
 .text.ewf_interface_tokenizer_urc_pattern_get
                0x00000000       0x9c build/default/debug/_ext/1360937237/main.o
 .text.ewf_interface_receive_urc
                0x00000000       0x98 build/default/debug/_ext/1360937237/main.o
 .text.ewf_interface_urc_processing
                0x00000000      0x148 build/default/debug/_ext/1360937237/main.o
 .text.ewf_interface_set_response_callback
                0x00000000       0x90 build/default/debug/_ext/1360937237/main.o
 .text.ewf_interface_set_urc_callback
                0x00000000       0x90 build/default/debug/_ext/1360937237/main.o
 .text.ewf_interface_set_user_urc_callback
                0x00000000       0x90 build/default/debug/_ext/1360937237/main.o
 .text.ewf_adapter_modem_network_registration_read
                0x00000000      0x144 build/default/debug/_ext/1360937237/main.o
 .text.ewf_interface_drop_all_responses
                0x00000000       0xb2 build/default/debug/_ext/1360937237/main.o
 .text.ewf_adapter_modem_network_registration_urc_set
                0x00000000       0xd6 build/default/debug/_ext/1360937237/main.o
 .text.ewf_adapter_modem_eps_network_registration_urc_set
                0x00000000       0xd8 build/default/debug/_ext/1360937237/main.o
 .text.ewf_adapter_modem_gprs_network_registration_urc_set
                0x00000000       0xd8 build/default/debug/_ext/1360937237/main.o
 .text.ewf_interface_verify_responses
                0x00000000      0x200 build/default/debug/_ext/1360937237/main.o
 .text.ewf_interface_verify_response_starts_with
                0x00000000      0x1e6 build/default/debug/_ext/1360937237/main.o
 .text.ewf_interface_verify_response_ends_with
                0x00000000      0x1e6 build/default/debug/_ext/1360937237/main.o
 .text.ewf_adapter_stop
                0x00000000       0xf0 build/default/debug/_ext/1360937237/main.o
 .text.ewf_adapter_info
                0x00000000       0xf0 build/default/debug/_ext/1360937237/main.o
 .text.ewf_adapter_get_ipv4_address
                0x00000000       0xf0 build/default/debug/_ext/1360937237/main.o
 .text.ewf_adapter_get_ipv4_netmask
                0x00000000       0xf0 build/default/debug/_ext/1360937237/main.o
 .text.ewf_adapter_get_ipv4_gateway
                0x00000000       0xf0 build/default/debug/_ext/1360937237/main.o
 .text.ewf_adapter_get_ipv4_dns
                0x00000000       0xf0 build/default/debug/_ext/1360937237/main.o
 .text.ewf_adapter_get_ipv6_address
                0x00000000       0xf0 build/default/debug/_ext/1360937237/main.o
 .text.ewf_adapter_get_ipv6_next_hop
                0x00000000       0xf0 build/default/debug/_ext/1360937237/main.o
 .text.ewf_adapter_get_ipv6_dns
                0x00000000       0xf0 build/default/debug/_ext/1360937237/main.o
 .text.ewf_adapter_mqtt_basic_state_callback_set
                0x00000000       0xec build/default/debug/_ext/1360937237/main.o
 .text.ewf_adapter_mqtt_basic_control
                0x00000000       0xf4 build/default/debug/_ext/1360937237/main.o
 .text.ewf_adapter_mqtt_basic_unsubscribe
                0x00000000       0xf4 build/default/debug/_ext/1360937237/main.o
 .text.ewf_adapter_tcp_open
                0x00000000       0xf0 build/default/debug/_ext/1360937237/main.o
 .text.ewf_adapter_tcp_close
                0x00000000      0x152 build/default/debug/_ext/1360937237/main.o
 .text.ewf_adapter_tcp_control
                0x00000000      0x152 build/default/debug/_ext/1360937237/main.o
 .text.ewf_adapter_tcp_set_tls_configuration
                0x00000000      0x152 build/default/debug/_ext/1360937237/main.o
 .text.ewf_adapter_tcp_bind
                0x00000000      0x152 build/default/debug/_ext/1360937237/main.o
 .text.ewf_adapter_tcp_listen
                0x00000000      0x152 build/default/debug/_ext/1360937237/main.o
 .text.ewf_adapter_tcp_accept
                0x00000000      0x152 build/default/debug/_ext/1360937237/main.o
 .text.ewf_adapter_tcp_connect
                0x00000000      0x152 build/default/debug/_ext/1360937237/main.o
 .text.ewf_adapter_tcp_shutdown
                0x00000000      0x152 build/default/debug/_ext/1360937237/main.o
 .text.ewf_adapter_tcp_send
                0x00000000      0x152 build/default/debug/_ext/1360937237/main.o
 .text.ewf_adapter_tcp_receive
                0x00000000      0x152 build/default/debug/_ext/1360937237/main.o
 .text.ewf_adapter_tcp_receive_callback_set
                0x00000000       0x6e build/default/debug/_ext/1360937237/main.o
 .text.ewf_adapter_tcp_disconnect_callback_set
                0x00000000       0x6e build/default/debug/_ext/1360937237/main.o
 .text.ewf_adapter_udp_open
                0x00000000       0xf4 build/default/debug/_ext/1360937237/main.o
 .text.ewf_adapter_udp_close
                0x00000000      0x156 build/default/debug/_ext/1360937237/main.o
 .text.ewf_adapter_udp_control
                0x00000000      0x156 build/default/debug/_ext/1360937237/main.o
 .text.ewf_adapter_udp_set_dtls_configuration
                0x00000000      0x158 build/default/debug/_ext/1360937237/main.o
 .text.ewf_adapter_udp_bind
                0x00000000      0x158 build/default/debug/_ext/1360937237/main.o
 .text.ewf_adapter_udp_send_to
                0x00000000      0x15c build/default/debug/_ext/1360937237/main.o
 .text.ewf_adapter_udp_receive_from
                0x00000000      0x166 build/default/debug/_ext/1360937237/main.o
 .text.ewf_adapter_udp_receive_callback_set
                0x00000000       0x6e build/default/debug/_ext/1360937237/main.o
 .text.ewf_adapter_modem_network_registration_check
                0x00000000      0x138 build/default/debug/_ext/1360937237/main.o
 .text.ewf_adapter_modem_manufacturer_read
                0x00000000       0xfe build/default/debug/_ext/1360937237/main.o
 .text.ewf_adapter_modem_model_read
                0x00000000       0xfe build/default/debug/_ext/1360937237/main.o
 .text.ewf_adapter_modem_revision_read
                0x00000000       0xfe build/default/debug/_ext/1360937237/main.o
 .text.ewf_adapter_modem_serial_number_read
                0x00000000      0x12e build/default/debug/_ext/1360937237/main.o
 .text.ewf_adapter_modem_imsi_read
                0x00000000      0x104 build/default/debug/_ext/1360937237/main.o
 .text.ewf_adapter_modem_pdp_apn_set
                0x00000000      0x226 build/default/debug/_ext/1360937237/main.o
 .text.ewf_adapter_modem_packet_service_activate
                0x00000000      0x102 build/default/debug/_ext/1360937237/main.o
 .text.ewf_adapter_modem_packet_service_deactivate
                0x00000000      0x100 build/default/debug/_ext/1360937237/main.o
 .text.ewf_adapter_modem_packet_service_attach
                0x00000000       0xc6 build/default/debug/_ext/1360937237/main.o
 .text.ewf_adapter_modem_packet_service_detach
                0x00000000       0xc6 build/default/debug/_ext/1360937237/main.o
 .text.ewf_adapter_quectel_common_context_configure
                0x00000000      0x38c build/default/debug/_ext/1360937237/main.o
 .text.ewf_adapter_quectel_common_context_configure_dns
                0x00000000      0x26c build/default/debug/_ext/1360937237/main.o
 .text.ewf_adapter_quectel_common_ufs_urc_callback
                0x00000000        0x4 build/default/debug/_ext/1360937237/main.o
 .text.ewf_adapter_quectel_common_ufs_start
                0x00000000       0x8c build/default/debug/_ext/1360937237/main.o
 .text.ewf_adapter_quectel_common_ufs_list
                0x00000000      0x168 build/default/debug/_ext/1360937237/main.o
 .text.ewf_adapter_quectel_common_ufs_delete
                0x00000000      0x154 build/default/debug/_ext/1360937237/main.o
 .text.ewf_adapter_quectel_common_ufs_upload
                0x00000000      0x1f2 build/default/debug/_ext/1360937237/main.o
 .text.ewf_adapter_quectel_common_tls_basic_stop
                0x00000000        0x4 build/default/debug/_ext/1360937237/main.o
 .text.ewf_adapter_quectel_common_tls_basic_urc_callback
                0x00000000        0x4 build/default/debug/_ext/1360937237/main.o
 .data.ewf_adapter_modem_api_network_service_command_implementation
                0x00000000       0x4c build/default/debug/_ext/1360937237/main.o
 .data.ewf_adapter_modem_api_packet_domain_implementation
                0x00000000       0x3c build/default/debug/_ext/1360937237/main.o
 .data.ewf_adapter_modem_api_sim_utility_implementation
                0x00000000       0x24 build/default/debug/_ext/1360937237/main.o
 .data.ewf_adapter_quectel_common_api_control
                0x00000000        0x8 build/default/debug/_ext/1360937237/main.o
 .rodata.__func__.10223
                0x00000000       0x30 build/default/debug/_ext/1360937237/main.o
 .rodata.__func__.10238
                0x00000000       0x34 build/default/debug/_ext/1360937237/main.o
 .rodata.__func__.10251
                0x00000000       0x28 build/default/debug/_ext/1360937237/main.o
 .rodata.__func__.10259
                0x00000000       0x24 build/default/debug/_ext/1360937237/main.o
 .rodata.__func__.10271
                0x00000000       0x28 build/default/debug/_ext/1360937237/main.o
 .rodata.__func__.10280
                0x00000000       0x28 build/default/debug/_ext/1360937237/main.o
 .rodata.__func__.7443
                0x00000000       0x1c build/default/debug/_ext/1360937237/main.o
 .rodata.__func__.7496
                0x00000000       0x14 build/default/debug/_ext/1360937237/main.o
 .rodata.__func__.7753
                0x00000000       0x14 build/default/debug/_ext/1360937237/main.o
 .rodata.__func__.7798
                0x00000000       0x1c build/default/debug/_ext/1360937237/main.o
 .rodata.__func__.7803
                0x00000000       0x24 build/default/debug/_ext/1360937237/main.o
 .rodata.__func__.7808
                0x00000000       0x24 build/default/debug/_ext/1360937237/main.o
 .rodata.__func__.7818
                0x00000000       0x1c build/default/debug/_ext/1360937237/main.o
 .rodata.__func__.7828
                0x00000000       0x24 build/default/debug/_ext/1360937237/main.o
 .rodata.__func__.7838
                0x00000000       0x2c build/default/debug/_ext/1360937237/main.o
 .rodata.__func__.7858
                0x00000000       0x38 build/default/debug/_ext/1360937237/main.o
 .rodata.__func__.7868
                0x00000000       0x28 build/default/debug/_ext/1360937237/main.o
 .rodata.__func__.7880
                0x00000000       0x20 build/default/debug/_ext/1360937237/main.o
 .rodata.__func__.7922
                0x00000000       0x24 build/default/debug/_ext/1360937237/main.o
 .rodata.__func__.7927
                0x00000000       0x20 build/default/debug/_ext/1360937237/main.o
 .rodata.__func__.7932
                0x00000000       0x24 build/default/debug/_ext/1360937237/main.o
 .rodata.__func__.7952
                0x00000000       0x24 build/default/debug/_ext/1360937237/main.o
 .rodata.__func__.7983
                0x00000000       0x20 build/default/debug/_ext/1360937237/main.o
 .rodata.__func__.7995
                0x00000000       0x2c build/default/debug/_ext/1360937237/main.o
 .rodata.__func__.8003
                0x00000000       0x28 build/default/debug/_ext/1360937237/main.o
 .rodata.__func__.8710
                0x00000000       0x14 build/default/debug/_ext/1360937237/main.o
 .rodata.__func__.8714
                0x00000000       0x14 build/default/debug/_ext/1360937237/main.o
 .rodata.__func__.8719
                0x00000000       0x20 build/default/debug/_ext/1360937237/main.o
 .rodata.__func__.8724
                0x00000000       0x20 build/default/debug/_ext/1360937237/main.o
 .rodata.__func__.8729
                0x00000000       0x20 build/default/debug/_ext/1360937237/main.o
 .rodata.__func__.8734
                0x00000000       0x1c build/default/debug/_ext/1360937237/main.o
 .rodata.__func__.8741
                0x00000000       0x20 build/default/debug/_ext/1360937237/main.o
 .rodata.__func__.8748
                0x00000000       0x20 build/default/debug/_ext/1360937237/main.o
 .rodata.__func__.8755
                0x00000000       0x1c build/default/debug/_ext/1360937237/main.o
 .rodata.__func__.8768
                0x00000000       0x2c build/default/debug/_ext/1360937237/main.o
 .rodata.__func__.8780
                0x00000000       0x20 build/default/debug/_ext/1360937237/main.o
 .rodata.__func__.8803
                0x00000000       0x24 build/default/debug/_ext/1360937237/main.o
 .rodata.__func__.8814
                0x00000000       0x18 build/default/debug/_ext/1360937237/main.o
 .rodata.__func__.8818
                0x00000000       0x18 build/default/debug/_ext/1360937237/main.o
 .rodata.__func__.8826
                0x00000000       0x18 build/default/debug/_ext/1360937237/main.o
 .rodata.__func__.8832
                0x00000000       0x28 build/default/debug/_ext/1360937237/main.o
 .rodata.__func__.8838
                0x00000000       0x18 build/default/debug/_ext/1360937237/main.o
 .rodata.__func__.8843
                0x00000000       0x18 build/default/debug/_ext/1360937237/main.o
 .rodata.__func__.8849
                0x00000000       0x18 build/default/debug/_ext/1360937237/main.o
 .rodata.__func__.8856
                0x00000000       0x18 build/default/debug/_ext/1360937237/main.o
 .rodata.__func__.8861
                0x00000000       0x1c build/default/debug/_ext/1360937237/main.o
 .rodata.__func__.8868
                0x00000000       0x18 build/default/debug/_ext/1360937237/main.o
 .rodata.__func__.8876
                0x00000000       0x18 build/default/debug/_ext/1360937237/main.o
 .rodata.__func__.8882
                0x00000000       0x28 build/default/debug/_ext/1360937237/main.o
 .rodata.__func__.8887
                0x00000000       0x28 build/default/debug/_ext/1360937237/main.o
 .rodata.__func__.8892
                0x00000000       0x18 build/default/debug/_ext/1360937237/main.o
 .rodata.__func__.8896
                0x00000000       0x18 build/default/debug/_ext/1360937237/main.o
 .rodata.__func__.8904
                0x00000000       0x18 build/default/debug/_ext/1360937237/main.o
 .rodata.__func__.8910
                0x00000000       0x28 build/default/debug/_ext/1360937237/main.o
 .rodata.__func__.8916
                0x00000000       0x18 build/default/debug/_ext/1360937237/main.o
 .rodata.__func__.8925
                0x00000000       0x18 build/default/debug/_ext/1360937237/main.o
 .rodata.__func__.8936
                0x00000000       0x20 build/default/debug/_ext/1360937237/main.o
 .rodata.__func__.8942
                0x00000000       0x28 build/default/debug/_ext/1360937237/main.o
 .rodata.__func__.9668
                0x00000000       0x30 build/default/debug/_ext/1360937237/main.o
 .rodata.__func__.9683
                0x00000000       0x24 build/default/debug/_ext/1360937237/main.o
 .rodata.__func__.9692
                0x00000000       0x20 build/default/debug/_ext/1360937237/main.o
 .rodata.__func__.9701
                0x00000000       0x20 build/default/debug/_ext/1360937237/main.o
 .rodata.__func__.9711
                0x00000000       0x28 build/default/debug/_ext/1360937237/main.o
 .rodata.__func__.9720
                0x00000000       0x1c build/default/debug/_ext/1360937237/main.o
 .rodata.__func__.9729
                0x00000000       0x30 build/default/debug/_ext/1360937237/main.o
 .rodata.__func__.9742
                0x00000000       0x2c build/default/debug/_ext/1360937237/main.o
 .rodata.__func__.9757
                0x00000000       0x34 build/default/debug/_ext/1360937237/main.o
 .rodata.__func__.9764
                0x00000000       0x34 build/default/debug/_ext/1360937237/main.o
 .rodata.__func__.9773
                0x00000000       0x20 build/default/debug/_ext/1360937237/main.o
 .rodata.__func__.9782
                0x00000000       0x2c build/default/debug/_ext/1360937237/main.o
 .rodata.__func__.9791
                0x00000000       0x2c build/default/debug/_ext/1360937237/main.o
 .rodata.__func__.9799
                0x00000000       0x28 build/default/debug/_ext/1360937237/main.o
 .rodata.__func__.9805
                0x00000000       0x28 build/default/debug/_ext/1360937237/main.o
 .text          0x00000000        0x0 build/default/debug/_ext/1360937237/pic32cmls60-curiosity-buttons.o
 .data          0x00000000        0x0 build/default/debug/_ext/1360937237/pic32cmls60-curiosity-buttons.o
 .bss           0x00000000        0x0 build/default/debug/_ext/1360937237/pic32cmls60-curiosity-buttons.o
 .text          0x00000000        0x0 build/default/debug/_ext/1360937237/pic32cmls60-curiosity-led.o
 .data          0x00000000        0x0 build/default/debug/_ext/1360937237/pic32cmls60-curiosity-led.o
 .bss           0x00000000        0x0 build/default/debug/_ext/1360937237/pic32cmls60-curiosity-led.o
 .text          0x00000000        0x0 build/default/debug/_ext/1360937237/pic32cmls60-curiosity-commands.o
 .data          0x00000000        0x0 build/default/debug/_ext/1360937237/pic32cmls60-curiosity-commands.o
 .bss           0x00000000        0x0 build/default/debug/_ext/1360937237/pic32cmls60-curiosity-commands.o
 .text.append_json_property_float
                0x00000000       0x56 build/default/debug/_ext/1360937237/pic32cmls60-curiosity-commands.o
 .text.append_json_property_double
                0x00000000       0x4a build/default/debug/_ext/1360937237/pic32cmls60-curiosity-commands.o
 .text.append_json_property_long
                0x00000000       0x56 build/default/debug/_ext/1360937237/pic32cmls60-curiosity-commands.o
 .text.append_json_property_bool
                0x00000000       0x40 build/default/debug/_ext/1360937237/pic32cmls60-curiosity-commands.o
 .text          0x00000000        0x0 build/default/debug/_ext/1414040249/az_base64.o
 .data          0x00000000        0x0 build/default/debug/_ext/1414040249/az_base64.o
 .bss           0x00000000        0x0 build/default/debug/_ext/1414040249/az_base64.o
 .text.az_base64_get_max_encoded_size
                0x00000000       0x24 build/default/debug/_ext/1414040249/az_base64.o
 .text.az_base64_encode
                0x00000000      0x17a build/default/debug/_ext/1414040249/az_base64.o
 .text.az_base64_get_max_decoded_size
                0x00000000       0x1e build/default/debug/_ext/1414040249/az_base64.o
 .text.az_base64_decode
                0x00000000      0x20a build/default/debug/_ext/1414040249/az_base64.o
 .rodata._az_base64_decode_array
                0x00000000      0x100 build/default/debug/_ext/1414040249/az_base64.o
 .rodata._az_base64_encode_array
                0x00000000       0x44 build/default/debug/_ext/1414040249/az_base64.o
 .debug_info    0x00000000     0x141d build/default/debug/_ext/1414040249/az_base64.o
 .debug_abbrev  0x00000000      0x2a5 build/default/debug/_ext/1414040249/az_base64.o
 .debug_loc     0x00000000     0x16a2 build/default/debug/_ext/1414040249/az_base64.o
 .debug_aranges
                0x00000000       0x38 build/default/debug/_ext/1414040249/az_base64.o
 .debug_ranges  0x00000000      0x128 build/default/debug/_ext/1414040249/az_base64.o
 .debug_line    0x00000000      0x917 build/default/debug/_ext/1414040249/az_base64.o
 .debug_str     0x00000000       0x8c build/default/debug/_ext/1414040249/az_base64.o
 .comment       0x00000000       0x2c build/default/debug/_ext/1414040249/az_base64.o
 .debug_frame   0x00000000       0x98 build/default/debug/_ext/1414040249/az_base64.o
 .ARM.attributes
                0x00000000       0x30 build/default/debug/_ext/1414040249/az_base64.o
 .text          0x00000000        0x0 build/default/debug/_ext/1414040249/az_context.o
 .data          0x00000000        0x0 build/default/debug/_ext/1414040249/az_context.o
 .bss           0x00000000        0x0 build/default/debug/_ext/1414040249/az_context.o
 .text.az_context_get_expiration
                0x00000000       0x3c build/default/debug/_ext/1414040249/az_context.o
 .text.az_context_get_value
                0x00000000       0x4e build/default/debug/_ext/1414040249/az_context.o
 .text.az_context_create_with_expiration
                0x00000000       0x32 build/default/debug/_ext/1414040249/az_context.o
 .text.az_context_create_with_value
                0x00000000       0x38 build/default/debug/_ext/1414040249/az_context.o
 .text.az_context_cancel
                0x00000000       0x18 build/default/debug/_ext/1414040249/az_context.o
 .text.az_context_has_expired
                0x00000000       0x38 build/default/debug/_ext/1414040249/az_context.o
 .data.az_context_application
                0x00000000       0x18 build/default/debug/_ext/1414040249/az_context.o
 .debug_info    0x00000000      0xb31 build/default/debug/_ext/1414040249/az_context.o
 .debug_abbrev  0x00000000      0x1b8 build/default/debug/_ext/1414040249/az_context.o
 .debug_loc     0x00000000      0x47a build/default/debug/_ext/1414040249/az_context.o
 .debug_aranges
                0x00000000       0x48 build/default/debug/_ext/1414040249/az_context.o
 .debug_ranges  0x00000000       0x38 build/default/debug/_ext/1414040249/az_context.o
 .debug_line    0x00000000      0x2d8 build/default/debug/_ext/1414040249/az_context.o
 .debug_str     0x00000000       0x49 build/default/debug/_ext/1414040249/az_context.o
 .comment       0x00000000       0x2c build/default/debug/_ext/1414040249/az_context.o
 .debug_frame   0x00000000       0xb8 build/default/debug/_ext/1414040249/az_context.o
 .ARM.attributes
                0x00000000       0x30 build/default/debug/_ext/1414040249/az_context.o
 .text          0x00000000        0x0 build/default/debug/_ext/1414040249/az_http_pipeline.o
 .data          0x00000000        0x0 build/default/debug/_ext/1414040249/az_http_pipeline.o
 .bss           0x00000000        0x0 build/default/debug/_ext/1414040249/az_http_pipeline.o
 .text.az_http_pipeline_process
                0x00000000       0x36 build/default/debug/_ext/1414040249/az_http_pipeline.o
 .debug_info    0x00000000      0x929 build/default/debug/_ext/1414040249/az_http_pipeline.o
 .debug_abbrev  0x00000000      0x148 build/default/debug/_ext/1414040249/az_http_pipeline.o
 .debug_loc     0x00000000      0x113 build/default/debug/_ext/1414040249/az_http_pipeline.o
 .debug_aranges
                0x00000000       0x20 build/default/debug/_ext/1414040249/az_http_pipeline.o
 .debug_ranges  0x00000000       0x10 build/default/debug/_ext/1414040249/az_http_pipeline.o
 .debug_line    0x00000000      0x1fb build/default/debug/_ext/1414040249/az_http_pipeline.o
 .debug_str     0x00000000       0x49 build/default/debug/_ext/1414040249/az_http_pipeline.o
 .comment       0x00000000       0x2c build/default/debug/_ext/1414040249/az_http_pipeline.o
 .debug_frame   0x00000000       0x2c build/default/debug/_ext/1414040249/az_http_pipeline.o
 .ARM.attributes
                0x00000000       0x30 build/default/debug/_ext/1414040249/az_http_pipeline.o
 .text          0x00000000        0x0 build/default/debug/_ext/1414040249/az_http_policy.o
 .data          0x00000000        0x0 build/default/debug/_ext/1414040249/az_http_policy.o
 .bss           0x00000000        0x0 build/default/debug/_ext/1414040249/az_http_policy.o
 .text.az_http_pipeline_policy_apiversion
                0x00000000       0x66 build/default/debug/_ext/1414040249/az_http_policy.o
 .text.az_http_pipeline_policy_telemetry
                0x00000000      0x122 build/default/debug/_ext/1414040249/az_http_policy.o
 .text.az_http_pipeline_policy_credential
                0x00000000       0x20 build/default/debug/_ext/1414040249/az_http_policy.o
 .text.az_http_pipeline_policy_transport
                0x00000000       0x16 build/default/debug/_ext/1414040249/az_http_policy.o
 .rodata        0x00000000       0x60 build/default/debug/_ext/1414040249/az_http_policy.o
 .debug_info    0x00000000     0x15ce build/default/debug/_ext/1414040249/az_http_policy.o
 .debug_abbrev  0x00000000      0x2bd build/default/debug/_ext/1414040249/az_http_policy.o
 .debug_loc     0x00000000      0x99e build/default/debug/_ext/1414040249/az_http_policy.o
 .debug_aranges
                0x00000000       0x38 build/default/debug/_ext/1414040249/az_http_policy.o
 .debug_ranges  0x00000000      0x118 build/default/debug/_ext/1414040249/az_http_policy.o
 .debug_line    0x00000000      0x431 build/default/debug/_ext/1414040249/az_http_policy.o
 .debug_str     0x00000000      0x162 build/default/debug/_ext/1414040249/az_http_policy.o
 .comment       0x00000000       0x2c build/default/debug/_ext/1414040249/az_http_policy.o
 .debug_frame   0x00000000       0x88 build/default/debug/_ext/1414040249/az_http_policy.o
 .ARM.attributes
                0x00000000       0x30 build/default/debug/_ext/1414040249/az_http_policy.o
 .text          0x00000000        0x0 build/default/debug/_ext/1414040249/az_http_policy_logging.o
 .data          0x00000000        0x0 build/default/debug/_ext/1414040249/az_http_policy_logging.o
 .bss           0x00000000        0x0 build/default/debug/_ext/1414040249/az_http_policy_logging.o
 .text._az_http_policy_logging_copy_lengthy_value
                0x00000000       0xa4 build/default/debug/_ext/1414040249/az_http_policy_logging.o
 .text._az_http_policy_logging_append_http_request_msg
                0x00000000      0x270 build/default/debug/_ext/1414040249/az_http_policy_logging.o
 .text._az_http_policy_logging_log_http_request
                0x00000000       0x44 build/default/debug/_ext/1414040249/az_http_policy_logging.o
 .text._az_http_policy_logging_log_http_response
                0x00000000      0x2e8 build/default/debug/_ext/1414040249/az_http_policy_logging.o
 .text.az_http_pipeline_policy_logging
                0x00000000       0x9e build/default/debug/_ext/1414040249/az_http_policy_logging.o
 .rodata        0x00000000       0x64 build/default/debug/_ext/1414040249/az_http_policy_logging.o
 .rodata.ellipsis.4934
                0x00000000        0x8 build/default/debug/_ext/1414040249/az_http_policy_logging.o
 .debug_info    0x00000000     0x29d1 build/default/debug/_ext/1414040249/az_http_policy_logging.o
 .debug_abbrev  0x00000000      0x39e build/default/debug/_ext/1414040249/az_http_policy_logging.o
 .debug_loc     0x00000000     0x110d build/default/debug/_ext/1414040249/az_http_policy_logging.o
 .debug_aranges
                0x00000000       0x40 build/default/debug/_ext/1414040249/az_http_policy_logging.o
 .debug_ranges  0x00000000      0x508 build/default/debug/_ext/1414040249/az_http_policy_logging.o
 .debug_line    0x00000000      0xa23 build/default/debug/_ext/1414040249/az_http_policy_logging.o
 .debug_str     0x00000000      0x225 build/default/debug/_ext/1414040249/az_http_policy_logging.o
 .comment       0x00000000       0x2c build/default/debug/_ext/1414040249/az_http_policy_logging.o
 .debug_frame   0x00000000       0xc4 build/default/debug/_ext/1414040249/az_http_policy_logging.o
 .ARM.attributes
                0x00000000       0x30 build/default/debug/_ext/1414040249/az_http_policy_logging.o
 .text          0x00000000        0x0 build/default/debug/_ext/1414040249/az_http_policy_retry.o
 .data          0x00000000        0x0 build/default/debug/_ext/1414040249/az_http_policy_retry.o
 .bss           0x00000000        0x0 build/default/debug/_ext/1414040249/az_http_policy_retry.o
 .text._az_http_policy_retry_options_default
                0x00000000       0x12 build/default/debug/_ext/1414040249/az_http_policy_retry.o
 .text.az_http_pipeline_policy_retry
                0x00000000      0x378 build/default/debug/_ext/1414040249/az_http_policy_retry.o
 .rodata        0x00000000       0x6c build/default/debug/_ext/1414040249/az_http_policy_retry.o
 .debug_info    0x00000000     0x25d0 build/default/debug/_ext/1414040249/az_http_policy_retry.o
 .debug_abbrev  0x00000000      0x34b build/default/debug/_ext/1414040249/az_http_policy_retry.o
 .debug_loc     0x00000000      0xd0b build/default/debug/_ext/1414040249/az_http_policy_retry.o
 .debug_aranges
                0x00000000       0x28 build/default/debug/_ext/1414040249/az_http_policy_retry.o
 .debug_ranges  0x00000000      0x450 build/default/debug/_ext/1414040249/az_http_policy_retry.o
 .debug_line    0x00000000      0x715 build/default/debug/_ext/1414040249/az_http_policy_retry.o
 .debug_str     0x00000000      0x208 build/default/debug/_ext/1414040249/az_http_policy_retry.o
 .comment       0x00000000       0x2c build/default/debug/_ext/1414040249/az_http_policy_retry.o
 .debug_frame   0x00000000       0x58 build/default/debug/_ext/1414040249/az_http_policy_retry.o
 .ARM.attributes
                0x00000000       0x30 build/default/debug/_ext/1414040249/az_http_policy_retry.o
 .text          0x00000000        0x0 build/default/debug/_ext/1414040249/az_http_request.o
 .data          0x00000000        0x0 build/default/debug/_ext/1414040249/az_http_request.o
 .bss           0x00000000        0x0 build/default/debug/_ext/1414040249/az_http_request.o
 .text.az_http_request_init
                0x00000000       0xd6 build/default/debug/_ext/1414040249/az_http_request.o
 .text.az_http_request_set_query_parameter
                0x00000000      0x136 build/default/debug/_ext/1414040249/az_http_request.o
 .text.az_http_request_append_header
                0x00000000       0xdc build/default/debug/_ext/1414040249/az_http_request.o
 .text.az_http_request_get_header
                0x00000000       0x4a build/default/debug/_ext/1414040249/az_http_request.o
 .text.az_http_request_get_method
                0x00000000       0x26 build/default/debug/_ext/1414040249/az_http_request.o
 .text.az_http_request_get_url
                0x00000000       0x3a build/default/debug/_ext/1414040249/az_http_request.o
 .text.az_http_request_get_body
                0x00000000       0x26 build/default/debug/_ext/1414040249/az_http_request.o
 .text.az_http_request_headers_count
                0x00000000        0x4 build/default/debug/_ext/1414040249/az_http_request.o
 .rodata.az_http_valid_token
                0x00000000      0x100 build/default/debug/_ext/1414040249/az_http_request.o
 .debug_info    0x00000000     0x178d build/default/debug/_ext/1414040249/az_http_request.o
 .debug_abbrev  0x00000000      0x2c1 build/default/debug/_ext/1414040249/az_http_request.o
 .debug_loc     0x00000000     0x1042 build/default/debug/_ext/1414040249/az_http_request.o
 .debug_aranges
                0x00000000       0x58 build/default/debug/_ext/1414040249/az_http_request.o
 .debug_ranges  0x00000000      0x200 build/default/debug/_ext/1414040249/az_http_request.o
 .debug_line    0x00000000      0x859 build/default/debug/_ext/1414040249/az_http_request.o
 .debug_str     0x00000000      0x111 build/default/debug/_ext/1414040249/az_http_request.o
 .comment       0x00000000       0x2c build/default/debug/_ext/1414040249/az_http_request.o
 .debug_frame   0x00000000      0x10c build/default/debug/_ext/1414040249/az_http_request.o
 .ARM.attributes
                0x00000000       0x30 build/default/debug/_ext/1414040249/az_http_request.o
 .text          0x00000000        0x0 build/default/debug/_ext/1414040249/az_http_response.o
 .data          0x00000000        0x0 build/default/debug/_ext/1414040249/az_http_response.o
 .bss           0x00000000        0x0 build/default/debug/_ext/1414040249/az_http_response.o
 .text._az_get_digit
                0x00000000       0x42 build/default/debug/_ext/1414040249/az_http_response.o
 .text.az_http_response_get_status_line
                0x00000000      0x15e build/default/debug/_ext/1414040249/az_http_response.o
 .text.az_http_response_get_next_header
                0x00000000      0x1f0 build/default/debug/_ext/1414040249/az_http_response.o
 .text.az_http_response_get_body
                0x00000000       0x7a build/default/debug/_ext/1414040249/az_http_response.o
 .text._az_http_response_reset
                0x00000000        0xc build/default/debug/_ext/1414040249/az_http_response.o
 .text.az_http_response_append
                0x00000000       0x5a build/default/debug/_ext/1414040249/az_http_response.o
 .rodata        0x00000000       0x18 build/default/debug/_ext/1414040249/az_http_response.o
 .rodata.az_http_valid_token
                0x00000000      0x100 build/default/debug/_ext/1414040249/az_http_response.o
 .rodata.dot.4903
                0x00000000        0x8 build/default/debug/_ext/1414040249/az_http_response.o
 .rodata.space.4905
                0x00000000        0x8 build/default/debug/_ext/1414040249/az_http_response.o
 .rodata.start.4901
                0x00000000        0x8 build/default/debug/_ext/1414040249/az_http_response.o
 .debug_info    0x00000000     0x2035 build/default/debug/_ext/1414040249/az_http_response.o
 .debug_abbrev  0x00000000      0x3b9 build/default/debug/_ext/1414040249/az_http_response.o
 .debug_loc     0x00000000      0xbfb build/default/debug/_ext/1414040249/az_http_response.o
 .debug_aranges
                0x00000000       0x48 build/default/debug/_ext/1414040249/az_http_response.o
 .debug_ranges  0x00000000      0x370 build/default/debug/_ext/1414040249/az_http_response.o
 .debug_line    0x00000000      0x787 build/default/debug/_ext/1414040249/az_http_response.o
 .debug_str     0x00000000      0x123 build/default/debug/_ext/1414040249/az_http_response.o
 .comment       0x00000000       0x2c build/default/debug/_ext/1414040249/az_http_response.o
 .debug_frame   0x00000000       0xc8 build/default/debug/_ext/1414040249/az_http_response.o
 .ARM.attributes
                0x00000000       0x30 build/default/debug/_ext/1414040249/az_http_response.o
 .text          0x00000000        0x0 build/default/debug/_ext/1414040249/az_json_reader.o
 .data          0x00000000        0x0 build/default/debug/_ext/1414040249/az_json_reader.o
 .bss           0x00000000        0x0 build/default/debug/_ext/1414040249/az_json_reader.o
 .text.az_json_reader_chunked_init
                0x00000000       0x6e build/default/debug/_ext/1414040249/az_json_reader.o
 .text          0x00000000        0x0 build/default/debug/_ext/1414040249/az_json_token.o
 .data          0x00000000        0x0 build/default/debug/_ext/1414040249/az_json_token.o
 .bss           0x00000000        0x0 build/default/debug/_ext/1414040249/az_json_token.o
 .text.az_json_token_copy_into_span
                0x00000000       0x5c build/default/debug/_ext/1414040249/az_json_token.o
 .text.az_json_token_get_uint64
                0x00000000       0xac build/default/debug/_ext/1414040249/az_json_token.o
 .text.az_json_token_get_int64
                0x00000000       0xac build/default/debug/_ext/1414040249/az_json_token.o
 .text          0x00000000        0x0 build/default/debug/_ext/1414040249/az_json_writer.o
 .data          0x00000000        0x0 build/default/debug/_ext/1414040249/az_json_writer.o
 .bss           0x00000000        0x0 build/default/debug/_ext/1414040249/az_json_writer.o
 .text._az_json_writer_append_literal
                0x00000000       0xda build/default/debug/_ext/1414040249/az_json_writer.o
 .text.az_json_writer_chunked_init
                0x00000000       0x50 build/default/debug/_ext/1414040249/az_json_writer.o
 .text.az_json_writer_append_bool
                0x00000000       0x2e build/default/debug/_ext/1414040249/az_json_writer.o
 .text.az_json_writer_append_null
                0x00000000       0x1a build/default/debug/_ext/1414040249/az_json_writer.o
 .text.az_json_writer_append_begin_array
                0x00000000        0xc build/default/debug/_ext/1414040249/az_json_writer.o
 .text.az_json_writer_append_end_array
                0x00000000        0xc build/default/debug/_ext/1414040249/az_json_writer.o
 .rodata        0x00000000       0x18 build/default/debug/_ext/1414040249/az_json_writer.o
 .text          0x00000000        0x0 build/default/debug/_ext/1414040249/az_log.o
 .data          0x00000000        0x0 build/default/debug/_ext/1414040249/az_log.o
 .bss           0x00000000        0x0 build/default/debug/_ext/1414040249/az_log.o
 .text.az_log_set_message_callback
                0x00000000        0xc build/default/debug/_ext/1414040249/az_log.o
 .text.az_log_set_classification_filter_callback
                0x00000000        0xc build/default/debug/_ext/1414040249/az_log.o
 .text          0x00000000        0x0 build/default/debug/_ext/1414040249/az_precondition.o
 .data          0x00000000        0x0 build/default/debug/_ext/1414040249/az_precondition.o
 .bss           0x00000000        0x0 build/default/debug/_ext/1414040249/az_precondition.o
 .text.az_precondition_failed_set_callback
                0x00000000        0xc build/default/debug/_ext/1414040249/az_precondition.o
 .text          0x00000000        0x0 build/default/debug/_ext/1414040249/az_span.o
 .data          0x00000000        0x0 build/default/debug/_ext/1414040249/az_span.o
 .bss           0x00000000        0x0 build/default/debug/_ext/1414040249/az_span.o
 .text.az_span_create_from_str
                0x00000000       0x2a build/default/debug/_ext/1414040249/az_span.o
 .text.az_span_is_content_equal_ignoring_case
                0x00000000       0x54 build/default/debug/_ext/1414040249/az_span.o
 .text.az_span_atou64
                0x00000000      0x134 build/default/debug/_ext/1414040249/az_span.o
 .text.az_span_atoi64
                0x00000000      0x190 build/default/debug/_ext/1414040249/az_span.o
 .text.az_span_u64toa
                0x00000000       0x42 build/default/debug/_ext/1414040249/az_span.o
 .text.az_span_i64toa
                0x00000000       0x74 build/default/debug/_ext/1414040249/az_span.o
 .text._az_is_expected_span
                0x00000000       0x6a build/default/debug/_ext/1414040249/az_span.o
 .text._az_span_trim_whitespace_from_end
                0x00000000       0x4c build/default/debug/_ext/1414040249/az_span.o
 .text._az_span_trim_whitespace
                0x00000000       0x1c build/default/debug/_ext/1414040249/az_span.o
 .text._az_span_url_encode_calc_length
                0x00000000       0x7a build/default/debug/_ext/1414040249/az_span.o
 .text          0x00000000        0x0 build/default/debug/_ext/1292534426/az_iot_common.o
 .data          0x00000000        0x0 build/default/debug/_ext/1292534426/az_iot_common.o
 .bss           0x00000000        0x0 build/default/debug/_ext/1292534426/az_iot_common.o
 .text.az_iot_message_properties_append
                0x00000000       0xe8 build/default/debug/_ext/1292534426/az_iot_common.o
 .text.az_iot_message_properties_next
                0x00000000       0xf2 build/default/debug/_ext/1292534426/az_iot_common.o
 .text.az_iot_calculate_retry_delay
                0x00000000       0xb8 build/default/debug/_ext/1292534426/az_iot_common.o
 .text._az_iot_u64toa_size
                0x00000000       0x60 build/default/debug/_ext/1292534426/az_iot_common.o
 .text          0x00000000        0x0 build/default/debug/_ext/1292534426/az_iot_hub_client.o
 .data          0x00000000        0x0 build/default/debug/_ext/1292534426/az_iot_hub_client.o
 .bss           0x00000000        0x0 build/default/debug/_ext/1292534426/az_iot_hub_client.o
 .text          0x00000000        0x0 build/default/debug/_ext/1292534426/az_iot_hub_client_c2d.o
 .data          0x00000000        0x0 build/default/debug/_ext/1292534426/az_iot_hub_client_c2d.o
 .bss           0x00000000        0x0 build/default/debug/_ext/1292534426/az_iot_hub_client_c2d.o
 .text.az_iot_hub_client_c2d_parse_received_topic
                0x00000000       0xde build/default/debug/_ext/1292534426/az_iot_hub_client_c2d.o
 .rodata        0x00000000       0x18 build/default/debug/_ext/1292534426/az_iot_hub_client_c2d.o
 .rodata.c2d_topic_suffix
                0x00000000        0x8 build/default/debug/_ext/1292534426/az_iot_hub_client_c2d.o
 .debug_info    0x00000000      0xf8a build/default/debug/_ext/1292534426/az_iot_hub_client_c2d.o
 .debug_abbrev  0x00000000      0x1ff build/default/debug/_ext/1292534426/az_iot_hub_client_c2d.o
 .debug_loc     0x00000000      0x319 build/default/debug/_ext/1292534426/az_iot_hub_client_c2d.o
 .debug_aranges
                0x00000000       0x20 build/default/debug/_ext/1292534426/az_iot_hub_client_c2d.o
 .debug_ranges  0x00000000       0x80 build/default/debug/_ext/1292534426/az_iot_hub_client_c2d.o
 .debug_line    0x00000000      0x394 build/default/debug/_ext/1292534426/az_iot_hub_client_c2d.o
 .debug_str     0x00000000       0x7f build/default/debug/_ext/1292534426/az_iot_hub_client_c2d.o
 .comment       0x00000000       0x2c build/default/debug/_ext/1292534426/az_iot_hub_client_c2d.o
 .debug_frame   0x00000000       0x2c build/default/debug/_ext/1292534426/az_iot_hub_client_c2d.o
 .ARM.attributes
                0x00000000       0x30 build/default/debug/_ext/1292534426/az_iot_hub_client_c2d.o
 .text          0x00000000        0x0 build/default/debug/_ext/1292534426/az_iot_hub_client_commands.o
 .data          0x00000000        0x0 build/default/debug/_ext/1292534426/az_iot_hub_client_commands.o
 .bss           0x00000000        0x0 build/default/debug/_ext/1292534426/az_iot_hub_client_commands.o
 .text          0x00000000        0x0 build/default/debug/_ext/1292534426/az_iot_hub_client_methods.o
 .data          0x00000000        0x0 build/default/debug/_ext/1292534426/az_iot_hub_client_methods.o
 .bss           0x00000000        0x0 build/default/debug/_ext/1292534426/az_iot_hub_client_methods.o
 .text          0x00000000        0x0 build/default/debug/_ext/1292534426/az_iot_hub_client_properties.o
 .data          0x00000000        0x0 build/default/debug/_ext/1292534426/az_iot_hub_client_properties.o
 .bss           0x00000000        0x0 build/default/debug/_ext/1292534426/az_iot_hub_client_properties.o
 .text.az_iot_hub_client_properties_writer_begin_component
                0x00000000       0x84 build/default/debug/_ext/1292534426/az_iot_hub_client_properties.o
 .text.az_iot_hub_client_properties_writer_end_component
                0x00000000       0x20 build/default/debug/_ext/1292534426/az_iot_hub_client_properties.o
 .rodata.component_properties_label_value
                0x00000000        0x8 build/default/debug/_ext/1292534426/az_iot_hub_client_properties.o
 .text          0x00000000        0x0 build/default/debug/_ext/1292534426/az_iot_hub_client_sas.o
 .data          0x00000000        0x0 build/default/debug/_ext/1292534426/az_iot_hub_client_sas.o
 .bss           0x00000000        0x0 build/default/debug/_ext/1292534426/az_iot_hub_client_sas.o
 .text.az_iot_hub_client_sas_get_signature
                0x00000000      0x19a build/default/debug/_ext/1292534426/az_iot_hub_client_sas.o
 .text.az_iot_hub_client_sas_get_password
                0x00000000      0x30c build/default/debug/_ext/1292534426/az_iot_hub_client_sas.o
 .rodata        0x00000000       0x48 build/default/debug/_ext/1292534426/az_iot_hub_client_sas.o
 .rodata.devices_string
                0x00000000        0x8 build/default/debug/_ext/1292534426/az_iot_hub_client_sas.o
 .rodata.modules_string
                0x00000000        0x8 build/default/debug/_ext/1292534426/az_iot_hub_client_sas.o
 .rodata.se_string
                0x00000000        0x8 build/default/debug/_ext/1292534426/az_iot_hub_client_sas.o
 .rodata.sig_string
                0x00000000        0x8 build/default/debug/_ext/1292534426/az_iot_hub_client_sas.o
 .rodata.skn_string
                0x00000000        0x8 build/default/debug/_ext/1292534426/az_iot_hub_client_sas.o
 .rodata.sr_string
                0x00000000        0x8 build/default/debug/_ext/1292534426/az_iot_hub_client_sas.o
 .debug_info    0x00000000     0x1496 build/default/debug/_ext/1292534426/az_iot_hub_client_sas.o
 .debug_abbrev  0x00000000      0x21b build/default/debug/_ext/1292534426/az_iot_hub_client_sas.o
 .debug_loc     0x00000000      0x760 build/default/debug/_ext/1292534426/az_iot_hub_client_sas.o
 .debug_aranges
                0x00000000       0x28 build/default/debug/_ext/1292534426/az_iot_hub_client_sas.o
 .debug_ranges  0x00000000      0x2c0 build/default/debug/_ext/1292534426/az_iot_hub_client_sas.o
 .debug_line    0x00000000      0x72d build/default/debug/_ext/1292534426/az_iot_hub_client_sas.o
 .debug_str     0x00000000       0xe4 build/default/debug/_ext/1292534426/az_iot_hub_client_sas.o
 .comment       0x00000000       0x2c build/default/debug/_ext/1292534426/az_iot_hub_client_sas.o
 .debug_frame   0x00000000       0x60 build/default/debug/_ext/1292534426/az_iot_hub_client_sas.o
 .ARM.attributes
                0x00000000       0x30 build/default/debug/_ext/1292534426/az_iot_hub_client_sas.o
 .text          0x00000000        0x0 build/default/debug/_ext/1292534426/az_iot_hub_client_telemetry.o
 .data          0x00000000        0x0 build/default/debug/_ext/1292534426/az_iot_hub_client_telemetry.o
 .bss           0x00000000        0x0 build/default/debug/_ext/1292534426/az_iot_hub_client_telemetry.o
 .text          0x00000000        0x0 build/default/debug/_ext/1292534426/az_iot_hub_client_twin.o
 .data          0x00000000        0x0 build/default/debug/_ext/1292534426/az_iot_hub_client_twin.o
 .bss           0x00000000        0x0 build/default/debug/_ext/1292534426/az_iot_hub_client_twin.o
 .text          0x00000000        0x0 build/default/debug/_ext/1292534426/az_iot_provisioning_client.o
 .data          0x00000000        0x0 build/default/debug/_ext/1292534426/az_iot_provisioning_client.o
 .bss           0x00000000        0x0 build/default/debug/_ext/1292534426/az_iot_provisioning_client.o
 .text.az_iot_provisioning_client_options_default
                0x00000000        0x8 build/default/debug/_ext/1292534426/az_iot_provisioning_client.o
 .text          0x00000000        0x0 build/default/debug/_ext/1292534426/az_iot_provisioning_client_sas.o
 .data          0x00000000        0x0 build/default/debug/_ext/1292534426/az_iot_provisioning_client_sas.o
 .bss           0x00000000        0x0 build/default/debug/_ext/1292534426/az_iot_provisioning_client_sas.o
 .text.az_iot_provisioning_client_sas_get_signature
                0x00000000      0x126 build/default/debug/_ext/1292534426/az_iot_provisioning_client_sas.o
 .text.az_iot_provisioning_client_sas_get_password
                0x00000000      0x2dc build/default/debug/_ext/1292534426/az_iot_provisioning_client_sas.o
 .rodata        0x00000000       0x3c build/default/debug/_ext/1292534426/az_iot_provisioning_client_sas.o
 .rodata.resources_string
                0x00000000        0x8 build/default/debug/_ext/1292534426/az_iot_provisioning_client_sas.o
 .rodata.se_string
                0x00000000        0x8 build/default/debug/_ext/1292534426/az_iot_provisioning_client_sas.o
 .rodata.sig_string
                0x00000000        0x8 build/default/debug/_ext/1292534426/az_iot_provisioning_client_sas.o
 .rodata.skn_string
                0x00000000        0x8 build/default/debug/_ext/1292534426/az_iot_provisioning_client_sas.o
 .rodata.sr_string
                0x00000000        0x8 build/default/debug/_ext/1292534426/az_iot_provisioning_client_sas.o
 .debug_info    0x00000000     0x139b build/default/debug/_ext/1292534426/az_iot_provisioning_client_sas.o
 .debug_abbrev  0x00000000      0x22c build/default/debug/_ext/1292534426/az_iot_provisioning_client_sas.o
 .debug_loc     0x00000000      0x686 build/default/debug/_ext/1292534426/az_iot_provisioning_client_sas.o
 .debug_aranges
                0x00000000       0x28 build/default/debug/_ext/1292534426/az_iot_provisioning_client_sas.o
 .debug_ranges  0x00000000      0x240 build/default/debug/_ext/1292534426/az_iot_provisioning_client_sas.o
 .debug_line    0x00000000      0x67e build/default/debug/_ext/1292534426/az_iot_provisioning_client_sas.o
 .debug_str     0x00000000       0xe4 build/default/debug/_ext/1292534426/az_iot_provisioning_client_sas.o
 .comment       0x00000000       0x2c build/default/debug/_ext/1292534426/az_iot_provisioning_client_sas.o
 .debug_frame   0x00000000       0x60 build/default/debug/_ext/1292534426/az_iot_provisioning_client_sas.o
 .ARM.attributes
                0x00000000       0x30 build/default/debug/_ext/1292534426/az_iot_provisioning_client_sas.o
 .text          0x00000000        0x0 build/default/debug/_ext/1434821282/bsp.o
 .data          0x00000000        0x0 build/default/debug/_ext/1434821282/bsp.o
 .bss           0x00000000        0x0 build/default/debug/_ext/1434821282/bsp.o
 .text          0x00000000        0x0 build/default/debug/_ext/60163342/plib_adc.o
 .data          0x00000000        0x0 build/default/debug/_ext/60163342/plib_adc.o
 .bss           0x00000000        0x0 build/default/debug/_ext/60163342/plib_adc.o
 .text.ADC_Disable
                0x00000000       0x22 build/default/debug/_ext/60163342/plib_adc.o
 .text.ADC_ChannelSelect
                0x00000000       0x1e build/default/debug/_ext/60163342/plib_adc.o
 .text.ADC_ConversionStart
                0x00000000       0x24 build/default/debug/_ext/60163342/plib_adc.o
 .text.ADC_ConversionSequenceIsFinished
                0x00000000       0x12 build/default/debug/_ext/60163342/plib_adc.o
 .text.ADC_ComparisonWindowSet
                0x00000000       0x1e build/default/debug/_ext/60163342/plib_adc.o
 .text.ADC_WindowModeSet
                0x00000000       0x2c build/default/debug/_ext/60163342/plib_adc.o
 .text.ADC_InterruptsClear
                0x00000000        0xe build/default/debug/_ext/60163342/plib_adc.o
 .text.ADC_InterruptsEnable
                0x00000000        0xe build/default/debug/_ext/60163342/plib_adc.o
 .text.ADC_InterruptsDisable
                0x00000000        0xe build/default/debug/_ext/60163342/plib_adc.o
 .text.ADC_ConversionStatusGet
                0x00000000       0x1e build/default/debug/_ext/60163342/plib_adc.o
 .text          0x00000000        0x0 build/default/debug/_ext/60167341/plib_eic.o
 .data          0x00000000        0x0 build/default/debug/_ext/60167341/plib_eic.o
 .bss           0x00000000        0x0 build/default/debug/_ext/60167341/plib_eic.o
 .text.EIC_InterruptDisable
                0x00000000       0x10 build/default/debug/_ext/60167341/plib_eic.o
 .text          0x00000000        0x0 build/default/debug/_ext/1865468468/plib_nvic.o
 .data          0x00000000        0x0 build/default/debug/_ext/1865468468/plib_nvic.o
 .bss           0x00000000        0x0 build/default/debug/_ext/1865468468/plib_nvic.o
 .text.NVIC_INT_Enable
                0x00000000        0x8 build/default/debug/_ext/1865468468/plib_nvic.o
 .text.NVIC_INT_Disable
                0x00000000       0x12 build/default/debug/_ext/1865468468/plib_nvic.o
 .text.NVIC_INT_Restore
                0x00000000       0x12 build/default/debug/_ext/1865468468/plib_nvic.o
 .text          0x00000000        0x0 build/default/debug/_ext/1865521619/plib_port.o
 .data          0x00000000        0x0 build/default/debug/_ext/1865521619/plib_port.o
 .bss           0x00000000        0x0 build/default/debug/_ext/1865521619/plib_port.o
 .text.PORT_GroupRead
                0x00000000        0x4 build/default/debug/_ext/1865521619/plib_port.o
 .text.PORT_GroupWrite
                0x00000000        0xc build/default/debug/_ext/1865521619/plib_port.o
 .text.PORT_GroupLatchRead
                0x00000000        0x4 build/default/debug/_ext/1865521619/plib_port.o
 .text.PORT_GroupSet
                0x00000000        0x4 build/default/debug/_ext/1865521619/plib_port.o
 .text.PORT_GroupClear
                0x00000000        0x4 build/default/debug/_ext/1865521619/plib_port.o
 .text.PORT_GroupToggle
                0x00000000        0x4 build/default/debug/_ext/1865521619/plib_port.o
 .text.PORT_GroupInputEnable
                0x00000000        0x4 build/default/debug/_ext/1865521619/plib_port.o
 .text.PORT_GroupOutputEnable
                0x00000000        0x4 build/default/debug/_ext/1865521619/plib_port.o
 .debug_info    0x00000000      0x852 build/default/debug/_ext/1865521619/plib_port.o
 .debug_abbrev  0x00000000      0x12a build/default/debug/_ext/1865521619/plib_port.o
 .debug_loc     0x00000000       0x94 build/default/debug/_ext/1865521619/plib_port.o
 .debug_aranges
                0x00000000       0x58 build/default/debug/_ext/1865521619/plib_port.o
 .debug_ranges  0x00000000       0x48 build/default/debug/_ext/1865521619/plib_port.o
 .debug_line    0x00000000      0x1cb build/default/debug/_ext/1865521619/plib_port.o
 .debug_str     0x00000000        0xb build/default/debug/_ext/1865521619/plib_port.o
 .comment       0x00000000       0x2c build/default/debug/_ext/1865521619/plib_port.o
 .debug_frame   0x00000000       0x90 build/default/debug/_ext/1865521619/plib_port.o
 .ARM.attributes
                0x00000000       0x30 build/default/debug/_ext/1865521619/plib_port.o
 .text          0x00000000        0x0 build/default/debug/_ext/504274921/plib_sercom3_usart.o
 .data          0x00000000        0x0 build/default/debug/_ext/504274921/plib_sercom3_usart.o
 .bss           0x00000000        0x0 build/default/debug/_ext/504274921/plib_sercom3_usart.o
 .text.SERCOM3_USART_FrequencyGet
                0x00000000        0xa build/default/debug/_ext/504274921/plib_sercom3_usart.o
 .text.SERCOM3_USART_SerialSetup
                0x00000000      0x150 build/default/debug/_ext/504274921/plib_sercom3_usart.o
 .text.SERCOM3_USART_ErrorGet
                0x00000000       0x4a build/default/debug/_ext/504274921/plib_sercom3_usart.o
 .text.SERCOM3_USART_TransmitterEnable
                0x00000000       0x22 build/default/debug/_ext/504274921/plib_sercom3_usart.o
 .text.SERCOM3_USART_TransmitterDisable
                0x00000000       0x24 build/default/debug/_ext/504274921/plib_sercom3_usart.o
 .text.SERCOM3_USART_TransmitterIsReady
                0x00000000       0x10 build/default/debug/_ext/504274921/plib_sercom3_usart.o
 .text.SERCOM3_USART_WriteByte
                0x00000000       0x22 build/default/debug/_ext/504274921/plib_sercom3_usart.o
 .text.SERCOM3_USART_TransmitComplete
                0x00000000       0x10 build/default/debug/_ext/504274921/plib_sercom3_usart.o
 .text          0x00000000        0x0 build/default/debug/_ext/504274921/plib_sercom2_usart.o
 .data          0x00000000        0x0 build/default/debug/_ext/504274921/plib_sercom2_usart.o
 .bss           0x00000000        0x0 build/default/debug/_ext/504274921/plib_sercom2_usart.o
 .text.SERCOM2_USART_FrequencyGet
                0x00000000        0xa build/default/debug/_ext/504274921/plib_sercom2_usart.o
 .text.SERCOM2_USART_SerialSetup
                0x00000000      0x18c build/default/debug/_ext/504274921/plib_sercom2_usart.o
 .text.SERCOM2_USART_ReadFreeBufferCountGet
                0x00000000       0x16 build/default/debug/_ext/504274921/plib_sercom2_usart.o
 .text.SERCOM2_USART_ReadBufferSizeGet
                0x00000000        0xe build/default/debug/_ext/504274921/plib_sercom2_usart.o
 .text.SERCOM2_USART_ReadThresholdSet
                0x00000000        0xe build/default/debug/_ext/504274921/plib_sercom2_usart.o
 .text.SERCOM2_USART_ReadCallbackRegister
                0x00000000        0xe build/default/debug/_ext/504274921/plib_sercom2_usart.o
 .text.SERCOM2_USART_WriteCountGet
                0x00000000        0x8 build/default/debug/_ext/504274921/plib_sercom2_usart.o
 .text.SERCOM2_USART_WriteBufferSizeGet
                0x00000000        0xe build/default/debug/_ext/504274921/plib_sercom2_usart.o
 .text.SERCOM2_USART_WriteNotificationEnable
                0x00000000       0x12 build/default/debug/_ext/504274921/plib_sercom2_usart.o
 .text.SERCOM2_USART_WriteThresholdSet
                0x00000000        0xe build/default/debug/_ext/504274921/plib_sercom2_usart.o
 .text.SERCOM2_USART_WriteCallbackRegister
                0x00000000        0xe build/default/debug/_ext/504274921/plib_sercom2_usart.o
 .text          0x00000000        0x0 build/default/debug/_ext/1827571544/plib_systick.o
 .data          0x00000000        0x0 build/default/debug/_ext/1827571544/plib_systick.o
 .bss           0x00000000        0x0 build/default/debug/_ext/1827571544/plib_systick.o
 .text.SYSTICK_TimerRestart
                0x00000000       0x1c build/default/debug/_ext/1827571544/plib_systick.o
 .text.SYSTICK_TimerStop
                0x00000000       0x12 build/default/debug/_ext/1827571544/plib_systick.o
 .text.SYSTICK_TimerPeriodSet
                0x00000000        0xe build/default/debug/_ext/1827571544/plib_systick.o
 .text.SYSTICK_TimerPeriodGet
                0x00000000        0xc build/default/debug/_ext/1827571544/plib_systick.o
 .text.SYSTICK_TimerCounterGet
                0x00000000        0xc build/default/debug/_ext/1827571544/plib_systick.o
 .text.SYSTICK_TimerFrequencyGet
                0x00000000        0xa build/default/debug/_ext/1827571544/plib_systick.o
 .text.SYSTICK_DelayUs
                0x00000000       0x4a build/default/debug/_ext/1827571544/plib_systick.o
 .text.SYSTICK_TimerPeriodHasExpired
                0x00000000       0x10 build/default/debug/_ext/1827571544/plib_systick.o
 .text          0x00000000        0x0 build/default/debug/_ext/163028504/xc32_monitor.o
 .data          0x00000000        0x0 build/default/debug/_ext/163028504/xc32_monitor.o
 .bss           0x00000000        0x0 build/default/debug/_ext/163028504/xc32_monitor.o
 .text          0x00000000        0x0 build/default/debug/_ext/1171490990/initialization.o
 .data          0x00000000        0x0 build/default/debug/_ext/1171490990/initialization.o
 .bss           0x00000000        0x0 build/default/debug/_ext/1171490990/initialization.o
 .text          0x00000000        0x0 build/default/debug/_ext/1171490990/interrupts.o
 .data          0x00000000        0x0 build/default/debug/_ext/1171490990/interrupts.o
 .bss           0x00000000        0x0 build/default/debug/_ext/1171490990/interrupts.o
 .text          0x00000000        0x0 build/default/debug/_ext/1171490990/exceptions.o
 .data          0x00000000        0x0 build/default/debug/_ext/1171490990/exceptions.o
 .bss           0x00000000        0x0 build/default/debug/_ext/1171490990/exceptions.o
 .text          0x00000000        0x0 build/default/debug/_ext/1171490990/startup_xc32.o
 .data          0x00000000        0x0 build/default/debug/_ext/1171490990/startup_xc32.o
 .bss           0x00000000        0x0 build/default/debug/_ext/1171490990/startup_xc32.o
 .text          0x00000000        0x0 build/default/debug/_ext/1171490990/libc_syscalls.o
 .data          0x00000000        0x0 build/default/debug/_ext/1171490990/libc_syscalls.o
 .bss           0x00000000        0x0 build/default/debug/_ext/1171490990/libc_syscalls.o
 .text          0x00000000        0x0 /Applications/microchip/xc32/v4.10/bin/bin/../../lib/gcc/pic32c/8.3.1/../../../../pic32c/lib/thumb/v8-m.base/nofp/libpic32c.a(data_init.o)
 .data          0x00000000        0x0 /Applications/microchip/xc32/v4.10/bin/bin/../../lib/gcc/pic32c/8.3.1/../../../../pic32c/lib/thumb/v8-m.base/nofp/libpic32c.a(data_init.o)
 .xc_stack_usage
                0x00000000       0x2a /Applications/microchip/xc32/v4.10/bin/bin/../../lib/gcc/pic32c/8.3.1/../../../../pic32c/lib/thumb/v8-m.base/nofp/libpic32c.a(data_init.o)
 .xc_stack_usage.hdr
                0x00000000        0xe /Applications/microchip/xc32/v4.10/bin/bin/../../lib/gcc/pic32c/8.3.1/../../../../pic32c/lib/thumb/v8-m.base/nofp/libpic32c.a(data_init.o)
 .text          0x00000000        0x0 /Applications/microchip/xc32/v4.10/bin/bin/../../lib/gcc/pic32c/8.3.1/../../../../pic32c/lib/thumb/v8-m.base/nofp/libm-emfloat.a(lib_a-_MODF.o)
 .data          0x00000000        0x0 /Applications/microchip/xc32/v4.10/bin/bin/../../lib/gcc/pic32c/8.3.1/../../../../pic32c/lib/thumb/v8-m.base/nofp/libm-emfloat.a(lib_a-_MODF.o)
 .bss           0x00000000        0x0 /Applications/microchip/xc32/v4.10/bin/bin/../../lib/gcc/pic32c/8.3.1/../../../../pic32c/lib/thumb/v8-m.base/nofp/libm-emfloat.a(lib_a-_MODF.o)
 .xc_stack_usage
                0x00000000      0x296 /Applications/microchip/xc32/v4.10/bin/bin/../../lib/gcc/pic32c/8.3.1/../../../../pic32c/lib/thumb/v8-m.base/nofp/libm-emfloat.a(lib_a-_MODF.o)
 .text.__SEGGER_RTL_float64_cdiv
                0x00000000      0x2b4 /Applications/microchip/xc32/v4.10/bin/bin/../../lib/gcc/pic32c/8.3.1/../../../../pic32c/lib/thumb/v8-m.base/nofp/libm-emfloat.a(lib_a-_MODF.o)
 .text.__SEGGER_RTL_float64_cmplx
                0x00000000       0x14 /Applications/microchip/xc32/v4.10/bin/bin/../../lib/gcc/pic32c/8.3.1/../../../../pic32c/lib/thumb/v8-m.base/nofp/libm-emfloat.a(lib_a-_MODF.o)
 .text.__mulsc3
                0x00000000      0x24c /Applications/microchip/xc32/v4.10/bin/bin/../../lib/gcc/pic32c/8.3.1/../../../../pic32c/lib/thumb/v8-m.base/nofp/libm-emfloat.a(lib_a-_MODF.o)
 .text.__divdc3
                0x00000000       0x40 /Applications/microchip/xc32/v4.10/bin/bin/../../lib/gcc/pic32c/8.3.1/../../../../pic32c/lib/thumb/v8-m.base/nofp/libm-emfloat.a(lib_a-_MODF.o)
 .text.__SEGGER_RTL_float32_isnan
                0x00000000       0x10 /Applications/microchip/xc32/v4.10/bin/bin/../../lib/gcc/pic32c/8.3.1/../../../../pic32c/lib/thumb/v8-m.base/nofp/libm-emfloat.a(lib_a-_MODF.o)
 .text.__SEGGER_RTL_float32_isinf
                0x00000000       0x10 /Applications/microchip/xc32/v4.10/bin/bin/../../lib/gcc/pic32c/8.3.1/../../../../pic32c/lib/thumb/v8-m.base/nofp/libm-emfloat.a(lib_a-_MODF.o)
 .text.__SEGGER_RTL_float32_isfinite
                0x00000000       0x10 /Applications/microchip/xc32/v4.10/bin/bin/../../lib/gcc/pic32c/8.3.1/../../../../pic32c/lib/thumb/v8-m.base/nofp/libm-emfloat.a(lib_a-_MODF.o)
 .text.__SEGGER_RTL_float32_isnormal
                0x00000000       0x18 /Applications/microchip/xc32/v4.10/bin/bin/../../lib/gcc/pic32c/8.3.1/../../../../pic32c/lib/thumb/v8-m.base/nofp/libm-emfloat.a(lib_a-_MODF.o)
 .text.__SEGGER_RTL_float32_signbit
                0x00000000        0x4 /Applications/microchip/xc32/v4.10/bin/bin/../../lib/gcc/pic32c/8.3.1/../../../../pic32c/lib/thumb/v8-m.base/nofp/libm-emfloat.a(lib_a-_MODF.o)
 .text.__SEGGER_RTL_float32_classify
                0x00000000       0x2c /Applications/microchip/xc32/v4.10/bin/bin/../../lib/gcc/pic32c/8.3.1/../../../../pic32c/lib/thumb/v8-m.base/nofp/libm-emfloat.a(lib_a-_MODF.o)
 .text.__SEGGER_RTL_float64_isnan
                0x00000000       0x10 /Applications/microchip/xc32/v4.10/bin/bin/../../lib/gcc/pic32c/8.3.1/../../../../pic32c/lib/thumb/v8-m.base/nofp/libm-emfloat.a(lib_a-_MODF.o)
 .text.__SEGGER_RTL_float64_isinf
                0x00000000       0x10 /Applications/microchip/xc32/v4.10/bin/bin/../../lib/gcc/pic32c/8.3.1/../../../../pic32c/lib/thumb/v8-m.base/nofp/libm-emfloat.a(lib_a-_MODF.o)
 .text.__SEGGER_RTL_float64_isfinite
                0x00000000       0x10 /Applications/microchip/xc32/v4.10/bin/bin/../../lib/gcc/pic32c/8.3.1/../../../../pic32c/lib/thumb/v8-m.base/nofp/libm-emfloat.a(lib_a-_MODF.o)
 .text.__SEGGER_RTL_float64_isnormal
                0x00000000       0x24 /Applications/microchip/xc32/v4.10/bin/bin/../../lib/gcc/pic32c/8.3.1/../../../../pic32c/lib/thumb/v8-m.base/nofp/libm-emfloat.a(lib_a-_MODF.o)
 .text.__SEGGER_RTL_float64_signbit
                0x00000000        0x4 /Applications/microchip/xc32/v4.10/bin/bin/../../lib/gcc/pic32c/8.3.1/../../../../pic32c/lib/thumb/v8-m.base/nofp/libm-emfloat.a(lib_a-_MODF.o)
 .text.__SEGGER_RTL_float64_classify
                0x00000000       0x48 /Applications/microchip/xc32/v4.10/bin/bin/../../lib/gcc/pic32c/8.3.1/../../../../pic32c/lib/thumb/v8-m.base/nofp/libm-emfloat.a(lib_a-_MODF.o)
 .text.modfl    0x00000000        0x8 /Applications/microchip/xc32/v4.10/bin/bin/../../lib/gcc/pic32c/8.3.1/../../../../pic32c/lib/thumb/v8-m.base/nofp/libm-emfloat.a(lib_a-_MODF.o)
 .xc_stack_usage.hdr
                0x00000000        0xe /Applications/microchip/xc32/v4.10/bin/bin/../../lib/gcc/pic32c/8.3.1/../../../../pic32c/lib/thumb/v8-m.base/nofp/libm-emfloat.a(lib_a-_MODF.o)
 .text          0x00000000        0x0 /Applications/microchip/xc32/v4.10/bin/bin/../../lib/gcc/pic32c/8.3.1/../../../../pic32c/lib/thumb/v8-m.base/nofp/libm-emfloat.a(floatasmops_arm.o)
 .data          0x00000000        0x0 /Applications/microchip/xc32/v4.10/bin/bin/../../lib/gcc/pic32c/8.3.1/../../../../pic32c/lib/thumb/v8-m.base/nofp/libm-emfloat.a(floatasmops_arm.o)
 .bss           0x00000000        0x0 /Applications/microchip/xc32/v4.10/bin/bin/../../lib/gcc/pic32c/8.3.1/../../../../pic32c/lib/thumb/v8-m.base/nofp/libm-emfloat.a(floatasmops_arm.o)
 .rodata.__aeabi_ddiv_reciprocal_table
                0x00000000      0x180 /Applications/microchip/xc32/v4.10/bin/bin/../../lib/gcc/pic32c/8.3.1/../../../../pic32c/lib/thumb/v8-m.base/nofp/libm-emfloat.a(floatasmops_arm.o)
 .text.__aeabi_fadd
                0x00000000      0x138 /Applications/microchip/xc32/v4.10/bin/bin/../../lib/gcc/pic32c/8.3.1/../../../../pic32c/lib/thumb/v8-m.base/nofp/libm-emfloat.a(floatasmops_arm.o)
 .text.__aeabi_fsub
                0x00000000       0x10 /Applications/microchip/xc32/v4.10/bin/bin/../../lib/gcc/pic32c/8.3.1/../../../../pic32c/lib/thumb/v8-m.base/nofp/libm-emfloat.a(floatasmops_arm.o)
 .text.__aeabi_frsub
                0x00000000       0x10 /Applications/microchip/xc32/v4.10/bin/bin/../../lib/gcc/pic32c/8.3.1/../../../../pic32c/lib/thumb/v8-m.base/nofp/libm-emfloat.a(floatasmops_arm.o)
 .text.__aeabi_drsub
                0x00000000       0x14 /Applications/microchip/xc32/v4.10/bin/bin/../../lib/gcc/pic32c/8.3.1/../../../../pic32c/lib/thumb/v8-m.base/nofp/libm-emfloat.a(floatasmops_arm.o)
 .text.__aeabi_fmul
                0x00000000       0xb8 /Applications/microchip/xc32/v4.10/bin/bin/../../lib/gcc/pic32c/8.3.1/../../../../pic32c/lib/thumb/v8-m.base/nofp/libm-emfloat.a(floatasmops_arm.o)
 .text.__aeabi_fdiv
                0x00000000       0x94 /Applications/microchip/xc32/v4.10/bin/bin/../../lib/gcc/pic32c/8.3.1/../../../../pic32c/lib/thumb/v8-m.base/nofp/libm-emfloat.a(floatasmops_arm.o)
 .text.__aeabi_fcmple
                0x00000000       0x34 /Applications/microchip/xc32/v4.10/bin/bin/../../lib/gcc/pic32c/8.3.1/../../../../pic32c/lib/thumb/v8-m.base/nofp/libm-emfloat.a(floatasmops_arm.o)
 .text.__aeabi_fcmpeq
                0x00000000       0x20 /Applications/microchip/xc32/v4.10/bin/bin/../../lib/gcc/pic32c/8.3.1/../../../../pic32c/lib/thumb/v8-m.base/nofp/libm-emfloat.a(floatasmops_arm.o)
 .text.__aeabi_fcmpge
                0x00000000       0x34 /Applications/microchip/xc32/v4.10/bin/bin/../../lib/gcc/pic32c/8.3.1/../../../../pic32c/lib/thumb/v8-m.base/nofp/libm-emfloat.a(floatasmops_arm.o)
 .text.__aeabi_fcmpgt
                0x00000000       0x30 /Applications/microchip/xc32/v4.10/bin/bin/../../lib/gcc/pic32c/8.3.1/../../../../pic32c/lib/thumb/v8-m.base/nofp/libm-emfloat.a(floatasmops_arm.o)
 .text.__aeabi_fcmplt
                0x00000000       0x30 /Applications/microchip/xc32/v4.10/bin/bin/../../lib/gcc/pic32c/8.3.1/../../../../pic32c/lib/thumb/v8-m.base/nofp/libm-emfloat.a(floatasmops_arm.o)
 .text.__aeabi_fcmpun
                0x00000000       0x20 /Applications/microchip/xc32/v4.10/bin/bin/../../lib/gcc/pic32c/8.3.1/../../../../pic32c/lib/thumb/v8-m.base/nofp/libm-emfloat.a(floatasmops_arm.o)
 .text.__aeabi_dcmpun
                0x00000000       0x20 /Applications/microchip/xc32/v4.10/bin/bin/../../lib/gcc/pic32c/8.3.1/../../../../pic32c/lib/thumb/v8-m.base/nofp/libm-emfloat.a(floatasmops_arm.o)
 .text.__aeabi_cfcmpeq
                0x00000000        0x0 /Applications/microchip/xc32/v4.10/bin/bin/../../lib/gcc/pic32c/8.3.1/../../../../pic32c/lib/thumb/v8-m.base/nofp/libm-emfloat.a(floatasmops_arm.o)
 .text.__aeabi_cdcmpeq
                0x00000000       0x10 /Applications/microchip/xc32/v4.10/bin/bin/../../lib/gcc/pic32c/8.3.1/../../../../pic32c/lib/thumb/v8-m.base/nofp/libm-emfloat.a(floatasmops_arm.o)
 .text.__aeabi_cfcmple
                0x00000000       0x10 /Applications/microchip/xc32/v4.10/bin/bin/../../lib/gcc/pic32c/8.3.1/../../../../pic32c/lib/thumb/v8-m.base/nofp/libm-emfloat.a(floatasmops_arm.o)
 .text.__aeabi_cdcmple
                0x00000000       0x10 /Applications/microchip/xc32/v4.10/bin/bin/../../lib/gcc/pic32c/8.3.1/../../../../pic32c/lib/thumb/v8-m.base/nofp/libm-emfloat.a(floatasmops_arm.o)
 .text.__aeabi_cfrcmple
                0x00000000       0x18 /Applications/microchip/xc32/v4.10/bin/bin/../../lib/gcc/pic32c/8.3.1/../../../../pic32c/lib/thumb/v8-m.base/nofp/libm-emfloat.a(floatasmops_arm.o)
 .text.__aeabi_cdrcmple
                0x00000000       0x1c /Applications/microchip/xc32/v4.10/bin/bin/../../lib/gcc/pic32c/8.3.1/../../../../pic32c/lib/thumb/v8-m.base/nofp/libm-emfloat.a(floatasmops_arm.o)
 .text.__aeabi_cfcmp_impl
                0x00000000       0x36 /Applications/microchip/xc32/v4.10/bin/bin/../../lib/gcc/pic32c/8.3.1/../../../../pic32c/lib/thumb/v8-m.base/nofp/libm-emfloat.a(floatasmops_arm.o)
 .text.__aeabi_cdcmp_impl
                0x00000000       0x66 /Applications/microchip/xc32/v4.10/bin/bin/../../lib/gcc/pic32c/8.3.1/../../../../pic32c/lib/thumb/v8-m.base/nofp/libm-emfloat.a(floatasmops_arm.o)
 .text.__aeabi_f2iz
                0x00000000       0x40 /Applications/microchip/xc32/v4.10/bin/bin/../../lib/gcc/pic32c/8.3.1/../../../../pic32c/lib/thumb/v8-m.base/nofp/libm-emfloat.a(floatasmops_arm.o)
 .text.__aeabi_f2lz
                0x00000000       0x88 /Applications/microchip/xc32/v4.10/bin/bin/../../lib/gcc/pic32c/8.3.1/../../../../pic32c/lib/thumb/v8-m.base/nofp/libm-emfloat.a(floatasmops_arm.o)
 .text.__aeabi_d2lz
                0x00000000       0x70 /Applications/microchip/xc32/v4.10/bin/bin/../../lib/gcc/pic32c/8.3.1/../../../../pic32c/lib/thumb/v8-m.base/nofp/libm-emfloat.a(floatasmops_arm.o)
 .text.__aeabi_f2uiz
                0x00000000       0x24 /Applications/microchip/xc32/v4.10/bin/bin/../../lib/gcc/pic32c/8.3.1/../../../../pic32c/lib/thumb/v8-m.base/nofp/libm-emfloat.a(floatasmops_arm.o)
 .text.__aeabi_f2ulz
                0x00000000       0x40 /Applications/microchip/xc32/v4.10/bin/bin/../../lib/gcc/pic32c/8.3.1/../../../../pic32c/lib/thumb/v8-m.base/nofp/libm-emfloat.a(floatasmops_arm.o)
 .text.__aeabi_i2f
                0x00000000       0x28 /Applications/microchip/xc32/v4.10/bin/bin/../../lib/gcc/pic32c/8.3.1/../../../../pic32c/lib/thumb/v8-m.base/nofp/libm-emfloat.a(floatasmops_arm.o)
 .text.__aeabi_l2f
                0x00000000       0x24 /Applications/microchip/xc32/v4.10/bin/bin/../../lib/gcc/pic32c/8.3.1/../../../../pic32c/lib/thumb/v8-m.base/nofp/libm-emfloat.a(floatasmops_arm.o)
 .text.__aeabi_l2d
                0x00000000       0x5c /Applications/microchip/xc32/v4.10/bin/bin/../../lib/gcc/pic32c/8.3.1/../../../../pic32c/lib/thumb/v8-m.base/nofp/libm-emfloat.a(floatasmops_arm.o)
 .text.__aeabi_ui2f
                0x00000000       0x20 /Applications/microchip/xc32/v4.10/bin/bin/../../lib/gcc/pic32c/8.3.1/../../../../pic32c/lib/thumb/v8-m.base/nofp/libm-emfloat.a(floatasmops_arm.o)
 .text.__aeabi_ul2f
                0x00000000       0x34 /Applications/microchip/xc32/v4.10/bin/bin/../../lib/gcc/pic32c/8.3.1/../../../../pic32c/lib/thumb/v8-m.base/nofp/libm-emfloat.a(floatasmops_arm.o)
 .text.__aeabi_ul2d
                0x00000000       0x1c /Applications/microchip/xc32/v4.10/bin/bin/../../lib/gcc/pic32c/8.3.1/../../../../pic32c/lib/thumb/v8-m.base/nofp/libm-emfloat.a(floatasmops_arm.o)
 .text.__aeabi_f2d
                0x00000000       0x44 /Applications/microchip/xc32/v4.10/bin/bin/../../lib/gcc/pic32c/8.3.1/../../../../pic32c/lib/thumb/v8-m.base/nofp/libm-emfloat.a(floatasmops_arm.o)
 .xc_stack_usage.hdr
                0x00000000        0xe /Applications/microchip/xc32/v4.10/bin/bin/../../lib/gcc/pic32c/8.3.1/../../../../pic32c/lib/thumb/v8-m.base/nofp/libm-emfloat.a(floatasmops_arm.o)
 .xc_stack_usage
                0x00000000      0x5ce /Applications/microchip/xc32/v4.10/bin/bin/../../lib/gcc/pic32c/8.3.1/../../../../pic32c/lib/thumb/v8-m.base/nofp/libm-emfloat.a(floatasmops_arm.o)
 .text          0x00000000        0x0 /Applications/microchip/xc32/v4.10/bin/bin/../../lib/gcc/pic32c/8.3.1/../../../../pic32c/lib/thumb/v8-m.base/nofp/libm-emfloat.a(lib_a-_ILOGB.o)
 .data          0x00000000        0x0 /Applications/microchip/xc32/v4.10/bin/bin/../../lib/gcc/pic32c/8.3.1/../../../../pic32c/lib/thumb/v8-m.base/nofp/libm-emfloat.a(lib_a-_ILOGB.o)
 .bss           0x00000000        0x0 /Applications/microchip/xc32/v4.10/bin/bin/../../lib/gcc/pic32c/8.3.1/../../../../pic32c/lib/thumb/v8-m.base/nofp/libm-emfloat.a(lib_a-_ILOGB.o)
 .xc_stack_usage
                0x00000000      0x298 /Applications/microchip/xc32/v4.10/bin/bin/../../lib/gcc/pic32c/8.3.1/../../../../pic32c/lib/thumb/v8-m.base/nofp/libm-emfloat.a(lib_a-_ILOGB.o)
 .text.__SEGGER_RTL_float64_cmplx
                0x00000000       0x14 /Applications/microchip/xc32/v4.10/bin/bin/../../lib/gcc/pic32c/8.3.1/../../../../pic32c/lib/thumb/v8-m.base/nofp/libm-emfloat.a(lib_a-_ILOGB.o)
 .text.__mulsc3
                0x00000000      0x24c /Applications/microchip/xc32/v4.10/bin/bin/../../lib/gcc/pic32c/8.3.1/../../../../pic32c/lib/thumb/v8-m.base/nofp/libm-emfloat.a(lib_a-_ILOGB.o)
 .text.__SEGGER_RTL_float32_isnan
                0x00000000       0x10 /Applications/microchip/xc32/v4.10/bin/bin/../../lib/gcc/pic32c/8.3.1/../../../../pic32c/lib/thumb/v8-m.base/nofp/libm-emfloat.a(lib_a-_ILOGB.o)
 .text.__SEGGER_RTL_float32_isinf
                0x00000000       0x10 /Applications/microchip/xc32/v4.10/bin/bin/../../lib/gcc/pic32c/8.3.1/../../../../pic32c/lib/thumb/v8-m.base/nofp/libm-emfloat.a(lib_a-_ILOGB.o)
 .text.__SEGGER_RTL_float32_isfinite
                0x00000000       0x10 /Applications/microchip/xc32/v4.10/bin/bin/../../lib/gcc/pic32c/8.3.1/../../../../pic32c/lib/thumb/v8-m.base/nofp/libm-emfloat.a(lib_a-_ILOGB.o)
 .text.__SEGGER_RTL_float32_isnormal
                0x00000000       0x18 /Applications/microchip/xc32/v4.10/bin/bin/../../lib/gcc/pic32c/8.3.1/../../../../pic32c/lib/thumb/v8-m.base/nofp/libm-emfloat.a(lib_a-_ILOGB.o)
 .text.__SEGGER_RTL_float32_signbit
                0x00000000        0x4 /Applications/microchip/xc32/v4.10/bin/bin/../../lib/gcc/pic32c/8.3.1/../../../../pic32c/lib/thumb/v8-m.base/nofp/libm-emfloat.a(lib_a-_ILOGB.o)
 .text.__SEGGER_RTL_float32_classify
                0x00000000       0x2c /Applications/microchip/xc32/v4.10/bin/bin/../../lib/gcc/pic32c/8.3.1/../../../../pic32c/lib/thumb/v8-m.base/nofp/libm-emfloat.a(lib_a-_ILOGB.o)
 .text.__SEGGER_RTL_float64_isnan
                0x00000000       0x10 /Applications/microchip/xc32/v4.10/bin/bin/../../lib/gcc/pic32c/8.3.1/../../../../pic32c/lib/thumb/v8-m.base/nofp/libm-emfloat.a(lib_a-_ILOGB.o)
 .text.__SEGGER_RTL_float64_isinf
                0x00000000       0x10 /Applications/microchip/xc32/v4.10/bin/bin/../../lib/gcc/pic32c/8.3.1/../../../../pic32c/lib/thumb/v8-m.base/nofp/libm-emfloat.a(lib_a-_ILOGB.o)
 .text.__SEGGER_RTL_float64_isfinite
                0x00000000       0x10 /Applications/microchip/xc32/v4.10/bin/bin/../../lib/gcc/pic32c/8.3.1/../../../../pic32c/lib/thumb/v8-m.base/nofp/libm-emfloat.a(lib_a-_ILOGB.o)
 .text.__SEGGER_RTL_float64_isnormal
                0x00000000       0x24 /Applications/microchip/xc32/v4.10/bin/bin/../../lib/gcc/pic32c/8.3.1/../../../../pic32c/lib/thumb/v8-m.base/nofp/libm-emfloat.a(lib_a-_ILOGB.o)
 .text.__SEGGER_RTL_float64_signbit
                0x00000000        0x4 /Applications/microchip/xc32/v4.10/bin/bin/../../lib/gcc/pic32c/8.3.1/../../../../pic32c/lib/thumb/v8-m.base/nofp/libm-emfloat.a(lib_a-_ILOGB.o)
 .text.__SEGGER_RTL_float64_classify
                0x00000000       0x48 /Applications/microchip/xc32/v4.10/bin/bin/../../lib/gcc/pic32c/8.3.1/../../../../pic32c/lib/thumb/v8-m.base/nofp/libm-emfloat.a(lib_a-_ILOGB.o)
 .text.ilogb    0x00000000       0x3c /Applications/microchip/xc32/v4.10/bin/bin/../../lib/gcc/pic32c/8.3.1/../../../../pic32c/lib/thumb/v8-m.base/nofp/libm-emfloat.a(lib_a-_ILOGB.o)
 .text.__SEGGER_RTL_float64_cdiv
                0x00000000      0x2b4 /Applications/microchip/xc32/v4.10/bin/bin/../../lib/gcc/pic32c/8.3.1/../../../../pic32c/lib/thumb/v8-m.base/nofp/libm-emfloat.a(lib_a-_ILOGB.o)
 .text.__divdc3
                0x00000000       0x40 /Applications/microchip/xc32/v4.10/bin/bin/../../lib/gcc/pic32c/8.3.1/../../../../pic32c/lib/thumb/v8-m.base/nofp/libm-emfloat.a(lib_a-_ILOGB.o)
 .text.ilogbl   0x00000000        0x8 /Applications/microchip/xc32/v4.10/bin/bin/../../lib/gcc/pic32c/8.3.1/../../../../pic32c/lib/thumb/v8-m.base/nofp/libm-emfloat.a(lib_a-_ILOGB.o)
 .xc_stack_usage.hdr
                0x00000000        0xe /Applications/microchip/xc32/v4.10/bin/bin/../../lib/gcc/pic32c/8.3.1/../../../../pic32c/lib/thumb/v8-m.base/nofp/libm-emfloat.a(lib_a-_ILOGB.o)
 .comment       0x00000000       0x2c /Applications/microchip/xc32/v4.10/bin/bin/../../lib/gcc/pic32c/8.3.1/../../../../pic32c/lib/thumb/v8-m.base/nofp/libm-emfloat.a(lib_a-_ILOGB.o)
 .ARM.attributes
                0x00000000       0x30 /Applications/microchip/xc32/v4.10/bin/bin/../../lib/gcc/pic32c/8.3.1/../../../../pic32c/lib/thumb/v8-m.base/nofp/libm-emfloat.a(lib_a-_ILOGB.o)
 .text          0x00000000        0x0 /Applications/microchip/xc32/v4.10/bin/bin/../../lib/gcc/pic32c/8.3.1/../../../../pic32c/lib/thumb/v8-m.base/nofp/libm-emfloat.a(lib_a-_LDEXP.o)
 .data          0x00000000        0x0 /Applications/microchip/xc32/v4.10/bin/bin/../../lib/gcc/pic32c/8.3.1/../../../../pic32c/lib/thumb/v8-m.base/nofp/libm-emfloat.a(lib_a-_LDEXP.o)
 .bss           0x00000000        0x0 /Applications/microchip/xc32/v4.10/bin/bin/../../lib/gcc/pic32c/8.3.1/../../../../pic32c/lib/thumb/v8-m.base/nofp/libm-emfloat.a(lib_a-_LDEXP.o)
 .xc_stack_usage
                0x00000000      0x298 /Applications/microchip/xc32/v4.10/bin/bin/../../lib/gcc/pic32c/8.3.1/../../../../pic32c/lib/thumb/v8-m.base/nofp/libm-emfloat.a(lib_a-_LDEXP.o)
 .text.__SEGGER_RTL_float64_cmplx
                0x00000000       0x14 /Applications/microchip/xc32/v4.10/bin/bin/../../lib/gcc/pic32c/8.3.1/../../../../pic32c/lib/thumb/v8-m.base/nofp/libm-emfloat.a(lib_a-_LDEXP.o)
 .text.__mulsc3
                0x00000000      0x24c /Applications/microchip/xc32/v4.10/bin/bin/../../lib/gcc/pic32c/8.3.1/../../../../pic32c/lib/thumb/v8-m.base/nofp/libm-emfloat.a(lib_a-_LDEXP.o)
 .text.__SEGGER_RTL_float32_isnan
                0x00000000       0x10 /Applications/microchip/xc32/v4.10/bin/bin/../../lib/gcc/pic32c/8.3.1/../../../../pic32c/lib/thumb/v8-m.base/nofp/libm-emfloat.a(lib_a-_LDEXP.o)
 .text.__SEGGER_RTL_float32_isinf
                0x00000000       0x10 /Applications/microchip/xc32/v4.10/bin/bin/../../lib/gcc/pic32c/8.3.1/../../../../pic32c/lib/thumb/v8-m.base/nofp/libm-emfloat.a(lib_a-_LDEXP.o)
 .text.__SEGGER_RTL_float32_isfinite
                0x00000000       0x10 /Applications/microchip/xc32/v4.10/bin/bin/../../lib/gcc/pic32c/8.3.1/../../../../pic32c/lib/thumb/v8-m.base/nofp/libm-emfloat.a(lib_a-_LDEXP.o)
 .text.__SEGGER_RTL_float32_isnormal
                0x00000000       0x18 /Applications/microchip/xc32/v4.10/bin/bin/../../lib/gcc/pic32c/8.3.1/../../../../pic32c/lib/thumb/v8-m.base/nofp/libm-emfloat.a(lib_a-_LDEXP.o)
 .text.__SEGGER_RTL_float32_signbit
                0x00000000        0x4 /Applications/microchip/xc32/v4.10/bin/bin/../../lib/gcc/pic32c/8.3.1/../../../../pic32c/lib/thumb/v8-m.base/nofp/libm-emfloat.a(lib_a-_LDEXP.o)
 .text.__SEGGER_RTL_float32_classify
                0x00000000       0x2c /Applications/microchip/xc32/v4.10/bin/bin/../../lib/gcc/pic32c/8.3.1/../../../../pic32c/lib/thumb/v8-m.base/nofp/libm-emfloat.a(lib_a-_LDEXP.o)
 .text.__SEGGER_RTL_float64_isnan
                0x00000000       0x10 /Applications/microchip/xc32/v4.10/bin/bin/../../lib/gcc/pic32c/8.3.1/../../../../pic32c/lib/thumb/v8-m.base/nofp/libm-emfloat.a(lib_a-_LDEXP.o)
 .text.__SEGGER_RTL_float64_isinf
                0x00000000       0x10 /Applications/microchip/xc32/v4.10/bin/bin/../../lib/gcc/pic32c/8.3.1/../../../../pic32c/lib/thumb/v8-m.base/nofp/libm-emfloat.a(lib_a-_LDEXP.o)
 .text.__SEGGER_RTL_float64_isfinite
                0x00000000       0x10 /Applications/microchip/xc32/v4.10/bin/bin/../../lib/gcc/pic32c/8.3.1/../../../../pic32c/lib/thumb/v8-m.base/nofp/libm-emfloat.a(lib_a-_LDEXP.o)
 .text.__SEGGER_RTL_float64_isnormal
                0x00000000       0x24 /Applications/microchip/xc32/v4.10/bin/bin/../../lib/gcc/pic32c/8.3.1/../../../../pic32c/lib/thumb/v8-m.base/nofp/libm-emfloat.a(lib_a-_LDEXP.o)
 .text.__SEGGER_RTL_float64_signbit
                0x00000000        0x4 /Applications/microchip/xc32/v4.10/bin/bin/../../lib/gcc/pic32c/8.3.1/../../../../pic32c/lib/thumb/v8-m.base/nofp/libm-emfloat.a(lib_a-_LDEXP.o)
 .text.__SEGGER_RTL_float64_classify
                0x00000000       0x48 /Applications/microchip/xc32/v4.10/bin/bin/../../lib/gcc/pic32c/8.3.1/../../../../pic32c/lib/thumb/v8-m.base/nofp/libm-emfloat.a(lib_a-_LDEXP.o)
 .text.ldexp    0x00000000       0x50 /Applications/microchip/xc32/v4.10/bin/bin/../../lib/gcc/pic32c/8.3.1/../../../../pic32c/lib/thumb/v8-m.base/nofp/libm-emfloat.a(lib_a-_LDEXP.o)
 .text.__SEGGER_RTL_float64_cdiv
                0x00000000      0x2b4 /Applications/microchip/xc32/v4.10/bin/bin/../../lib/gcc/pic32c/8.3.1/../../../../pic32c/lib/thumb/v8-m.base/nofp/libm-emfloat.a(lib_a-_LDEXP.o)
 .text.__divdc3
                0x00000000       0x40 /Applications/microchip/xc32/v4.10/bin/bin/../../lib/gcc/pic32c/8.3.1/../../../../pic32c/lib/thumb/v8-m.base/nofp/libm-emfloat.a(lib_a-_LDEXP.o)
 .text.ldexpl   0x00000000        0x8 /Applications/microchip/xc32/v4.10/bin/bin/../../lib/gcc/pic32c/8.3.1/../../../../pic32c/lib/thumb/v8-m.base/nofp/libm-emfloat.a(lib_a-_LDEXP.o)
 .xc_stack_usage.hdr
                0x00000000        0xe /Applications/microchip/xc32/v4.10/bin/bin/../../lib/gcc/pic32c/8.3.1/../../../../pic32c/lib/thumb/v8-m.base/nofp/libm-emfloat.a(lib_a-_LDEXP.o)
 .comment       0x00000000       0x2c /Applications/microchip/xc32/v4.10/bin/bin/../../lib/gcc/pic32c/8.3.1/../../../../pic32c/lib/thumb/v8-m.base/nofp/libm-emfloat.a(lib_a-_LDEXP.o)
 .ARM.attributes
                0x00000000       0x30 /Applications/microchip/xc32/v4.10/bin/bin/../../lib/gcc/pic32c/8.3.1/../../../../pic32c/lib/thumb/v8-m.base/nofp/libm-emfloat.a(lib_a-_LDEXP.o)
 .text          0x00000000        0x0 /Applications/microchip/xc32/v4.10/bin/bin/../../lib/gcc/pic32c/8.3.1/../../../../pic32c/lib/thumb/v8-m.base/nofp/libg-musl.a(isxdigit.o)
 .data          0x00000000        0x0 /Applications/microchip/xc32/v4.10/bin/bin/../../lib/gcc/pic32c/8.3.1/../../../../pic32c/lib/thumb/v8-m.base/nofp/libg-musl.a(isxdigit.o)
 .bss           0x00000000        0x0 /Applications/microchip/xc32/v4.10/bin/bin/../../lib/gcc/pic32c/8.3.1/../../../../pic32c/lib/thumb/v8-m.base/nofp/libg-musl.a(isxdigit.o)
 .xc_stack_usage
                0x00000000       0x30 /Applications/microchip/xc32/v4.10/bin/bin/../../lib/gcc/pic32c/8.3.1/../../../../pic32c/lib/thumb/v8-m.base/nofp/libg-musl.a(isxdigit.o)
 .text.__isxdigit_l
                0x00000000        0x8 /Applications/microchip/xc32/v4.10/bin/bin/../../lib/gcc/pic32c/8.3.1/../../../../pic32c/lib/thumb/v8-m.base/nofp/libg-musl.a(isxdigit.o)
 .xc_stack_usage.hdr
                0x00000000        0xe /Applications/microchip/xc32/v4.10/bin/bin/../../lib/gcc/pic32c/8.3.1/../../../../pic32c/lib/thumb/v8-m.base/nofp/libg-musl.a(isxdigit.o)
 .text          0x00000000        0x0 /Applications/microchip/xc32/v4.10/bin/bin/../../lib/gcc/pic32c/8.3.1/../../../../pic32c/lib/thumb/v8-m.base/nofp/libg-musl.a(__libc_start_main.o)
 .data          0x00000000        0x0 /Applications/microchip/xc32/v4.10/bin/bin/../../lib/gcc/pic32c/8.3.1/../../../../pic32c/lib/thumb/v8-m.base/nofp/libg-musl.a(__libc_start_main.o)
 .bss           0x00000000        0x0 /Applications/microchip/xc32/v4.10/bin/bin/../../lib/gcc/pic32c/8.3.1/../../../../pic32c/lib/thumb/v8-m.base/nofp/libg-musl.a(__libc_start_main.o)
 .xc_stack_usage
                0x00000000       0x34 /Applications/microchip/xc32/v4.10/bin/bin/../../lib/gcc/pic32c/8.3.1/../../../../pic32c/lib/thumb/v8-m.base/nofp/libg-musl.a(__libc_start_main.o)
 .xc_stack_usage.hdr
                0x00000000        0xe /Applications/microchip/xc32/v4.10/bin/bin/../../lib/gcc/pic32c/8.3.1/../../../../pic32c/lib/thumb/v8-m.base/nofp/libg-musl.a(__libc_start_main.o)
 .text          0x00000000        0x0 /Applications/microchip/xc32/v4.10/bin/bin/../../lib/gcc/pic32c/8.3.1/../../../../pic32c/lib/thumb/v8-m.base/nofp/libg-musl.a(exit.o)
 .data          0x00000000        0x0 /Applications/microchip/xc32/v4.10/bin/bin/../../lib/gcc/pic32c/8.3.1/../../../../pic32c/lib/thumb/v8-m.base/nofp/libg-musl.a(exit.o)
 .bss           0x00000000        0x0 /Applications/microchip/xc32/v4.10/bin/bin/../../lib/gcc/pic32c/8.3.1/../../../../pic32c/lib/thumb/v8-m.base/nofp/libg-musl.a(exit.o)
 .xc_stack_usage
                0x00000000       0x41 /Applications/microchip/xc32/v4.10/bin/bin/../../lib/gcc/pic32c/8.3.1/../../../../pic32c/lib/thumb/v8-m.base/nofp/libg-musl.a(exit.o)
 .xc_stack_usage.hdr
                0x00000000        0xe /Applications/microchip/xc32/v4.10/bin/bin/../../lib/gcc/pic32c/8.3.1/../../../../pic32c/lib/thumb/v8-m.base/nofp/libg-musl.a(exit.o)
 .text          0x00000000        0x0 /Applications/microchip/xc32/v4.10/bin/bin/../../lib/gcc/pic32c/8.3.1/../../../../pic32c/lib/thumb/v8-m.base/nofp/libg-musl.a(libc.o)
 .data          0x00000000        0x0 /Applications/microchip/xc32/v4.10/bin/bin/../../lib/gcc/pic32c/8.3.1/../../../../pic32c/lib/thumb/v8-m.base/nofp/libg-musl.a(libc.o)
 .xc_stack_usage.hdr
                0x00000000        0xe /Applications/microchip/xc32/v4.10/bin/bin/../../lib/gcc/pic32c/8.3.1/../../../../pic32c/lib/thumb/v8-m.base/nofp/libg-musl.a(libc.o)
 .text          0x00000000        0x0 /Applications/microchip/xc32/v4.10/bin/bin/../../lib/gcc/pic32c/8.3.1/../../../../pic32c/lib/thumb/v8-m.base/nofp/libg-musl.a(malloc.o)
 .data          0x00000000        0x0 /Applications/microchip/xc32/v4.10/bin/bin/../../lib/gcc/pic32c/8.3.1/../../../../pic32c/lib/thumb/v8-m.base/nofp/libg-musl.a(malloc.o)
 .xc_stack_usage
                0x00000000       0xeb /Applications/microchip/xc32/v4.10/bin/bin/../../lib/gcc/pic32c/8.3.1/../../../../pic32c/lib/thumb/v8-m.base/nofp/libg-musl.a(malloc.o)
 .text.__malloc0
                0x00000000       0x26 /Applications/microchip/xc32/v4.10/bin/bin/../../lib/gcc/pic32c/8.3.1/../../../../pic32c/lib/thumb/v8-m.base/nofp/libg-musl.a(malloc.o)
 .text.realloc  0x00000000       0x8a /Applications/microchip/xc32/v4.10/bin/bin/../../lib/gcc/pic32c/8.3.1/../../../../pic32c/lib/thumb/v8-m.base/nofp/libg-musl.a(malloc.o)
 .xc_stack_usage.hdr
                0x00000000        0xe /Applications/microchip/xc32/v4.10/bin/bin/../../lib/gcc/pic32c/8.3.1/../../../../pic32c/lib/thumb/v8-m.base/nofp/libg-musl.a(malloc.o)
 .text          0x00000000        0x0 /Applications/microchip/xc32/v4.10/bin/bin/../../lib/gcc/pic32c/8.3.1/../../../../pic32c/lib/thumb/v8-m.base/nofp/libg-musl.a(expand_heap.o)
 .data          0x00000000        0x0 /Applications/microchip/xc32/v4.10/bin/bin/../../lib/gcc/pic32c/8.3.1/../../../../pic32c/lib/thumb/v8-m.base/nofp/libg-musl.a(expand_heap.o)
 .bss           0x00000000        0x0 /Applications/microchip/xc32/v4.10/bin/bin/../../lib/gcc/pic32c/8.3.1/../../../../pic32c/lib/thumb/v8-m.base/nofp/libg-musl.a(expand_heap.o)
 .xc_stack_usage
                0x00000000       0x1b /Applications/microchip/xc32/v4.10/bin/bin/../../lib/gcc/pic32c/8.3.1/../../../../pic32c/lib/thumb/v8-m.base/nofp/libg-musl.a(expand_heap.o)
 .xc_stack_usage.hdr
                0x00000000        0xe /Applications/microchip/xc32/v4.10/bin/bin/../../lib/gcc/pic32c/8.3.1/../../../../pic32c/lib/thumb/v8-m.base/nofp/libg-musl.a(expand_heap.o)
 .text          0x00000000        0x0 /Applications/microchip/xc32/v4.10/bin/bin/../../lib/gcc/pic32c/8.3.1/../../../../pic32c/lib/thumb/v8-m.base/nofp/libg-musl.a(__sio_fprintf_dfosux.o)
 .data          0x00000000        0x0 /Applications/microchip/xc32/v4.10/bin/bin/../../lib/gcc/pic32c/8.3.1/../../../../pic32c/lib/thumb/v8-m.base/nofp/libg-musl.a(__sio_fprintf_dfosux.o)
 .bss           0x00000000        0x0 /Applications/microchip/xc32/v4.10/bin/bin/../../lib/gcc/pic32c/8.3.1/../../../../pic32c/lib/thumb/v8-m.base/nofp/libg-musl.a(__sio_fprintf_dfosux.o)
 .xc_stack_usage
                0x00000000       0x3e /Applications/microchip/xc32/v4.10/bin/bin/../../lib/gcc/pic32c/8.3.1/../../../../pic32c/lib/thumb/v8-m.base/nofp/libg-musl.a(__sio_fprintf_dfosux.o)
 .text.__wrap_fprintf
                0x00000000       0x16 /Applications/microchip/xc32/v4.10/bin/bin/../../lib/gcc/pic32c/8.3.1/../../../../pic32c/lib/thumb/v8-m.base/nofp/libg-musl.a(__sio_fprintf_dfosux.o)
 .text.__sio_fprintf_dfosux
                0x00000000       0x1c /Applications/microchip/xc32/v4.10/bin/bin/../../lib/gcc/pic32c/8.3.1/../../../../pic32c/lib/thumb/v8-m.base/nofp/libg-musl.a(__sio_fprintf_dfosux.o)
 .xc_stack_usage.hdr
                0x00000000        0xe /Applications/microchip/xc32/v4.10/bin/bin/../../lib/gcc/pic32c/8.3.1/../../../../pic32c/lib/thumb/v8-m.base/nofp/libg-musl.a(__sio_fprintf_dfosux.o)
 .debug_info    0x00000000      0x48c /Applications/microchip/xc32/v4.10/bin/bin/../../lib/gcc/pic32c/8.3.1/../../../../pic32c/lib/thumb/v8-m.base/nofp/libg-musl.a(__sio_fprintf_dfosux.o)
 .debug_abbrev  0x00000000      0x138 /Applications/microchip/xc32/v4.10/bin/bin/../../lib/gcc/pic32c/8.3.1/../../../../pic32c/lib/thumb/v8-m.base/nofp/libg-musl.a(__sio_fprintf_dfosux.o)
 .debug_loc     0x00000000       0x86 /Applications/microchip/xc32/v4.10/bin/bin/../../lib/gcc/pic32c/8.3.1/../../../../pic32c/lib/thumb/v8-m.base/nofp/libg-musl.a(__sio_fprintf_dfosux.o)
 .debug_aranges
                0x00000000       0x28 /Applications/microchip/xc32/v4.10/bin/bin/../../lib/gcc/pic32c/8.3.1/../../../../pic32c/lib/thumb/v8-m.base/nofp/libg-musl.a(__sio_fprintf_dfosux.o)
 .debug_ranges  0x00000000       0x18 /Applications/microchip/xc32/v4.10/bin/bin/../../lib/gcc/pic32c/8.3.1/../../../../pic32c/lib/thumb/v8-m.base/nofp/libg-musl.a(__sio_fprintf_dfosux.o)
 .debug_line    0x00000000      0x1bb /Applications/microchip/xc32/v4.10/bin/bin/../../lib/gcc/pic32c/8.3.1/../../../../pic32c/lib/thumb/v8-m.base/nofp/libg-musl.a(__sio_fprintf_dfosux.o)
 .debug_str     0x00000000       0x65 /Applications/microchip/xc32/v4.10/bin/bin/../../lib/gcc/pic32c/8.3.1/../../../../pic32c/lib/thumb/v8-m.base/nofp/libg-musl.a(__sio_fprintf_dfosux.o)
 .comment       0x00000000       0x2c /Applications/microchip/xc32/v4.10/bin/bin/../../lib/gcc/pic32c/8.3.1/../../../../pic32c/lib/thumb/v8-m.base/nofp/libg-musl.a(__sio_fprintf_dfosux.o)
 .note.GNU-stack
                0x00000000        0x0 /Applications/microchip/xc32/v4.10/bin/bin/../../lib/gcc/pic32c/8.3.1/../../../../pic32c/lib/thumb/v8-m.base/nofp/libg-musl.a(__sio_fprintf_dfosux.o)
 .debug_frame   0x00000000       0x44 /Applications/microchip/xc32/v4.10/bin/bin/../../lib/gcc/pic32c/8.3.1/../../../../pic32c/lib/thumb/v8-m.base/nofp/libg-musl.a(__sio_fprintf_dfosux.o)
 .ARM.attributes
                0x00000000       0x32 /Applications/microchip/xc32/v4.10/bin/bin/../../lib/gcc/pic32c/8.3.1/../../../../pic32c/lib/thumb/v8-m.base/nofp/libg-musl.a(__sio_fprintf_dfosux.o)
 .text          0x00000000        0x0 /Applications/microchip/xc32/v4.10/bin/bin/../../lib/gcc/pic32c/8.3.1/../../../../pic32c/lib/thumb/v8-m.base/nofp/libg-musl.a(__sio_printf_dfosux.o)
 .data          0x00000000        0x0 /Applications/microchip/xc32/v4.10/bin/bin/../../lib/gcc/pic32c/8.3.1/../../../../pic32c/lib/thumb/v8-m.base/nofp/libg-musl.a(__sio_printf_dfosux.o)
 .bss           0x00000000        0x0 /Applications/microchip/xc32/v4.10/bin/bin/../../lib/gcc/pic32c/8.3.1/../../../../pic32c/lib/thumb/v8-m.base/nofp/libg-musl.a(__sio_printf_dfosux.o)
 .xc_stack_usage
                0x00000000       0x3c /Applications/microchip/xc32/v4.10/bin/bin/../../lib/gcc/pic32c/8.3.1/../../../../pic32c/lib/thumb/v8-m.base/nofp/libg-musl.a(__sio_printf_dfosux.o)
 .text.__wrap_printf
                0x00000000       0x20 /Applications/microchip/xc32/v4.10/bin/bin/../../lib/gcc/pic32c/8.3.1/../../../../pic32c/lib/thumb/v8-m.base/nofp/libg-musl.a(__sio_printf_dfosux.o)
 .text.__sio_printf_dfosux
                0x00000000       0x1c /Applications/microchip/xc32/v4.10/bin/bin/../../lib/gcc/pic32c/8.3.1/../../../../pic32c/lib/thumb/v8-m.base/nofp/libg-musl.a(__sio_printf_dfosux.o)
 .xc_stack_usage.hdr
                0x00000000        0xe /Applications/microchip/xc32/v4.10/bin/bin/../../lib/gcc/pic32c/8.3.1/../../../../pic32c/lib/thumb/v8-m.base/nofp/libg-musl.a(__sio_printf_dfosux.o)
 .debug_info    0x00000000      0x48d /Applications/microchip/xc32/v4.10/bin/bin/../../lib/gcc/pic32c/8.3.1/../../../../pic32c/lib/thumb/v8-m.base/nofp/libg-musl.a(__sio_printf_dfosux.o)
 .debug_abbrev  0x00000000      0x137 /Applications/microchip/xc32/v4.10/bin/bin/../../lib/gcc/pic32c/8.3.1/../../../../pic32c/lib/thumb/v8-m.base/nofp/libg-musl.a(__sio_printf_dfosux.o)
 .debug_loc     0x00000000       0x61 /Applications/microchip/xc32/v4.10/bin/bin/../../lib/gcc/pic32c/8.3.1/../../../../pic32c/lib/thumb/v8-m.base/nofp/libg-musl.a(__sio_printf_dfosux.o)
 .debug_aranges
                0x00000000       0x28 /Applications/microchip/xc32/v4.10/bin/bin/../../lib/gcc/pic32c/8.3.1/../../../../pic32c/lib/thumb/v8-m.base/nofp/libg-musl.a(__sio_printf_dfosux.o)
 .debug_ranges  0x00000000       0x18 /Applications/microchip/xc32/v4.10/bin/bin/../../lib/gcc/pic32c/8.3.1/../../../../pic32c/lib/thumb/v8-m.base/nofp/libg-musl.a(__sio_printf_dfosux.o)
 .debug_line    0x00000000      0x1d2 /Applications/microchip/xc32/v4.10/bin/bin/../../lib/gcc/pic32c/8.3.1/../../../../pic32c/lib/thumb/v8-m.base/nofp/libg-musl.a(__sio_printf_dfosux.o)
 .debug_str     0x00000000       0x65 /Applications/microchip/xc32/v4.10/bin/bin/../../lib/gcc/pic32c/8.3.1/../../../../pic32c/lib/thumb/v8-m.base/nofp/libg-musl.a(__sio_printf_dfosux.o)
 .comment       0x00000000       0x2c /Applications/microchip/xc32/v4.10/bin/bin/../../lib/gcc/pic32c/8.3.1/../../../../pic32c/lib/thumb/v8-m.base/nofp/libg-musl.a(__sio_printf_dfosux.o)
 .note.GNU-stack
                0x00000000        0x0 /Applications/microchip/xc32/v4.10/bin/bin/../../lib/gcc/pic32c/8.3.1/../../../../pic32c/lib/thumb/v8-m.base/nofp/libg-musl.a(__sio_printf_dfosux.o)
 .debug_frame   0x00000000       0x48 /Applications/microchip/xc32/v4.10/bin/bin/../../lib/gcc/pic32c/8.3.1/../../../../pic32c/lib/thumb/v8-m.base/nofp/libg-musl.a(__sio_printf_dfosux.o)
 .ARM.attributes
                0x00000000       0x32 /Applications/microchip/xc32/v4.10/bin/bin/../../lib/gcc/pic32c/8.3.1/../../../../pic32c/lib/thumb/v8-m.base/nofp/libg-musl.a(__sio_printf_dfosux.o)
 .text          0x00000000        0x0 /Applications/microchip/xc32/v4.10/bin/bin/../../lib/gcc/pic32c/8.3.1/../../../../pic32c/lib/thumb/v8-m.base/nofp/libg-musl.a(__sio_snprintf_dfosux.o)
 .data          0x00000000        0x0 /Applications/microchip/xc32/v4.10/bin/bin/../../lib/gcc/pic32c/8.3.1/../../../../pic32c/lib/thumb/v8-m.base/nofp/libg-musl.a(__sio_snprintf_dfosux.o)
 .bss           0x00000000        0x0 /Applications/microchip/xc32/v4.10/bin/bin/../../lib/gcc/pic32c/8.3.1/../../../../pic32c/lib/thumb/v8-m.base/nofp/libg-musl.a(__sio_snprintf_dfosux.o)
 .xc_stack_usage
                0x00000000       0x40 /Applications/microchip/xc32/v4.10/bin/bin/../../lib/gcc/pic32c/8.3.1/../../../../pic32c/lib/thumb/v8-m.base/nofp/libg-musl.a(__sio_snprintf_dfosux.o)
 .text.__wrap_snprintf
                0x00000000       0x16 /Applications/microchip/xc32/v4.10/bin/bin/../../lib/gcc/pic32c/8.3.1/../../../../pic32c/lib/thumb/v8-m.base/nofp/libg-musl.a(__sio_snprintf_dfosux.o)
 .text.__sio_snprintf_dfosux
                0x00000000       0x1c /Applications/microchip/xc32/v4.10/bin/bin/../../lib/gcc/pic32c/8.3.1/../../../../pic32c/lib/thumb/v8-m.base/nofp/libg-musl.a(__sio_snprintf_dfosux.o)
 .xc_stack_usage.hdr
                0x00000000        0xe /Applications/microchip/xc32/v4.10/bin/bin/../../lib/gcc/pic32c/8.3.1/../../../../pic32c/lib/thumb/v8-m.base/nofp/libg-musl.a(__sio_snprintf_dfosux.o)
 .debug_info    0x00000000      0x49e /Applications/microchip/xc32/v4.10/bin/bin/../../lib/gcc/pic32c/8.3.1/../../../../pic32c/lib/thumb/v8-m.base/nofp/libg-musl.a(__sio_snprintf_dfosux.o)
 .debug_abbrev  0x00000000      0x120 /Applications/microchip/xc32/v4.10/bin/bin/../../lib/gcc/pic32c/8.3.1/../../../../pic32c/lib/thumb/v8-m.base/nofp/libg-musl.a(__sio_snprintf_dfosux.o)
 .debug_loc     0x00000000       0xab /Applications/microchip/xc32/v4.10/bin/bin/../../lib/gcc/pic32c/8.3.1/../../../../pic32c/lib/thumb/v8-m.base/nofp/libg-musl.a(__sio_snprintf_dfosux.o)
 .debug_aranges
                0x00000000       0x28 /Applications/microchip/xc32/v4.10/bin/bin/../../lib/gcc/pic32c/8.3.1/../../../../pic32c/lib/thumb/v8-m.base/nofp/libg-musl.a(__sio_snprintf_dfosux.o)
 .debug_ranges  0x00000000       0x18 /Applications/microchip/xc32/v4.10/bin/bin/../../lib/gcc/pic32c/8.3.1/../../../../pic32c/lib/thumb/v8-m.base/nofp/libg-musl.a(__sio_snprintf_dfosux.o)
 .debug_line    0x00000000      0x1bd /Applications/microchip/xc32/v4.10/bin/bin/../../lib/gcc/pic32c/8.3.1/../../../../pic32c/lib/thumb/v8-m.base/nofp/libg-musl.a(__sio_snprintf_dfosux.o)
 .debug_str     0x00000000       0x66 /Applications/microchip/xc32/v4.10/bin/bin/../../lib/gcc/pic32c/8.3.1/../../../../pic32c/lib/thumb/v8-m.base/nofp/libg-musl.a(__sio_snprintf_dfosux.o)
 .comment       0x00000000       0x2c /Applications/microchip/xc32/v4.10/bin/bin/../../lib/gcc/pic32c/8.3.1/../../../../pic32c/lib/thumb/v8-m.base/nofp/libg-musl.a(__sio_snprintf_dfosux.o)
 .note.GNU-stack
                0x00000000        0x0 /Applications/microchip/xc32/v4.10/bin/bin/../../lib/gcc/pic32c/8.3.1/../../../../pic32c/lib/thumb/v8-m.base/nofp/libg-musl.a(__sio_snprintf_dfosux.o)
 .debug_frame   0x00000000       0x48 /Applications/microchip/xc32/v4.10/bin/bin/../../lib/gcc/pic32c/8.3.1/../../../../pic32c/lib/thumb/v8-m.base/nofp/libg-musl.a(__sio_snprintf_dfosux.o)
 .ARM.attributes
                0x00000000       0x32 /Applications/microchip/xc32/v4.10/bin/bin/../../lib/gcc/pic32c/8.3.1/../../../../pic32c/lib/thumb/v8-m.base/nofp/libg-musl.a(__sio_snprintf_dfosux.o)
 .text          0x00000000        0x0 /Applications/microchip/xc32/v4.10/bin/bin/../../lib/gcc/pic32c/8.3.1/../../../../pic32c/lib/thumb/v8-m.base/nofp/libg-musl.a(__fmt_d.o)
 .data          0x00000000        0x0 /Applications/microchip/xc32/v4.10/bin/bin/../../lib/gcc/pic32c/8.3.1/../../../../pic32c/lib/thumb/v8-m.base/nofp/libg-musl.a(__fmt_d.o)
 .bss           0x00000000        0x0 /Applications/microchip/xc32/v4.10/bin/bin/../../lib/gcc/pic32c/8.3.1/../../../../pic32c/lib/thumb/v8-m.base/nofp/libg-musl.a(__fmt_d.o)
 .xc_stack_usage
                0x00000000       0x15 /Applications/microchip/xc32/v4.10/bin/bin/../../lib/gcc/pic32c/8.3.1/../../../../pic32c/lib/thumb/v8-m.base/nofp/libg-musl.a(__fmt_d.o)
 .xc_stack_usage.hdr
                0x00000000        0xe /Applications/microchip/xc32/v4.10/bin/bin/../../lib/gcc/pic32c/8.3.1/../../../../pic32c/lib/thumb/v8-m.base/nofp/libg-musl.a(__fmt_d.o)
 .text          0x00000000        0x0 /Applications/microchip/xc32/v4.10/bin/bin/../../lib/gcc/pic32c/8.3.1/../../../../pic32c/lib/thumb/v8-m.base/nofp/libg-musl.a(__fmt_fp.o)
 .data          0x00000000        0x0 /Applications/microchip/xc32/v4.10/bin/bin/../../lib/gcc/pic32c/8.3.1/../../../../pic32c/lib/thumb/v8-m.base/nofp/libg-musl.a(__fmt_fp.o)
 .bss           0x00000000        0x0 /Applications/microchip/xc32/v4.10/bin/bin/../../lib/gcc/pic32c/8.3.1/../../../../pic32c/lib/thumb/v8-m.base/nofp/libg-musl.a(__fmt_fp.o)
 .xc_stack_usage
                0x00000000       0x16 /Applications/microchip/xc32/v4.10/bin/bin/../../lib/gcc/pic32c/8.3.1/../../../../pic32c/lib/thumb/v8-m.base/nofp/libg-musl.a(__fmt_fp.o)
 .xc_stack_usage.hdr
                0x00000000        0xe /Applications/microchip/xc32/v4.10/bin/bin/../../lib/gcc/pic32c/8.3.1/../../../../pic32c/lib/thumb/v8-m.base/nofp/libg-musl.a(__fmt_fp.o)
 .text          0x00000000        0x0 /Applications/microchip/xc32/v4.10/bin/bin/../../lib/gcc/pic32c/8.3.1/../../../../pic32c/lib/thumb/v8-m.base/nofp/libg-musl.a(__fmt_o.o)
 .data          0x00000000        0x0 /Applications/microchip/xc32/v4.10/bin/bin/../../lib/gcc/pic32c/8.3.1/../../../../pic32c/lib/thumb/v8-m.base/nofp/libg-musl.a(__fmt_o.o)
 .bss           0x00000000        0x0 /Applications/microchip/xc32/v4.10/bin/bin/../../lib/gcc/pic32c/8.3.1/../../../../pic32c/lib/thumb/v8-m.base/nofp/libg-musl.a(__fmt_o.o)
 .xc_stack_usage
                0x00000000       0x15 /Applications/microchip/xc32/v4.10/bin/bin/../../lib/gcc/pic32c/8.3.1/../../../../pic32c/lib/thumb/v8-m.base/nofp/libg-musl.a(__fmt_o.o)
 .xc_stack_usage.hdr
                0x00000000        0xe /Applications/microchip/xc32/v4.10/bin/bin/../../lib/gcc/pic32c/8.3.1/../../../../pic32c/lib/thumb/v8-m.base/nofp/libg-musl.a(__fmt_o.o)
 .text          0x00000000        0x0 /Applications/microchip/xc32/v4.10/bin/bin/../../lib/gcc/pic32c/8.3.1/../../../../pic32c/lib/thumb/v8-m.base/nofp/libg-musl.a(__fmt_s.o)
 .data          0x00000000        0x0 /Applications/microchip/xc32/v4.10/bin/bin/../../lib/gcc/pic32c/8.3.1/../../../../pic32c/lib/thumb/v8-m.base/nofp/libg-musl.a(__fmt_s.o)
 .bss           0x00000000        0x0 /Applications/microchip/xc32/v4.10/bin/bin/../../lib/gcc/pic32c/8.3.1/../../../../pic32c/lib/thumb/v8-m.base/nofp/libg-musl.a(__fmt_s.o)
 .xc_stack_usage
                0x00000000       0x15 /Applications/microchip/xc32/v4.10/bin/bin/../../lib/gcc/pic32c/8.3.1/../../../../pic32c/lib/thumb/v8-m.base/nofp/libg-musl.a(__fmt_s.o)
 .xc_stack_usage.hdr
                0x00000000        0xe /Applications/microchip/xc32/v4.10/bin/bin/../../lib/gcc/pic32c/8.3.1/../../../../pic32c/lib/thumb/v8-m.base/nofp/libg-musl.a(__fmt_s.o)
 .text          0x00000000        0x0 /Applications/microchip/xc32/v4.10/bin/bin/../../lib/gcc/pic32c/8.3.1/../../../../pic32c/lib/thumb/v8-m.base/nofp/libg-musl.a(__fmt_u.o)
 .data          0x00000000        0x0 /Applications/microchip/xc32/v4.10/bin/bin/../../lib/gcc/pic32c/8.3.1/../../../../pic32c/lib/thumb/v8-m.base/nofp/libg-musl.a(__fmt_u.o)
 .bss           0x00000000        0x0 /Applications/microchip/xc32/v4.10/bin/bin/../../lib/gcc/pic32c/8.3.1/../../../../pic32c/lib/thumb/v8-m.base/nofp/libg-musl.a(__fmt_u.o)
 .xc_stack_usage
                0x00000000       0x2a /Applications/microchip/xc32/v4.10/bin/bin/../../lib/gcc/pic32c/8.3.1/../../../../pic32c/lib/thumb/v8-m.base/nofp/libg-musl.a(__fmt_u.o)
 .xc_stack_usage.hdr
                0x00000000        0xe /Applications/microchip/xc32/v4.10/bin/bin/../../lib/gcc/pic32c/8.3.1/../../../../pic32c/lib/thumb/v8-m.base/nofp/libg-musl.a(__fmt_u.o)
 .text          0x00000000        0x0 /Applications/microchip/xc32/v4.10/bin/bin/../../lib/gcc/pic32c/8.3.1/../../../../pic32c/lib/thumb/v8-m.base/nofp/libg-musl.a(__fmt_x.o)
 .data          0x00000000        0x0 /Applications/microchip/xc32/v4.10/bin/bin/../../lib/gcc/pic32c/8.3.1/../../../../pic32c/lib/thumb/v8-m.base/nofp/libg-musl.a(__fmt_x.o)
 .bss           0x00000000        0x0 /Applications/microchip/xc32/v4.10/bin/bin/../../lib/gcc/pic32c/8.3.1/../../../../pic32c/lib/thumb/v8-m.base/nofp/libg-musl.a(__fmt_x.o)
 .xc_stack_usage
                0x00000000       0x15 /Applications/microchip/xc32/v4.10/bin/bin/../../lib/gcc/pic32c/8.3.1/../../../../pic32c/lib/thumb/v8-m.base/nofp/libg-musl.a(__fmt_x.o)
 .xc_stack_usage.hdr
                0x00000000        0xe /Applications/microchip/xc32/v4.10/bin/bin/../../lib/gcc/pic32c/8.3.1/../../../../pic32c/lib/thumb/v8-m.base/nofp/libg-musl.a(__fmt_x.o)
 .text          0x00000000        0x0 /Applications/microchip/xc32/v4.10/bin/bin/../../lib/gcc/pic32c/8.3.1/../../../../pic32c/lib/thumb/v8-m.base/nofp/libg-musl.a(__printf_core.o)
 .data          0x00000000        0x0 /Applications/microchip/xc32/v4.10/bin/bin/../../lib/gcc/pic32c/8.3.1/../../../../pic32c/lib/thumb/v8-m.base/nofp/libg-musl.a(__printf_core.o)
 .bss           0x00000000        0x0 /Applications/microchip/xc32/v4.10/bin/bin/../../lib/gcc/pic32c/8.3.1/../../../../pic32c/lib/thumb/v8-m.base/nofp/libg-musl.a(__printf_core.o)
 .xc_stack_usage
                0x00000000       0xaf /Applications/microchip/xc32/v4.10/bin/bin/../../lib/gcc/pic32c/8.3.1/../../../../pic32c/lib/thumb/v8-m.base/nofp/libg-musl.a(__printf_core.o)
 .text.__string_out
                0x00000000       0x26 /Applications/microchip/xc32/v4.10/bin/bin/../../lib/gcc/pic32c/8.3.1/../../../../pic32c/lib/thumb/v8-m.base/nofp/libg-musl.a(__printf_core.o)
 .text.__dummy_fmt3
                0x00000000        0x4 /Applications/microchip/xc32/v4.10/bin/bin/../../lib/gcc/pic32c/8.3.1/../../../../pic32c/lib/thumb/v8-m.base/nofp/libg-musl.a(__printf_core.o)
 .text.__dummy_fmt4
                0x00000000        0x4 /Applications/microchip/xc32/v4.10/bin/bin/../../lib/gcc/pic32c/8.3.1/../../../../pic32c/lib/thumb/v8-m.base/nofp/libg-musl.a(__printf_core.o)
 .text.__dummy_fmts
                0x00000000        0x4 /Applications/microchip/xc32/v4.10/bin/bin/../../lib/gcc/pic32c/8.3.1/../../../../pic32c/lib/thumb/v8-m.base/nofp/libg-musl.a(__printf_core.o)
 .xc_stack_usage.hdr
                0x00000000        0xe /Applications/microchip/xc32/v4.10/bin/bin/../../lib/gcc/pic32c/8.3.1/../../../../pic32c/lib/thumb/v8-m.base/nofp/libg-musl.a(__printf_core.o)
 .text          0x00000000        0x0 /Applications/microchip/xc32/v4.10/bin/bin/../../lib/gcc/pic32c/8.3.1/../../../../pic32c/lib/thumb/v8-m.base/nofp/libg-musl.a(fflush.o)
 .data          0x00000000        0x0 /Applications/microchip/xc32/v4.10/bin/bin/../../lib/gcc/pic32c/8.3.1/../../../../pic32c/lib/thumb/v8-m.base/nofp/libg-musl.a(fflush.o)
 .bss           0x00000000        0x4 /Applications/microchip/xc32/v4.10/bin/bin/../../lib/gcc/pic32c/8.3.1/../../../../pic32c/lib/thumb/v8-m.base/nofp/libg-musl.a(fflush.o)
 .xc_stack_usage
                0x00000000       0x40 /Applications/microchip/xc32/v4.10/bin/bin/../../lib/gcc/pic32c/8.3.1/../../../../pic32c/lib/thumb/v8-m.base/nofp/libg-musl.a(fflush.o)
 .text.__dummy2
                0x00000000        0x4 /Applications/microchip/xc32/v4.10/bin/bin/../../lib/gcc/pic32c/8.3.1/../../../../pic32c/lib/thumb/v8-m.base/nofp/libg-musl.a(fflush.o)
 .xc_stack_usage.hdr
                0x00000000        0xe /Applications/microchip/xc32/v4.10/bin/bin/../../lib/gcc/pic32c/8.3.1/../../../../pic32c/lib/thumb/v8-m.base/nofp/libg-musl.a(fflush.o)
 .text          0x00000000        0x0 /Applications/microchip/xc32/v4.10/bin/bin/../../lib/gcc/pic32c/8.3.1/../../../../pic32c/lib/thumb/v8-m.base/nofp/libg-musl.a(fwrite.o)
 .data          0x00000000        0x0 /Applications/microchip/xc32/v4.10/bin/bin/../../lib/gcc/pic32c/8.3.1/../../../../pic32c/lib/thumb/v8-m.base/nofp/libg-musl.a(fwrite.o)
 .bss           0x00000000        0x0 /Applications/microchip/xc32/v4.10/bin/bin/../../lib/gcc/pic32c/8.3.1/../../../../pic32c/lib/thumb/v8-m.base/nofp/libg-musl.a(fwrite.o)
 .xc_stack_usage
                0x00000000       0x2e /Applications/microchip/xc32/v4.10/bin/bin/../../lib/gcc/pic32c/8.3.1/../../../../pic32c/lib/thumb/v8-m.base/nofp/libg-musl.a(fwrite.o)
 .text.__fwrite_min
                0x00000000        0xa /Applications/microchip/xc32/v4.10/bin/bin/../../lib/gcc/pic32c/8.3.1/../../../../pic32c/lib/thumb/v8-m.base/nofp/libg-musl.a(fwrite.o)
 .xc_stack_usage.hdr
                0x00000000        0xe /Applications/microchip/xc32/v4.10/bin/bin/../../lib/gcc/pic32c/8.3.1/../../../../pic32c/lib/thumb/v8-m.base/nofp/libg-musl.a(fwrite.o)
 .text          0x00000000        0x0 /Applications/microchip/xc32/v4.10/bin/bin/../../lib/gcc/pic32c/8.3.1/../../../../pic32c/lib/thumb/v8-m.base/nofp/libg-musl.a(putc.o)
 .data          0x00000000        0x0 /Applications/microchip/xc32/v4.10/bin/bin/../../lib/gcc/pic32c/8.3.1/../../../../pic32c/lib/thumb/v8-m.base/nofp/libg-musl.a(putc.o)
 .bss           0x00000000        0x0 /Applications/microchip/xc32/v4.10/bin/bin/../../lib/gcc/pic32c/8.3.1/../../../../pic32c/lib/thumb/v8-m.base/nofp/libg-musl.a(putc.o)
 .xc_stack_usage
                0x00000000       0x4f /Applications/microchip/xc32/v4.10/bin/bin/../../lib/gcc/pic32c/8.3.1/../../../../pic32c/lib/thumb/v8-m.base/nofp/libg-musl.a(putc.o)
 .xc_stack_usage.hdr
                0x00000000        0xe /Applications/microchip/xc32/v4.10/bin/bin/../../lib/gcc/pic32c/8.3.1/../../../../pic32c/lib/thumb/v8-m.base/nofp/libg-musl.a(putc.o)
 .text          0x00000000        0x0 /Applications/microchip/xc32/v4.10/bin/bin/../../lib/gcc/pic32c/8.3.1/../../../../pic32c/lib/thumb/v8-m.base/nofp/libg-musl.a(sscanf.o)
 .data          0x00000000        0x0 /Applications/microchip/xc32/v4.10/bin/bin/../../lib/gcc/pic32c/8.3.1/../../../../pic32c/lib/thumb/v8-m.base/nofp/libg-musl.a(sscanf.o)
 .bss           0x00000000        0x0 /Applications/microchip/xc32/v4.10/bin/bin/../../lib/gcc/pic32c/8.3.1/../../../../pic32c/lib/thumb/v8-m.base/nofp/libg-musl.a(sscanf.o)
 .xc_stack_usage
                0x00000000       0x14 /Applications/microchip/xc32/v4.10/bin/bin/../../lib/gcc/pic32c/8.3.1/../../../../pic32c/lib/thumb/v8-m.base/nofp/libg-musl.a(sscanf.o)
 .xc_stack_usage.hdr
                0x00000000        0xe /Applications/microchip/xc32/v4.10/bin/bin/../../lib/gcc/pic32c/8.3.1/../../../../pic32c/lib/thumb/v8-m.base/nofp/libg-musl.a(sscanf.o)
 .text          0x00000000        0x0 /Applications/microchip/xc32/v4.10/bin/bin/../../lib/gcc/pic32c/8.3.1/../../../../pic32c/lib/thumb/v8-m.base/nofp/libg-musl.a(stdin.o)
 .xc_stack_usage
                0x00000000       0x33 /Applications/microchip/xc32/v4.10/bin/bin/../../lib/gcc/pic32c/8.3.1/../../../../pic32c/lib/thumb/v8-m.base/nofp/libg-musl.a(stdin.o)
 .xc_stack_usage.hdr
                0x00000000        0xe /Applications/microchip/xc32/v4.10/bin/bin/../../lib/gcc/pic32c/8.3.1/../../../../pic32c/lib/thumb/v8-m.base/nofp/libg-musl.a(stdin.o)
 .text          0x00000000        0x0 /Applications/microchip/xc32/v4.10/bin/bin/../../lib/gcc/pic32c/8.3.1/../../../../pic32c/lib/thumb/v8-m.base/nofp/libg-musl.a(stdout.o)
 .xc_stack_usage
                0x00000000       0x51 /Applications/microchip/xc32/v4.10/bin/bin/../../lib/gcc/pic32c/8.3.1/../../../../pic32c/lib/thumb/v8-m.base/nofp/libg-musl.a(stdout.o)
 .text.__dummy  0x00000000        0x8 /Applications/microchip/xc32/v4.10/bin/bin/../../lib/gcc/pic32c/8.3.1/../../../../pic32c/lib/thumb/v8-m.base/nofp/libg-musl.a(stdout.o)
 .xc_stack_usage.hdr
                0x00000000        0xe /Applications/microchip/xc32/v4.10/bin/bin/../../lib/gcc/pic32c/8.3.1/../../../../pic32c/lib/thumb/v8-m.base/nofp/libg-musl.a(stdout.o)
 .text          0x00000000        0x0 /Applications/microchip/xc32/v4.10/bin/bin/../../lib/gcc/pic32c/8.3.1/../../../../pic32c/lib/thumb/v8-m.base/nofp/libg-musl.a(vsscanf.o)
 .data          0x00000000        0x0 /Applications/microchip/xc32/v4.10/bin/bin/../../lib/gcc/pic32c/8.3.1/../../../../pic32c/lib/thumb/v8-m.base/nofp/libg-musl.a(vsscanf.o)
 .bss           0x00000000        0x0 /Applications/microchip/xc32/v4.10/bin/bin/../../lib/gcc/pic32c/8.3.1/../../../../pic32c/lib/thumb/v8-m.base/nofp/libg-musl.a(vsscanf.o)
 .xc_stack_usage
                0x00000000       0x2a /Applications/microchip/xc32/v4.10/bin/bin/../../lib/gcc/pic32c/8.3.1/../../../../pic32c/lib/thumb/v8-m.base/nofp/libg-musl.a(vsscanf.o)
 .xc_stack_usage.hdr
                0x00000000        0xe /Applications/microchip/xc32/v4.10/bin/bin/../../lib/gcc/pic32c/8.3.1/../../../../pic32c/lib/thumb/v8-m.base/nofp/libg-musl.a(vsscanf.o)
 .text          0x00000000        0x0 /Applications/microchip/xc32/v4.10/bin/bin/../../lib/gcc/pic32c/8.3.1/../../../../pic32c/lib/thumb/v8-m.base/nofp/libg-musl.a(puts.o)
 .data          0x00000000        0x0 /Applications/microchip/xc32/v4.10/bin/bin/../../lib/gcc/pic32c/8.3.1/../../../../pic32c/lib/thumb/v8-m.base/nofp/libg-musl.a(puts.o)
 .bss           0x00000000        0x0 /Applications/microchip/xc32/v4.10/bin/bin/../../lib/gcc/pic32c/8.3.1/../../../../pic32c/lib/thumb/v8-m.base/nofp/libg-musl.a(puts.o)
 .xc_stack_usage
                0x00000000       0x12 /Applications/microchip/xc32/v4.10/bin/bin/../../lib/gcc/pic32c/8.3.1/../../../../pic32c/lib/thumb/v8-m.base/nofp/libg-musl.a(puts.o)
 .xc_stack_usage.hdr
                0x00000000        0xe /Applications/microchip/xc32/v4.10/bin/bin/../../lib/gcc/pic32c/8.3.1/../../../../pic32c/lib/thumb/v8-m.base/nofp/libg-musl.a(puts.o)
 .text          0x00000000        0x0 /Applications/microchip/xc32/v4.10/bin/bin/../../lib/gcc/pic32c/8.3.1/../../../../pic32c/lib/thumb/v8-m.base/nofp/libg-musl.a(setbuf.o)
 .data          0x00000000        0x0 /Applications/microchip/xc32/v4.10/bin/bin/../../lib/gcc/pic32c/8.3.1/../../../../pic32c/lib/thumb/v8-m.base/nofp/libg-musl.a(setbuf.o)
 .bss           0x00000000        0x0 /Applications/microchip/xc32/v4.10/bin/bin/../../lib/gcc/pic32c/8.3.1/../../../../pic32c/lib/thumb/v8-m.base/nofp/libg-musl.a(setbuf.o)
 .xc_stack_usage
                0x00000000       0x14 /Applications/microchip/xc32/v4.10/bin/bin/../../lib/gcc/pic32c/8.3.1/../../../../pic32c/lib/thumb/v8-m.base/nofp/libg-musl.a(setbuf.o)
 .xc_stack_usage.hdr
                0x00000000        0xe /Applications/microchip/xc32/v4.10/bin/bin/../../lib/gcc/pic32c/8.3.1/../../../../pic32c/lib/thumb/v8-m.base/nofp/libg-musl.a(setbuf.o)
 .text          0x00000000        0x0 /Applications/microchip/xc32/v4.10/bin/bin/../../lib/gcc/pic32c/8.3.1/../../../../pic32c/lib/thumb/v8-m.base/nofp/libg-musl.a(atoi.o)
 .data          0x00000000        0x0 /Applications/microchip/xc32/v4.10/bin/bin/../../lib/gcc/pic32c/8.3.1/../../../../pic32c/lib/thumb/v8-m.base/nofp/libg-musl.a(atoi.o)
 .bss           0x00000000        0x0 /Applications/microchip/xc32/v4.10/bin/bin/../../lib/gcc/pic32c/8.3.1/../../../../pic32c/lib/thumb/v8-m.base/nofp/libg-musl.a(atoi.o)
 .xc_stack_usage
                0x00000000       0x12 /Applications/microchip/xc32/v4.10/bin/bin/../../lib/gcc/pic32c/8.3.1/../../../../pic32c/lib/thumb/v8-m.base/nofp/libg-musl.a(atoi.o)
 .xc_stack_usage.hdr
                0x00000000        0xe /Applications/microchip/xc32/v4.10/bin/bin/../../lib/gcc/pic32c/8.3.1/../../../../pic32c/lib/thumb/v8-m.base/nofp/libg-musl.a(atoi.o)
 .text          0x00000000        0x0 /Applications/microchip/xc32/v4.10/bin/bin/../../lib/gcc/pic32c/8.3.1/../../../../pic32c/lib/thumb/v8-m.base/nofp/libg-musl.a(div.o)
 .data          0x00000000        0x0 /Applications/microchip/xc32/v4.10/bin/bin/../../lib/gcc/pic32c/8.3.1/../../../../pic32c/lib/thumb/v8-m.base/nofp/libg-musl.a(div.o)
 .bss           0x00000000        0x0 /Applications/microchip/xc32/v4.10/bin/bin/../../lib/gcc/pic32c/8.3.1/../../../../pic32c/lib/thumb/v8-m.base/nofp/libg-musl.a(div.o)
 .xc_stack_usage
                0x00000000       0x11 /Applications/microchip/xc32/v4.10/bin/bin/../../lib/gcc/pic32c/8.3.1/../../../../pic32c/lib/thumb/v8-m.base/nofp/libg-musl.a(div.o)
 .xc_stack_usage.hdr
                0x00000000        0xe /Applications/microchip/xc32/v4.10/bin/bin/../../lib/gcc/pic32c/8.3.1/../../../../pic32c/lib/thumb/v8-m.base/nofp/libg-musl.a(div.o)
 .text          0x00000000        0x0 /Applications/microchip/xc32/v4.10/bin/bin/../../lib/gcc/pic32c/8.3.1/../../../../pic32c/lib/thumb/v8-m.base/nofp/libg-musl.a(memcmp.o)
 .data          0x00000000        0x0 /Applications/microchip/xc32/v4.10/bin/bin/../../lib/gcc/pic32c/8.3.1/../../../../pic32c/lib/thumb/v8-m.base/nofp/libg-musl.a(memcmp.o)
 .bss           0x00000000        0x0 /Applications/microchip/xc32/v4.10/bin/bin/../../lib/gcc/pic32c/8.3.1/../../../../pic32c/lib/thumb/v8-m.base/nofp/libg-musl.a(memcmp.o)
 .xc_stack_usage
                0x00000000       0x14 /Applications/microchip/xc32/v4.10/bin/bin/../../lib/gcc/pic32c/8.3.1/../../../../pic32c/lib/thumb/v8-m.base/nofp/libg-musl.a(memcmp.o)
 .xc_stack_usage.hdr
                0x00000000        0xe /Applications/microchip/xc32/v4.10/bin/bin/../../lib/gcc/pic32c/8.3.1/../../../../pic32c/lib/thumb/v8-m.base/nofp/libg-musl.a(memcmp.o)
 .text          0x00000000        0x0 /Applications/microchip/xc32/v4.10/bin/bin/../../lib/gcc/pic32c/8.3.1/../../../../pic32c/lib/thumb/v8-m.base/nofp/libg-musl.a(memcpy.o)
 .data          0x00000000        0x0 /Applications/microchip/xc32/v4.10/bin/bin/../../lib/gcc/pic32c/8.3.1/../../../../pic32c/lib/thumb/v8-m.base/nofp/libg-musl.a(memcpy.o)
 .bss           0x00000000        0x0 /Applications/microchip/xc32/v4.10/bin/bin/../../lib/gcc/pic32c/8.3.1/../../../../pic32c/lib/thumb/v8-m.base/nofp/libg-musl.a(memcpy.o)
 .xc_stack_usage
                0x00000000       0x14 /Applications/microchip/xc32/v4.10/bin/bin/../../lib/gcc/pic32c/8.3.1/../../../../pic32c/lib/thumb/v8-m.base/nofp/libg-musl.a(memcpy.o)
 .xc_stack_usage.hdr
                0x00000000        0xe /Applications/microchip/xc32/v4.10/bin/bin/../../lib/gcc/pic32c/8.3.1/../../../../pic32c/lib/thumb/v8-m.base/nofp/libg-musl.a(memcpy.o)
 .text          0x00000000        0x0 /Applications/microchip/xc32/v4.10/bin/bin/../../lib/gcc/pic32c/8.3.1/../../../../pic32c/lib/thumb/v8-m.base/nofp/libg-musl.a(memmove.o)
 .data          0x00000000        0x0 /Applications/microchip/xc32/v4.10/bin/bin/../../lib/gcc/pic32c/8.3.1/../../../../pic32c/lib/thumb/v8-m.base/nofp/libg-musl.a(memmove.o)
 .bss           0x00000000        0x0 /Applications/microchip/xc32/v4.10/bin/bin/../../lib/gcc/pic32c/8.3.1/../../../../pic32c/lib/thumb/v8-m.base/nofp/libg-musl.a(memmove.o)
 .xc_stack_usage
                0x00000000       0x15 /Applications/microchip/xc32/v4.10/bin/bin/../../lib/gcc/pic32c/8.3.1/../../../../pic32c/lib/thumb/v8-m.base/nofp/libg-musl.a(memmove.o)
 .xc_stack_usage.hdr
                0x00000000        0xe /Applications/microchip/xc32/v4.10/bin/bin/../../lib/gcc/pic32c/8.3.1/../../../../pic32c/lib/thumb/v8-m.base/nofp/libg-musl.a(memmove.o)
 .text          0x00000000        0x0 /Applications/microchip/xc32/v4.10/bin/bin/../../lib/gcc/pic32c/8.3.1/../../../../pic32c/lib/thumb/v8-m.base/nofp/libg-musl.a(memset.o)
 .data          0x00000000        0x0 /Applications/microchip/xc32/v4.10/bin/bin/../../lib/gcc/pic32c/8.3.1/../../../../pic32c/lib/thumb/v8-m.base/nofp/libg-musl.a(memset.o)
 .bss           0x00000000        0x0 /Applications/microchip/xc32/v4.10/bin/bin/../../lib/gcc/pic32c/8.3.1/../../../../pic32c/lib/thumb/v8-m.base/nofp/libg-musl.a(memset.o)
 .xc_stack_usage
                0x00000000       0x14 /Applications/microchip/xc32/v4.10/bin/bin/../../lib/gcc/pic32c/8.3.1/../../../../pic32c/lib/thumb/v8-m.base/nofp/libg-musl.a(memset.o)
 .xc_stack_usage.hdr
                0x00000000        0xe /Applications/microchip/xc32/v4.10/bin/bin/../../lib/gcc/pic32c/8.3.1/../../../../pic32c/lib/thumb/v8-m.base/nofp/libg-musl.a(memset.o)
 .text          0x00000000        0x0 /Applications/microchip/xc32/v4.10/bin/bin/../../lib/gcc/pic32c/8.3.1/../../../../pic32c/lib/thumb/v8-m.base/nofp/libg-musl.a(strlen.o)
 .data          0x00000000        0x0 /Applications/microchip/xc32/v4.10/bin/bin/../../lib/gcc/pic32c/8.3.1/../../../../pic32c/lib/thumb/v8-m.base/nofp/libg-musl.a(strlen.o)
 .bss           0x00000000        0x0 /Applications/microchip/xc32/v4.10/bin/bin/../../lib/gcc/pic32c/8.3.1/../../../../pic32c/lib/thumb/v8-m.base/nofp/libg-musl.a(strlen.o)
 .xc_stack_usage
                0x00000000       0x14 /Applications/microchip/xc32/v4.10/bin/bin/../../lib/gcc/pic32c/8.3.1/../../../../pic32c/lib/thumb/v8-m.base/nofp/libg-musl.a(strlen.o)
 .xc_stack_usage.hdr
                0x00000000        0xe /Applications/microchip/xc32/v4.10/bin/bin/../../lib/gcc/pic32c/8.3.1/../../../../pic32c/lib/thumb/v8-m.base/nofp/libg-musl.a(strlen.o)
 .text          0x00000000        0x0 /Applications/microchip/xc32/v4.10/bin/bin/../../lib/gcc/pic32c/8.3.1/../../../../pic32c/lib/thumb/v8-m.base/nofp/libg-musl.a(strcpy.o)
 .data          0x00000000        0x0 /Applications/microchip/xc32/v4.10/bin/bin/../../lib/gcc/pic32c/8.3.1/../../../../pic32c/lib/thumb/v8-m.base/nofp/libg-musl.a(strcpy.o)
 .bss           0x00000000        0x0 /Applications/microchip/xc32/v4.10/bin/bin/../../lib/gcc/pic32c/8.3.1/../../../../pic32c/lib/thumb/v8-m.base/nofp/libg-musl.a(strcpy.o)
 .xc_stack_usage
                0x00000000       0x14 /Applications/microchip/xc32/v4.10/bin/bin/../../lib/gcc/pic32c/8.3.1/../../../../pic32c/lib/thumb/v8-m.base/nofp/libg-musl.a(strcpy.o)
 .xc_stack_usage.hdr
                0x00000000        0xe /Applications/microchip/xc32/v4.10/bin/bin/../../lib/gcc/pic32c/8.3.1/../../../../pic32c/lib/thumb/v8-m.base/nofp/libg-musl.a(strcpy.o)
 .text          0x00000000        0x0 /Applications/microchip/xc32/v4.10/bin/bin/../../lib/gcc/pic32c/8.3.1/../../../../pic32c/lib/thumb/v8-m.base/nofp/libg-musl.a(strlcat.o)
 .data          0x00000000        0x0 /Applications/microchip/xc32/v4.10/bin/bin/../../lib/gcc/pic32c/8.3.1/../../../../pic32c/lib/thumb/v8-m.base/nofp/libg-musl.a(strlcat.o)
 .bss           0x00000000        0x0 /Applications/microchip/xc32/v4.10/bin/bin/../../lib/gcc/pic32c/8.3.1/../../../../pic32c/lib/thumb/v8-m.base/nofp/libg-musl.a(strlcat.o)
 .xc_stack_usage
                0x00000000       0x15 /Applications/microchip/xc32/v4.10/bin/bin/../../lib/gcc/pic32c/8.3.1/../../../../pic32c/lib/thumb/v8-m.base/nofp/libg-musl.a(strlcat.o)
 .xc_stack_usage.hdr
                0x00000000        0xe /Applications/microchip/xc32/v4.10/bin/bin/../../lib/gcc/pic32c/8.3.1/../../../../pic32c/lib/thumb/v8-m.base/nofp/libg-musl.a(strlcat.o)
 .text          0x00000000        0x0 /Applications/microchip/xc32/v4.10/bin/bin/../../lib/gcc/pic32c/8.3.1/../../../../pic32c/lib/thumb/v8-m.base/nofp/libg-musl.a(strlcpy.o)
 .data          0x00000000        0x0 /Applications/microchip/xc32/v4.10/bin/bin/../../lib/gcc/pic32c/8.3.1/../../../../pic32c/lib/thumb/v8-m.base/nofp/libg-musl.a(strlcpy.o)
 .bss           0x00000000        0x0 /Applications/microchip/xc32/v4.10/bin/bin/../../lib/gcc/pic32c/8.3.1/../../../../pic32c/lib/thumb/v8-m.base/nofp/libg-musl.a(strlcpy.o)
 .xc_stack_usage
                0x00000000       0x15 /Applications/microchip/xc32/v4.10/bin/bin/../../lib/gcc/pic32c/8.3.1/../../../../pic32c/lib/thumb/v8-m.base/nofp/libg-musl.a(strlcpy.o)
 .xc_stack_usage.hdr
                0x00000000        0xe /Applications/microchip/xc32/v4.10/bin/bin/../../lib/gcc/pic32c/8.3.1/../../../../pic32c/lib/thumb/v8-m.base/nofp/libg-musl.a(strlcpy.o)
 .text          0x00000000        0x0 /Applications/microchip/xc32/v4.10/bin/bin/../../lib/gcc/pic32c/8.3.1/../../../../pic32c/lib/thumb/v8-m.base/nofp/libg-musl.a(strnlen.o)
 .data          0x00000000        0x0 /Applications/microchip/xc32/v4.10/bin/bin/../../lib/gcc/pic32c/8.3.1/../../../../pic32c/lib/thumb/v8-m.base/nofp/libg-musl.a(strnlen.o)
 .bss           0x00000000        0x0 /Applications/microchip/xc32/v4.10/bin/bin/../../lib/gcc/pic32c/8.3.1/../../../../pic32c/lib/thumb/v8-m.base/nofp/libg-musl.a(strnlen.o)
 .xc_stack_usage
                0x00000000       0x15 /Applications/microchip/xc32/v4.10/bin/bin/../../lib/gcc/pic32c/8.3.1/../../../../pic32c/lib/thumb/v8-m.base/nofp/libg-musl.a(strnlen.o)
 .xc_stack_usage.hdr
                0x00000000        0xe /Applications/microchip/xc32/v4.10/bin/bin/../../lib/gcc/pic32c/8.3.1/../../../../pic32c/lib/thumb/v8-m.base/nofp/libg-musl.a(strnlen.o)
 .text          0x00000000        0x0 /Applications/microchip/xc32/v4.10/bin/bin/../../lib/gcc/pic32c/8.3.1/../../../../pic32c/lib/thumb/v8-m.base/nofp/libg-musl.a(localtime.o)
 .data          0x00000000        0x0 /Applications/microchip/xc32/v4.10/bin/bin/../../lib/gcc/pic32c/8.3.1/../../../../pic32c/lib/thumb/v8-m.base/nofp/libg-musl.a(localtime.o)
 .xc_stack_usage
                0x00000000       0x17 /Applications/microchip/xc32/v4.10/bin/bin/../../lib/gcc/pic32c/8.3.1/../../../../pic32c/lib/thumb/v8-m.base/nofp/libg-musl.a(localtime.o)
 .xc_stack_usage.hdr
                0x00000000        0xe /Applications/microchip/xc32/v4.10/bin/bin/../../lib/gcc/pic32c/8.3.1/../../../../pic32c/lib/thumb/v8-m.base/nofp/libg-musl.a(localtime.o)
 .text          0x00000000        0x0 /Applications/microchip/xc32/v4.10/bin/bin/../../lib/gcc/pic32c/8.3.1/../../../../pic32c/lib/thumb/v8-m.base/nofp/libg-musl.a(strftime.o)
 .data          0x00000000        0x0 /Applications/microchip/xc32/v4.10/bin/bin/../../lib/gcc/pic32c/8.3.1/../../../../pic32c/lib/thumb/v8-m.base/nofp/libg-musl.a(strftime.o)
 .bss           0x00000000        0x0 /Applications/microchip/xc32/v4.10/bin/bin/../../lib/gcc/pic32c/8.3.1/../../../../pic32c/lib/thumb/v8-m.base/nofp/libg-musl.a(strftime.o)
 .xc_stack_usage
                0x00000000       0x79 /Applications/microchip/xc32/v4.10/bin/bin/../../lib/gcc/pic32c/8.3.1/../../../../pic32c/lib/thumb/v8-m.base/nofp/libg-musl.a(strftime.o)
 .xc_stack_usage.hdr
                0x00000000        0xe /Applications/microchip/xc32/v4.10/bin/bin/../../lib/gcc/pic32c/8.3.1/../../../../pic32c/lib/thumb/v8-m.base/nofp/libg-musl.a(strftime.o)
 .text          0x00000000        0x0 /Applications/microchip/xc32/v4.10/bin/bin/../../lib/gcc/pic32c/8.3.1/../../../../pic32c/lib/thumb/v8-m.base/nofp/libg-musl.a(time.o)
 .data          0x00000000        0x0 /Applications/microchip/xc32/v4.10/bin/bin/../../lib/gcc/pic32c/8.3.1/../../../../pic32c/lib/thumb/v8-m.base/nofp/libg-musl.a(time.o)
 .bss           0x00000000        0x0 /Applications/microchip/xc32/v4.10/bin/bin/../../lib/gcc/pic32c/8.3.1/../../../../pic32c/lib/thumb/v8-m.base/nofp/libg-musl.a(time.o)
 .xc_stack_usage
                0x00000000       0x12 /Applications/microchip/xc32/v4.10/bin/bin/../../lib/gcc/pic32c/8.3.1/../../../../pic32c/lib/thumb/v8-m.base/nofp/libg-musl.a(time.o)
 .xc_stack_usage.hdr
                0x00000000        0xe /Applications/microchip/xc32/v4.10/bin/bin/../../lib/gcc/pic32c/8.3.1/../../../../pic32c/lib/thumb/v8-m.base/nofp/libg-musl.a(time.o)
 .text          0x00000000        0x0 /Applications/microchip/xc32/v4.10/bin/bin/../../lib/gcc/pic32c/8.3.1/../../../../pic32c/lib/thumb/v8-m.base/nofp/libg-musl.a(tolower.o)
 .data          0x00000000        0x0 /Applications/microchip/xc32/v4.10/bin/bin/../../lib/gcc/pic32c/8.3.1/../../../../pic32c/lib/thumb/v8-m.base/nofp/libg-musl.a(tolower.o)
 .bss           0x00000000        0x0 /Applications/microchip/xc32/v4.10/bin/bin/../../lib/gcc/pic32c/8.3.1/../../../../pic32c/lib/thumb/v8-m.base/nofp/libg-musl.a(tolower.o)
 .xc_stack_usage
                0x00000000       0x2e /Applications/microchip/xc32/v4.10/bin/bin/../../lib/gcc/pic32c/8.3.1/../../../../pic32c/lib/thumb/v8-m.base/nofp/libg-musl.a(tolower.o)
 .text.__tolower_l
                0x00000000        0x8 /Applications/microchip/xc32/v4.10/bin/bin/../../lib/gcc/pic32c/8.3.1/../../../../pic32c/lib/thumb/v8-m.base/nofp/libg-musl.a(tolower.o)
 .xc_stack_usage.hdr
                0x00000000        0xe /Applications/microchip/xc32/v4.10/bin/bin/../../lib/gcc/pic32c/8.3.1/../../../../pic32c/lib/thumb/v8-m.base/nofp/libg-musl.a(tolower.o)
 .text          0x00000000        0x0 /Applications/microchip/xc32/v4.10/bin/bin/../../lib/gcc/pic32c/8.3.1/../../../../pic32c/lib/thumb/v8-m.base/nofp/libg-musl.a(toupper.o)
 .data          0x00000000        0x0 /Applications/microchip/xc32/v4.10/bin/bin/../../lib/gcc/pic32c/8.3.1/../../../../pic32c/lib/thumb/v8-m.base/nofp/libg-musl.a(toupper.o)
 .bss           0x00000000        0x0 /Applications/microchip/xc32/v4.10/bin/bin/../../lib/gcc/pic32c/8.3.1/../../../../pic32c/lib/thumb/v8-m.base/nofp/libg-musl.a(toupper.o)
 .xc_stack_usage
                0x00000000       0x2e /Applications/microchip/xc32/v4.10/bin/bin/../../lib/gcc/pic32c/8.3.1/../../../../pic32c/lib/thumb/v8-m.base/nofp/libg-musl.a(toupper.o)
 .text.__toupper_l
                0x00000000        0x8 /Applications/microchip/xc32/v4.10/bin/bin/../../lib/gcc/pic32c/8.3.1/../../../../pic32c/lib/thumb/v8-m.base/nofp/libg-musl.a(toupper.o)
 .xc_stack_usage.hdr
                0x00000000        0xe /Applications/microchip/xc32/v4.10/bin/bin/../../lib/gcc/pic32c/8.3.1/../../../../pic32c/lib/thumb/v8-m.base/nofp/libg-musl.a(toupper.o)
 .text          0x00000000        0x0 /Applications/microchip/xc32/v4.10/bin/bin/../../lib/gcc/pic32c/8.3.1/../../../../pic32c/lib/thumb/v8-m.base/nofp/libg-musl.a(__environ.o)
 .data          0x00000000        0x0 /Applications/microchip/xc32/v4.10/bin/bin/../../lib/gcc/pic32c/8.3.1/../../../../pic32c/lib/thumb/v8-m.base/nofp/libg-musl.a(__environ.o)
 .xc_stack_usage.hdr
                0x00000000        0xe /Applications/microchip/xc32/v4.10/bin/bin/../../lib/gcc/pic32c/8.3.1/../../../../pic32c/lib/thumb/v8-m.base/nofp/libg-musl.a(__environ.o)
 .text          0x00000000        0x0 /Applications/microchip/xc32/v4.10/bin/bin/../../lib/gcc/pic32c/8.3.1/../../../../pic32c/lib/thumb/v8-m.base/nofp/libg-musl.a(__errno_location.o)
 .data          0x00000000        0x0 /Applications/microchip/xc32/v4.10/bin/bin/../../lib/gcc/pic32c/8.3.1/../../../../pic32c/lib/thumb/v8-m.base/nofp/libg-musl.a(__errno_location.o)
 .xc_stack_usage.hdr
                0x00000000        0xe /Applications/microchip/xc32/v4.10/bin/bin/../../lib/gcc/pic32c/8.3.1/../../../../pic32c/lib/thumb/v8-m.base/nofp/libg-musl.a(__errno_location.o)
 .text          0x00000000        0x0 /Applications/microchip/xc32/v4.10/bin/bin/../../lib/gcc/pic32c/8.3.1/../../../../pic32c/lib/thumb/v8-m.base/nofp/libg-musl.a(_Exit.o)
 .data          0x00000000        0x0 /Applications/microchip/xc32/v4.10/bin/bin/../../lib/gcc/pic32c/8.3.1/../../../../pic32c/lib/thumb/v8-m.base/nofp/libg-musl.a(_Exit.o)
 .bss           0x00000000        0x0 /Applications/microchip/xc32/v4.10/bin/bin/../../lib/gcc/pic32c/8.3.1/../../../../pic32c/lib/thumb/v8-m.base/nofp/libg-musl.a(_Exit.o)
 .xc_stack_usage
                0x00000000       0x13 /Applications/microchip/xc32/v4.10/bin/bin/../../lib/gcc/pic32c/8.3.1/../../../../pic32c/lib/thumb/v8-m.base/nofp/libg-musl.a(_Exit.o)
 .xc_stack_usage.hdr
                0x00000000        0xe /Applications/microchip/xc32/v4.10/bin/bin/../../lib/gcc/pic32c/8.3.1/../../../../pic32c/lib/thumb/v8-m.base/nofp/libg-musl.a(_Exit.o)
 .text          0x00000000        0x0 /Applications/microchip/xc32/v4.10/bin/bin/../../lib/gcc/pic32c/8.3.1/../../../../pic32c/lib/thumb/v8-m.base/nofp/libg-musl.a(langinfo.o)
 .data          0x00000000        0x0 /Applications/microchip/xc32/v4.10/bin/bin/../../lib/gcc/pic32c/8.3.1/../../../../pic32c/lib/thumb/v8-m.base/nofp/libg-musl.a(langinfo.o)
 .bss           0x00000000        0x0 /Applications/microchip/xc32/v4.10/bin/bin/../../lib/gcc/pic32c/8.3.1/../../../../pic32c/lib/thumb/v8-m.base/nofp/libg-musl.a(langinfo.o)
 .xc_stack_usage
                0x00000000       0x38 /Applications/microchip/xc32/v4.10/bin/bin/../../lib/gcc/pic32c/8.3.1/../../../../pic32c/lib/thumb/v8-m.base/nofp/libg-musl.a(langinfo.o)
 .text.__nl_langinfo
                0x00000000       0x10 /Applications/microchip/xc32/v4.10/bin/bin/../../lib/gcc/pic32c/8.3.1/../../../../pic32c/lib/thumb/v8-m.base/nofp/libg-musl.a(langinfo.o)
 .xc_stack_usage.hdr
                0x00000000        0xe /Applications/microchip/xc32/v4.10/bin/bin/../../lib/gcc/pic32c/8.3.1/../../../../pic32c/lib/thumb/v8-m.base/nofp/libg-musl.a(langinfo.o)
 .text          0x00000000        0x0 /Applications/microchip/xc32/v4.10/bin/bin/../../lib/gcc/pic32c/8.3.1/../../../../pic32c/lib/thumb/v8-m.base/nofp/libg-musl.a(c_locale.o)
 .bss           0x00000000        0x0 /Applications/microchip/xc32/v4.10/bin/bin/../../lib/gcc/pic32c/8.3.1/../../../../pic32c/lib/thumb/v8-m.base/nofp/libg-musl.a(c_locale.o)
 .xc_stack_usage.hdr
                0x00000000        0xe /Applications/microchip/xc32/v4.10/bin/bin/../../lib/gcc/pic32c/8.3.1/../../../../pic32c/lib/thumb/v8-m.base/nofp/libg-musl.a(c_locale.o)
 .text          0x00000000        0x0 /Applications/microchip/xc32/v4.10/bin/bin/../../lib/gcc/pic32c/8.3.1/../../../../pic32c/lib/thumb/v8-m.base/nofp/libg-musl.a(__int_vfprintf.o)
 .data          0x00000000        0x0 /Applications/microchip/xc32/v4.10/bin/bin/../../lib/gcc/pic32c/8.3.1/../../../../pic32c/lib/thumb/v8-m.base/nofp/libg-musl.a(__int_vfprintf.o)
 .bss           0x00000000        0x0 /Applications/microchip/xc32/v4.10/bin/bin/../../lib/gcc/pic32c/8.3.1/../../../../pic32c/lib/thumb/v8-m.base/nofp/libg-musl.a(__int_vfprintf.o)
 .xc_stack_usage
                0x00000000       0x18 /Applications/microchip/xc32/v4.10/bin/bin/../../lib/gcc/pic32c/8.3.1/../../../../pic32c/lib/thumb/v8-m.base/nofp/libg-musl.a(__int_vfprintf.o)
 .text.__vfprintf
                0x00000000       0x18 /Applications/microchip/xc32/v4.10/bin/bin/../../lib/gcc/pic32c/8.3.1/../../../../pic32c/lib/thumb/v8-m.base/nofp/libg-musl.a(__int_vfprintf.o)
 .xc_stack_usage.hdr
                0x00000000        0xe /Applications/microchip/xc32/v4.10/bin/bin/../../lib/gcc/pic32c/8.3.1/../../../../pic32c/lib/thumb/v8-m.base/nofp/libg-musl.a(__int_vfprintf.o)
 .debug_info    0x00000000      0x488 /Applications/microchip/xc32/v4.10/bin/bin/../../lib/gcc/pic32c/8.3.1/../../../../pic32c/lib/thumb/v8-m.base/nofp/libg-musl.a(__int_vfprintf.o)
 .debug_abbrev  0x00000000      0x116 /Applications/microchip/xc32/v4.10/bin/bin/../../lib/gcc/pic32c/8.3.1/../../../../pic32c/lib/thumb/v8-m.base/nofp/libg-musl.a(__int_vfprintf.o)
 .debug_loc     0x00000000       0xb0 /Applications/microchip/xc32/v4.10/bin/bin/../../lib/gcc/pic32c/8.3.1/../../../../pic32c/lib/thumb/v8-m.base/nofp/libg-musl.a(__int_vfprintf.o)
 .debug_aranges
                0x00000000       0x20 /Applications/microchip/xc32/v4.10/bin/bin/../../lib/gcc/pic32c/8.3.1/../../../../pic32c/lib/thumb/v8-m.base/nofp/libg-musl.a(__int_vfprintf.o)
 .debug_ranges  0x00000000       0x10 /Applications/microchip/xc32/v4.10/bin/bin/../../lib/gcc/pic32c/8.3.1/../../../../pic32c/lib/thumb/v8-m.base/nofp/libg-musl.a(__int_vfprintf.o)
 .debug_line    0x00000000      0x186 /Applications/microchip/xc32/v4.10/bin/bin/../../lib/gcc/pic32c/8.3.1/../../../../pic32c/lib/thumb/v8-m.base/nofp/libg-musl.a(__int_vfprintf.o)
 .debug_str     0x00000000        0xe /Applications/microchip/xc32/v4.10/bin/bin/../../lib/gcc/pic32c/8.3.1/../../../../pic32c/lib/thumb/v8-m.base/nofp/libg-musl.a(__int_vfprintf.o)
 .comment       0x00000000       0x2c /Applications/microchip/xc32/v4.10/bin/bin/../../lib/gcc/pic32c/8.3.1/../../../../pic32c/lib/thumb/v8-m.base/nofp/libg-musl.a(__int_vfprintf.o)
 .note.GNU-stack
                0x00000000        0x0 /Applications/microchip/xc32/v4.10/bin/bin/../../lib/gcc/pic32c/8.3.1/../../../../pic32c/lib/thumb/v8-m.base/nofp/libg-musl.a(__int_vfprintf.o)
 .debug_frame   0x00000000       0x2c /Applications/microchip/xc32/v4.10/bin/bin/../../lib/gcc/pic32c/8.3.1/../../../../pic32c/lib/thumb/v8-m.base/nofp/libg-musl.a(__int_vfprintf.o)
 .ARM.attributes
                0x00000000       0x32 /Applications/microchip/xc32/v4.10/bin/bin/../../lib/gcc/pic32c/8.3.1/../../../../pic32c/lib/thumb/v8-m.base/nofp/libg-musl.a(__int_vfprintf.o)
 .text          0x00000000        0x0 /Applications/microchip/xc32/v4.10/bin/bin/../../lib/gcc/pic32c/8.3.1/../../../../pic32c/lib/thumb/v8-m.base/nofp/libg-musl.a(__int_vsnprintf.o)
 .data          0x00000000        0x0 /Applications/microchip/xc32/v4.10/bin/bin/../../lib/gcc/pic32c/8.3.1/../../../../pic32c/lib/thumb/v8-m.base/nofp/libg-musl.a(__int_vsnprintf.o)
 .bss           0x00000000        0x0 /Applications/microchip/xc32/v4.10/bin/bin/../../lib/gcc/pic32c/8.3.1/../../../../pic32c/lib/thumb/v8-m.base/nofp/libg-musl.a(__int_vsnprintf.o)
 .xc_stack_usage
                0x00000000       0x19 /Applications/microchip/xc32/v4.10/bin/bin/../../lib/gcc/pic32c/8.3.1/../../../../pic32c/lib/thumb/v8-m.base/nofp/libg-musl.a(__int_vsnprintf.o)
 .text.__vsnprintf
                0x00000000       0x4c /Applications/microchip/xc32/v4.10/bin/bin/../../lib/gcc/pic32c/8.3.1/../../../../pic32c/lib/thumb/v8-m.base/nofp/libg-musl.a(__int_vsnprintf.o)
 .xc_stack_usage.hdr
                0x00000000        0xe /Applications/microchip/xc32/v4.10/bin/bin/../../lib/gcc/pic32c/8.3.1/../../../../pic32c/lib/thumb/v8-m.base/nofp/libg-musl.a(__int_vsnprintf.o)
 .debug_info    0x00000000      0x4ad /Applications/microchip/xc32/v4.10/bin/bin/../../lib/gcc/pic32c/8.3.1/../../../../pic32c/lib/thumb/v8-m.base/nofp/libg-musl.a(__int_vsnprintf.o)
 .debug_abbrev  0x00000000      0x127 /Applications/microchip/xc32/v4.10/bin/bin/../../lib/gcc/pic32c/8.3.1/../../../../pic32c/lib/thumb/v8-m.base/nofp/libg-musl.a(__int_vsnprintf.o)
 .debug_loc     0x00000000      0x102 /Applications/microchip/xc32/v4.10/bin/bin/../../lib/gcc/pic32c/8.3.1/../../../../pic32c/lib/thumb/v8-m.base/nofp/libg-musl.a(__int_vsnprintf.o)
 .debug_aranges
                0x00000000       0x20 /Applications/microchip/xc32/v4.10/bin/bin/../../lib/gcc/pic32c/8.3.1/../../../../pic32c/lib/thumb/v8-m.base/nofp/libg-musl.a(__int_vsnprintf.o)
 .debug_ranges  0x00000000       0x10 /Applications/microchip/xc32/v4.10/bin/bin/../../lib/gcc/pic32c/8.3.1/../../../../pic32c/lib/thumb/v8-m.base/nofp/libg-musl.a(__int_vsnprintf.o)
 .debug_line    0x00000000      0x1d8 /Applications/microchip/xc32/v4.10/bin/bin/../../lib/gcc/pic32c/8.3.1/../../../../pic32c/lib/thumb/v8-m.base/nofp/libg-musl.a(__int_vsnprintf.o)
 .debug_str     0x00000000        0xb /Applications/microchip/xc32/v4.10/bin/bin/../../lib/gcc/pic32c/8.3.1/../../../../pic32c/lib/thumb/v8-m.base/nofp/libg-musl.a(__int_vsnprintf.o)
 .comment       0x00000000       0x2c /Applications/microchip/xc32/v4.10/bin/bin/../../lib/gcc/pic32c/8.3.1/../../../../pic32c/lib/thumb/v8-m.base/nofp/libg-musl.a(__int_vsnprintf.o)
 .note.GNU-stack
                0x00000000        0x0 /Applications/microchip/xc32/v4.10/bin/bin/../../lib/gcc/pic32c/8.3.1/../../../../pic32c/lib/thumb/v8-m.base/nofp/libg-musl.a(__int_vsnprintf.o)
 .debug_frame   0x00000000       0x2c /Applications/microchip/xc32/v4.10/bin/bin/../../lib/gcc/pic32c/8.3.1/../../../../pic32c/lib/thumb/v8-m.base/nofp/libg-musl.a(__int_vsnprintf.o)
 .ARM.attributes
                0x00000000       0x32 /Applications/microchip/xc32/v4.10/bin/bin/../../lib/gcc/pic32c/8.3.1/../../../../pic32c/lib/thumb/v8-m.base/nofp/libg-musl.a(__int_vsnprintf.o)
 .text          0x00000000        0x0 /Applications/microchip/xc32/v4.10/bin/bin/../../lib/gcc/pic32c/8.3.1/../../../../pic32c/lib/thumb/v8-m.base/nofp/libg-musl.a(__string_read.o)
 .data          0x00000000        0x0 /Applications/microchip/xc32/v4.10/bin/bin/../../lib/gcc/pic32c/8.3.1/../../../../pic32c/lib/thumb/v8-m.base/nofp/libg-musl.a(__string_read.o)
 .bss           0x00000000        0x0 /Applications/microchip/xc32/v4.10/bin/bin/../../lib/gcc/pic32c/8.3.1/../../../../pic32c/lib/thumb/v8-m.base/nofp/libg-musl.a(__string_read.o)
 .xc_stack_usage
                0x00000000       0x1b /Applications/microchip/xc32/v4.10/bin/bin/../../lib/gcc/pic32c/8.3.1/../../../../pic32c/lib/thumb/v8-m.base/nofp/libg-musl.a(__string_read.o)
 .xc_stack_usage.hdr
                0x00000000        0xe /Applications/microchip/xc32/v4.10/bin/bin/../../lib/gcc/pic32c/8.3.1/../../../../pic32c/lib/thumb/v8-m.base/nofp/libg-musl.a(__string_read.o)
 .text          0x00000000        0x0 /Applications/microchip/xc32/v4.10/bin/bin/../../lib/gcc/pic32c/8.3.1/../../../../pic32c/lib/thumb/v8-m.base/nofp/libg-musl.a(fputs.o)
 .data          0x00000000        0x0 /Applications/microchip/xc32/v4.10/bin/bin/../../lib/gcc/pic32c/8.3.1/../../../../pic32c/lib/thumb/v8-m.base/nofp/libg-musl.a(fputs.o)
 .bss           0x00000000        0x0 /Applications/microchip/xc32/v4.10/bin/bin/../../lib/gcc/pic32c/8.3.1/../../../../pic32c/lib/thumb/v8-m.base/nofp/libg-musl.a(fputs.o)
 .xc_stack_usage
                0x00000000       0x13 /Applications/microchip/xc32/v4.10/bin/bin/../../lib/gcc/pic32c/8.3.1/../../../../pic32c/lib/thumb/v8-m.base/nofp/libg-musl.a(fputs.o)
 .xc_stack_usage.hdr
                0x00000000        0xe /Applications/microchip/xc32/v4.10/bin/bin/../../lib/gcc/pic32c/8.3.1/../../../../pic32c/lib/thumb/v8-m.base/nofp/libg-musl.a(fputs.o)
 .text          0x00000000        0x0 /Applications/microchip/xc32/v4.10/bin/bin/../../lib/gcc/pic32c/8.3.1/../../../../pic32c/lib/thumb/v8-m.base/nofp/libg-musl.a(__io_init_needed.o)
 .data          0x00000000        0x0 /Applications/microchip/xc32/v4.10/bin/bin/../../lib/gcc/pic32c/8.3.1/../../../../pic32c/lib/thumb/v8-m.base/nofp/libg-musl.a(__io_init_needed.o)
 .bss           0x00000000        0x0 /Applications/microchip/xc32/v4.10/bin/bin/../../lib/gcc/pic32c/8.3.1/../../../../pic32c/lib/thumb/v8-m.base/nofp/libg-musl.a(__io_init_needed.o)
 .xc_stack_usage
                0x00000000       0x40 /Applications/microchip/xc32/v4.10/bin/bin/../../lib/gcc/pic32c/8.3.1/../../../../pic32c/lib/thumb/v8-m.base/nofp/libg-musl.a(__io_init_needed.o)
 .xc_stack_usage.hdr
                0x00000000        0xe /Applications/microchip/xc32/v4.10/bin/bin/../../lib/gcc/pic32c/8.3.1/../../../../pic32c/lib/thumb/v8-m.base/nofp/libg-musl.a(__io_init_needed.o)
 .debug_info    0x00000000      0x36f /Applications/microchip/xc32/v4.10/bin/bin/../../lib/gcc/pic32c/8.3.1/../../../../pic32c/lib/thumb/v8-m.base/nofp/libg-musl.a(__io_init_needed.o)
 .debug_abbrev  0x00000000       0x76 /Applications/microchip/xc32/v4.10/bin/bin/../../lib/gcc/pic32c/8.3.1/../../../../pic32c/lib/thumb/v8-m.base/nofp/libg-musl.a(__io_init_needed.o)
 .debug_loc     0x00000000       0x40 /Applications/microchip/xc32/v4.10/bin/bin/../../lib/gcc/pic32c/8.3.1/../../../../pic32c/lib/thumb/v8-m.base/nofp/libg-musl.a(__io_init_needed.o)
 .debug_aranges
                0x00000000       0x28 /Applications/microchip/xc32/v4.10/bin/bin/../../lib/gcc/pic32c/8.3.1/../../../../pic32c/lib/thumb/v8-m.base/nofp/libg-musl.a(__io_init_needed.o)
 .debug_ranges  0x00000000       0x18 /Applications/microchip/xc32/v4.10/bin/bin/../../lib/gcc/pic32c/8.3.1/../../../../pic32c/lib/thumb/v8-m.base/nofp/libg-musl.a(__io_init_needed.o)
 .debug_line    0x00000000      0x14b /Applications/microchip/xc32/v4.10/bin/bin/../../lib/gcc/pic32c/8.3.1/../../../../pic32c/lib/thumb/v8-m.base/nofp/libg-musl.a(__io_init_needed.o)
 .debug_str     0x00000000       0x25 /Applications/microchip/xc32/v4.10/bin/bin/../../lib/gcc/pic32c/8.3.1/../../../../pic32c/lib/thumb/v8-m.base/nofp/libg-musl.a(__io_init_needed.o)
 .comment       0x00000000       0x2c /Applications/microchip/xc32/v4.10/bin/bin/../../lib/gcc/pic32c/8.3.1/../../../../pic32c/lib/thumb/v8-m.base/nofp/libg-musl.a(__io_init_needed.o)
 .note.GNU-stack
                0x00000000        0x0 /Applications/microchip/xc32/v4.10/bin/bin/../../lib/gcc/pic32c/8.3.1/../../../../pic32c/lib/thumb/v8-m.base/nofp/libg-musl.a(__io_init_needed.o)
 .debug_frame   0x00000000       0x40 /Applications/microchip/xc32/v4.10/bin/bin/../../lib/gcc/pic32c/8.3.1/../../../../pic32c/lib/thumb/v8-m.base/nofp/libg-musl.a(__io_init_needed.o)
 .ARM.attributes
                0x00000000       0x32 /Applications/microchip/xc32/v4.10/bin/bin/../../lib/gcc/pic32c/8.3.1/../../../../pic32c/lib/thumb/v8-m.base/nofp/libg-musl.a(__io_init_needed.o)
 .text          0x00000000        0x0 /Applications/microchip/xc32/v4.10/bin/bin/../../lib/gcc/pic32c/8.3.1/../../../../pic32c/lib/thumb/v8-m.base/nofp/libg-musl.a(__io_rw_needed.o)
 .data          0x00000000        0x0 /Applications/microchip/xc32/v4.10/bin/bin/../../lib/gcc/pic32c/8.3.1/../../../../pic32c/lib/thumb/v8-m.base/nofp/libg-musl.a(__io_rw_needed.o)
 .bss           0x00000000        0x0 /Applications/microchip/xc32/v4.10/bin/bin/../../lib/gcc/pic32c/8.3.1/../../../../pic32c/lib/thumb/v8-m.base/nofp/libg-musl.a(__io_rw_needed.o)
 .xc_stack_usage
                0x00000000       0x1c /Applications/microchip/xc32/v4.10/bin/bin/../../lib/gcc/pic32c/8.3.1/../../../../pic32c/lib/thumb/v8-m.base/nofp/libg-musl.a(__io_rw_needed.o)
 .xc_stack_usage.hdr
                0x00000000        0xe /Applications/microchip/xc32/v4.10/bin/bin/../../lib/gcc/pic32c/8.3.1/../../../../pic32c/lib/thumb/v8-m.base/nofp/libg-musl.a(__io_rw_needed.o)
 .debug_info    0x00000000      0x36d /Applications/microchip/xc32/v4.10/bin/bin/../../lib/gcc/pic32c/8.3.1/../../../../pic32c/lib/thumb/v8-m.base/nofp/libg-musl.a(__io_rw_needed.o)
 .debug_abbrev  0x00000000       0x5c /Applications/microchip/xc32/v4.10/bin/bin/../../lib/gcc/pic32c/8.3.1/../../../../pic32c/lib/thumb/v8-m.base/nofp/libg-musl.a(__io_rw_needed.o)
 .debug_loc     0x00000000       0x20 /Applications/microchip/xc32/v4.10/bin/bin/../../lib/gcc/pic32c/8.3.1/../../../../pic32c/lib/thumb/v8-m.base/nofp/libg-musl.a(__io_rw_needed.o)
 .debug_aranges
                0x00000000       0x20 /Applications/microchip/xc32/v4.10/bin/bin/../../lib/gcc/pic32c/8.3.1/../../../../pic32c/lib/thumb/v8-m.base/nofp/libg-musl.a(__io_rw_needed.o)
 .debug_ranges  0x00000000       0x10 /Applications/microchip/xc32/v4.10/bin/bin/../../lib/gcc/pic32c/8.3.1/../../../../pic32c/lib/thumb/v8-m.base/nofp/libg-musl.a(__io_rw_needed.o)
 .debug_line    0x00000000      0x141 /Applications/microchip/xc32/v4.10/bin/bin/../../lib/gcc/pic32c/8.3.1/../../../../pic32c/lib/thumb/v8-m.base/nofp/libg-musl.a(__io_rw_needed.o)
 .debug_str     0x00000000       0x4d /Applications/microchip/xc32/v4.10/bin/bin/../../lib/gcc/pic32c/8.3.1/../../../../pic32c/lib/thumb/v8-m.base/nofp/libg-musl.a(__io_rw_needed.o)
 .comment       0x00000000       0x2c /Applications/microchip/xc32/v4.10/bin/bin/../../lib/gcc/pic32c/8.3.1/../../../../pic32c/lib/thumb/v8-m.base/nofp/libg-musl.a(__io_rw_needed.o)
 .note.GNU-stack
                0x00000000        0x0 /Applications/microchip/xc32/v4.10/bin/bin/../../lib/gcc/pic32c/8.3.1/../../../../pic32c/lib/thumb/v8-m.base/nofp/libg-musl.a(__io_rw_needed.o)
 .debug_frame   0x00000000       0x28 /Applications/microchip/xc32/v4.10/bin/bin/../../lib/gcc/pic32c/8.3.1/../../../../pic32c/lib/thumb/v8-m.base/nofp/libg-musl.a(__io_rw_needed.o)
 .ARM.attributes
                0x00000000       0x32 /Applications/microchip/xc32/v4.10/bin/bin/../../lib/gcc/pic32c/8.3.1/../../../../pic32c/lib/thumb/v8-m.base/nofp/libg-musl.a(__io_rw_needed.o)
 .text          0x00000000        0x0 /Applications/microchip/xc32/v4.10/bin/bin/../../lib/gcc/pic32c/8.3.1/../../../../pic32c/lib/thumb/v8-m.base/nofp/libg-musl.a(__out.o)
 .data          0x00000000        0x0 /Applications/microchip/xc32/v4.10/bin/bin/../../lib/gcc/pic32c/8.3.1/../../../../pic32c/lib/thumb/v8-m.base/nofp/libg-musl.a(__out.o)
 .bss           0x00000000        0x0 /Applications/microchip/xc32/v4.10/bin/bin/../../lib/gcc/pic32c/8.3.1/../../../../pic32c/lib/thumb/v8-m.base/nofp/libg-musl.a(__out.o)
 .xc_stack_usage
                0x00000000       0x2d /Applications/microchip/xc32/v4.10/bin/bin/../../lib/gcc/pic32c/8.3.1/../../../../pic32c/lib/thumb/v8-m.base/nofp/libg-musl.a(__out.o)
 .xc_stack_usage.hdr
                0x00000000        0xe /Applications/microchip/xc32/v4.10/bin/bin/../../lib/gcc/pic32c/8.3.1/../../../../pic32c/lib/thumb/v8-m.base/nofp/libg-musl.a(__out.o)
 .text          0x00000000        0x0 /Applications/microchip/xc32/v4.10/bin/bin/../../lib/gcc/pic32c/8.3.1/../../../../pic32c/lib/thumb/v8-m.base/nofp/libg-musl.a(__pop_float.o)
 .data          0x00000000        0x0 /Applications/microchip/xc32/v4.10/bin/bin/../../lib/gcc/pic32c/8.3.1/../../../../pic32c/lib/thumb/v8-m.base/nofp/libg-musl.a(__pop_float.o)
 .bss           0x00000000        0x0 /Applications/microchip/xc32/v4.10/bin/bin/../../lib/gcc/pic32c/8.3.1/../../../../pic32c/lib/thumb/v8-m.base/nofp/libg-musl.a(__pop_float.o)
 .xc_stack_usage
                0x00000000       0x19 /Applications/microchip/xc32/v4.10/bin/bin/../../lib/gcc/pic32c/8.3.1/../../../../pic32c/lib/thumb/v8-m.base/nofp/libg-musl.a(__pop_float.o)
 .xc_stack_usage.hdr
                0x00000000        0xe /Applications/microchip/xc32/v4.10/bin/bin/../../lib/gcc/pic32c/8.3.1/../../../../pic32c/lib/thumb/v8-m.base/nofp/libg-musl.a(__pop_float.o)
 .text          0x00000000        0x0 /Applications/microchip/xc32/v4.10/bin/bin/../../lib/gcc/pic32c/8.3.1/../../../../pic32c/lib/thumb/v8-m.base/nofp/libg-musl.a(__pop_int.o)
 .data          0x00000000        0x0 /Applications/microchip/xc32/v4.10/bin/bin/../../lib/gcc/pic32c/8.3.1/../../../../pic32c/lib/thumb/v8-m.base/nofp/libg-musl.a(__pop_int.o)
 .bss           0x00000000        0x0 /Applications/microchip/xc32/v4.10/bin/bin/../../lib/gcc/pic32c/8.3.1/../../../../pic32c/lib/thumb/v8-m.base/nofp/libg-musl.a(__pop_int.o)
 .xc_stack_usage
                0x00000000       0x17 /Applications/microchip/xc32/v4.10/bin/bin/../../lib/gcc/pic32c/8.3.1/../../../../pic32c/lib/thumb/v8-m.base/nofp/libg-musl.a(__pop_int.o)
 .xc_stack_usage.hdr
                0x00000000        0xe /Applications/microchip/xc32/v4.10/bin/bin/../../lib/gcc/pic32c/8.3.1/../../../../pic32c/lib/thumb/v8-m.base/nofp/libg-musl.a(__pop_int.o)
 .text          0x00000000        0x0 /Applications/microchip/xc32/v4.10/bin/bin/../../lib/gcc/pic32c/8.3.1/../../../../pic32c/lib/thumb/v8-m.base/nofp/libg-musl.a(__pop_ptr.o)
 .data          0x00000000        0x0 /Applications/microchip/xc32/v4.10/bin/bin/../../lib/gcc/pic32c/8.3.1/../../../../pic32c/lib/thumb/v8-m.base/nofp/libg-musl.a(__pop_ptr.o)
 .bss           0x00000000        0x0 /Applications/microchip/xc32/v4.10/bin/bin/../../lib/gcc/pic32c/8.3.1/../../../../pic32c/lib/thumb/v8-m.base/nofp/libg-musl.a(__pop_ptr.o)
 .xc_stack_usage
                0x00000000       0x17 /Applications/microchip/xc32/v4.10/bin/bin/../../lib/gcc/pic32c/8.3.1/../../../../pic32c/lib/thumb/v8-m.base/nofp/libg-musl.a(__pop_ptr.o)
 .xc_stack_usage.hdr
                0x00000000        0xe /Applications/microchip/xc32/v4.10/bin/bin/../../lib/gcc/pic32c/8.3.1/../../../../pic32c/lib/thumb/v8-m.base/nofp/libg-musl.a(__pop_ptr.o)
 .text          0x00000000        0x0 /Applications/microchip/xc32/v4.10/bin/bin/../../lib/gcc/pic32c/8.3.1/../../../../pic32c/lib/thumb/v8-m.base/nofp/libg-musl.a(__stdio_read.o)
 .data          0x00000000        0x0 /Applications/microchip/xc32/v4.10/bin/bin/../../lib/gcc/pic32c/8.3.1/../../../../pic32c/lib/thumb/v8-m.base/nofp/libg-musl.a(__stdio_read.o)
 .bss           0x00000000        0x0 /Applications/microchip/xc32/v4.10/bin/bin/../../lib/gcc/pic32c/8.3.1/../../../../pic32c/lib/thumb/v8-m.base/nofp/libg-musl.a(__stdio_read.o)
 .xc_stack_usage
                0x00000000       0x1a /Applications/microchip/xc32/v4.10/bin/bin/../../lib/gcc/pic32c/8.3.1/../../../../pic32c/lib/thumb/v8-m.base/nofp/libg-musl.a(__stdio_read.o)
 .xc_stack_usage.hdr
                0x00000000        0xe /Applications/microchip/xc32/v4.10/bin/bin/../../lib/gcc/pic32c/8.3.1/../../../../pic32c/lib/thumb/v8-m.base/nofp/libg-musl.a(__stdio_read.o)
 .text          0x00000000        0x0 /Applications/microchip/xc32/v4.10/bin/bin/../../lib/gcc/pic32c/8.3.1/../../../../pic32c/lib/thumb/v8-m.base/nofp/libg-musl.a(__towrite_rw.o)
 .data          0x00000000        0x0 /Applications/microchip/xc32/v4.10/bin/bin/../../lib/gcc/pic32c/8.3.1/../../../../pic32c/lib/thumb/v8-m.base/nofp/libg-musl.a(__towrite_rw.o)
 .bss           0x00000000        0x0 /Applications/microchip/xc32/v4.10/bin/bin/../../lib/gcc/pic32c/8.3.1/../../../../pic32c/lib/thumb/v8-m.base/nofp/libg-musl.a(__towrite_rw.o)
 .xc_stack_usage
                0x00000000       0x1a /Applications/microchip/xc32/v4.10/bin/bin/../../lib/gcc/pic32c/8.3.1/../../../../pic32c/lib/thumb/v8-m.base/nofp/libg-musl.a(__towrite_rw.o)
 .xc_stack_usage.hdr
                0x00000000        0xe /Applications/microchip/xc32/v4.10/bin/bin/../../lib/gcc/pic32c/8.3.1/../../../../pic32c/lib/thumb/v8-m.base/nofp/libg-musl.a(__towrite_rw.o)
 .text          0x00000000        0x0 /Applications/microchip/xc32/v4.10/bin/bin/../../lib/gcc/pic32c/8.3.1/../../../../pic32c/lib/thumb/v8-m.base/nofp/libg-musl.a(setvbuf.o)
 .data          0x00000000        0x0 /Applications/microchip/xc32/v4.10/bin/bin/../../lib/gcc/pic32c/8.3.1/../../../../pic32c/lib/thumb/v8-m.base/nofp/libg-musl.a(setvbuf.o)
 .bss           0x00000000        0x0 /Applications/microchip/xc32/v4.10/bin/bin/../../lib/gcc/pic32c/8.3.1/../../../../pic32c/lib/thumb/v8-m.base/nofp/libg-musl.a(setvbuf.o)
 .xc_stack_usage
                0x00000000       0x36 /Applications/microchip/xc32/v4.10/bin/bin/../../lib/gcc/pic32c/8.3.1/../../../../pic32c/lib/thumb/v8-m.base/nofp/libg-musl.a(setvbuf.o)
 .xc_stack_usage.hdr
                0x00000000        0xe /Applications/microchip/xc32/v4.10/bin/bin/../../lib/gcc/pic32c/8.3.1/../../../../pic32c/lib/thumb/v8-m.base/nofp/libg-musl.a(setvbuf.o)
 .text          0x00000000        0x0 /Applications/microchip/xc32/v4.10/bin/bin/../../lib/gcc/pic32c/8.3.1/../../../../pic32c/lib/thumb/v8-m.base/nofp/libg-musl.a(vfscanf.o)
 .data          0x00000000        0x0 /Applications/microchip/xc32/v4.10/bin/bin/../../lib/gcc/pic32c/8.3.1/../../../../pic32c/lib/thumb/v8-m.base/nofp/libg-musl.a(vfscanf.o)
 .bss           0x00000000        0x0 /Applications/microchip/xc32/v4.10/bin/bin/../../lib/gcc/pic32c/8.3.1/../../../../pic32c/lib/thumb/v8-m.base/nofp/libg-musl.a(vfscanf.o)
 .xc_stack_usage
                0x00000000       0x37 /Applications/microchip/xc32/v4.10/bin/bin/../../lib/gcc/pic32c/8.3.1/../../../../pic32c/lib/thumb/v8-m.base/nofp/libg-musl.a(vfscanf.o)
 .xc_stack_usage.hdr
                0x00000000        0xe /Applications/microchip/xc32/v4.10/bin/bin/../../lib/gcc/pic32c/8.3.1/../../../../pic32c/lib/thumb/v8-m.base/nofp/libg-musl.a(vfscanf.o)
 .text          0x00000000        0x0 /Applications/microchip/xc32/v4.10/bin/bin/../../lib/gcc/pic32c/8.3.1/../../../../pic32c/lib/thumb/v8-m.base/nofp/libg-musl.a(snprintf.o)
 .data          0x00000000        0x0 /Applications/microchip/xc32/v4.10/bin/bin/../../lib/gcc/pic32c/8.3.1/../../../../pic32c/lib/thumb/v8-m.base/nofp/libg-musl.a(snprintf.o)
 .bss           0x00000000        0x0 /Applications/microchip/xc32/v4.10/bin/bin/../../lib/gcc/pic32c/8.3.1/../../../../pic32c/lib/thumb/v8-m.base/nofp/libg-musl.a(snprintf.o)
 .xc_stack_usage
                0x00000000       0x16 /Applications/microchip/xc32/v4.10/bin/bin/../../lib/gcc/pic32c/8.3.1/../../../../pic32c/lib/thumb/v8-m.base/nofp/libg-musl.a(snprintf.o)
 .xc_stack_usage.hdr
                0x00000000        0xe /Applications/microchip/xc32/v4.10/bin/bin/../../lib/gcc/pic32c/8.3.1/../../../../pic32c/lib/thumb/v8-m.base/nofp/libg-musl.a(snprintf.o)
 .text          0x00000000        0x0 /Applications/microchip/xc32/v4.10/bin/bin/../../lib/gcc/pic32c/8.3.1/../../../../pic32c/lib/thumb/v8-m.base/nofp/libg-musl.a(abs.o)
 .data          0x00000000        0x0 /Applications/microchip/xc32/v4.10/bin/bin/../../lib/gcc/pic32c/8.3.1/../../../../pic32c/lib/thumb/v8-m.base/nofp/libg-musl.a(abs.o)
 .bss           0x00000000        0x0 /Applications/microchip/xc32/v4.10/bin/bin/../../lib/gcc/pic32c/8.3.1/../../../../pic32c/lib/thumb/v8-m.base/nofp/libg-musl.a(abs.o)
 .xc_stack_usage
                0x00000000       0x11 /Applications/microchip/xc32/v4.10/bin/bin/../../lib/gcc/pic32c/8.3.1/../../../../pic32c/lib/thumb/v8-m.base/nofp/libg-musl.a(abs.o)
 .xc_stack_usage.hdr
                0x00000000        0xe /Applications/microchip/xc32/v4.10/bin/bin/../../lib/gcc/pic32c/8.3.1/../../../../pic32c/lib/thumb/v8-m.base/nofp/libg-musl.a(abs.o)
 .text          0x00000000        0x0 /Applications/microchip/xc32/v4.10/bin/bin/../../lib/gcc/pic32c/8.3.1/../../../../pic32c/lib/thumb/v8-m.base/nofp/libg-musl.a(strtol.o)
 .data          0x00000000        0x0 /Applications/microchip/xc32/v4.10/bin/bin/../../lib/gcc/pic32c/8.3.1/../../../../pic32c/lib/thumb/v8-m.base/nofp/libg-musl.a(strtol.o)
 .bss           0x00000000        0x0 /Applications/microchip/xc32/v4.10/bin/bin/../../lib/gcc/pic32c/8.3.1/../../../../pic32c/lib/thumb/v8-m.base/nofp/libg-musl.a(strtol.o)
 .xc_stack_usage
                0x00000000       0x96 /Applications/microchip/xc32/v4.10/bin/bin/../../lib/gcc/pic32c/8.3.1/../../../../pic32c/lib/thumb/v8-m.base/nofp/libg-musl.a(strtol.o)
 .text.strtol   0x00000000       0x12 /Applications/microchip/xc32/v4.10/bin/bin/../../lib/gcc/pic32c/8.3.1/../../../../pic32c/lib/thumb/v8-m.base/nofp/libg-musl.a(strtol.o)
 .text.strtoimax
                0x00000000        0x8 /Applications/microchip/xc32/v4.10/bin/bin/../../lib/gcc/pic32c/8.3.1/../../../../pic32c/lib/thumb/v8-m.base/nofp/libg-musl.a(strtol.o)
 .text.strtoumax
                0x00000000        0x8 /Applications/microchip/xc32/v4.10/bin/bin/../../lib/gcc/pic32c/8.3.1/../../../../pic32c/lib/thumb/v8-m.base/nofp/libg-musl.a(strtol.o)
 .xc_stack_usage.hdr
                0x00000000        0xe /Applications/microchip/xc32/v4.10/bin/bin/../../lib/gcc/pic32c/8.3.1/../../../../pic32c/lib/thumb/v8-m.base/nofp/libg-musl.a(strtol.o)
 .text          0x00000000        0x0 /Applications/microchip/xc32/v4.10/bin/bin/../../lib/gcc/pic32c/8.3.1/../../../../pic32c/lib/thumb/v8-m.base/nofp/libg-musl.a(memchr.o)
 .data          0x00000000        0x0 /Applications/microchip/xc32/v4.10/bin/bin/../../lib/gcc/pic32c/8.3.1/../../../../pic32c/lib/thumb/v8-m.base/nofp/libg-musl.a(memchr.o)
 .bss           0x00000000        0x0 /Applications/microchip/xc32/v4.10/bin/bin/../../lib/gcc/pic32c/8.3.1/../../../../pic32c/lib/thumb/v8-m.base/nofp/libg-musl.a(memchr.o)
 .xc_stack_usage
                0x00000000       0x14 /Applications/microchip/xc32/v4.10/bin/bin/../../lib/gcc/pic32c/8.3.1/../../../../pic32c/lib/thumb/v8-m.base/nofp/libg-musl.a(memchr.o)
 .xc_stack_usage.hdr
                0x00000000        0xe /Applications/microchip/xc32/v4.10/bin/bin/../../lib/gcc/pic32c/8.3.1/../../../../pic32c/lib/thumb/v8-m.base/nofp/libg-musl.a(memchr.o)
 .text          0x00000000        0x0 /Applications/microchip/xc32/v4.10/bin/bin/../../lib/gcc/pic32c/8.3.1/../../../../pic32c/lib/thumb/v8-m.base/nofp/libg-musl.a(stpcpy.o)
 .data          0x00000000        0x0 /Applications/microchip/xc32/v4.10/bin/bin/../../lib/gcc/pic32c/8.3.1/../../../../pic32c/lib/thumb/v8-m.base/nofp/libg-musl.a(stpcpy.o)
 .bss           0x00000000        0x0 /Applications/microchip/xc32/v4.10/bin/bin/../../lib/gcc/pic32c/8.3.1/../../../../pic32c/lib/thumb/v8-m.base/nofp/libg-musl.a(stpcpy.o)
 .xc_stack_usage
                0x00000000       0x14 /Applications/microchip/xc32/v4.10/bin/bin/../../lib/gcc/pic32c/8.3.1/../../../../pic32c/lib/thumb/v8-m.base/nofp/libg-musl.a(stpcpy.o)
 .xc_stack_usage.hdr
                0x00000000        0xe /Applications/microchip/xc32/v4.10/bin/bin/../../lib/gcc/pic32c/8.3.1/../../../../pic32c/lib/thumb/v8-m.base/nofp/libg-musl.a(stpcpy.o)
 .text          0x00000000        0x0 /Applications/microchip/xc32/v4.10/bin/bin/../../lib/gcc/pic32c/8.3.1/../../../../pic32c/lib/thumb/v8-m.base/nofp/libg-musl.a(__tm_to_secs.o)
 .data          0x00000000        0x0 /Applications/microchip/xc32/v4.10/bin/bin/../../lib/gcc/pic32c/8.3.1/../../../../pic32c/lib/thumb/v8-m.base/nofp/libg-musl.a(__tm_to_secs.o)
 .bss           0x00000000        0x0 /Applications/microchip/xc32/v4.10/bin/bin/../../lib/gcc/pic32c/8.3.1/../../../../pic32c/lib/thumb/v8-m.base/nofp/libg-musl.a(__tm_to_secs.o)
 .xc_stack_usage
                0x00000000       0x1a /Applications/microchip/xc32/v4.10/bin/bin/../../lib/gcc/pic32c/8.3.1/../../../../pic32c/lib/thumb/v8-m.base/nofp/libg-musl.a(__tm_to_secs.o)
 .xc_stack_usage.hdr
                0x00000000        0xe /Applications/microchip/xc32/v4.10/bin/bin/../../lib/gcc/pic32c/8.3.1/../../../../pic32c/lib/thumb/v8-m.base/nofp/libg-musl.a(__tm_to_secs.o)
 .text          0x00000000        0x0 /Applications/microchip/xc32/v4.10/bin/bin/../../lib/gcc/pic32c/8.3.1/../../../../pic32c/lib/thumb/v8-m.base/nofp/libg-musl.a(__year_to_secs.o)
 .data          0x00000000        0x0 /Applications/microchip/xc32/v4.10/bin/bin/../../lib/gcc/pic32c/8.3.1/../../../../pic32c/lib/thumb/v8-m.base/nofp/libg-musl.a(__year_to_secs.o)
 .bss           0x00000000        0x0 /Applications/microchip/xc32/v4.10/bin/bin/../../lib/gcc/pic32c/8.3.1/../../../../pic32c/lib/thumb/v8-m.base/nofp/libg-musl.a(__year_to_secs.o)
 .xc_stack_usage
                0x00000000       0x1c /Applications/microchip/xc32/v4.10/bin/bin/../../lib/gcc/pic32c/8.3.1/../../../../pic32c/lib/thumb/v8-m.base/nofp/libg-musl.a(__year_to_secs.o)
 .xc_stack_usage.hdr
                0x00000000        0xe /Applications/microchip/xc32/v4.10/bin/bin/../../lib/gcc/pic32c/8.3.1/../../../../pic32c/lib/thumb/v8-m.base/nofp/libg-musl.a(__year_to_secs.o)
 .text          0x00000000        0x0 /Applications/microchip/xc32/v4.10/bin/bin/../../lib/gcc/pic32c/8.3.1/../../../../pic32c/lib/thumb/v8-m.base/nofp/libg-musl.a(__tz.o)
 .xc_stack_usage
                0x00000000       0xcf /Applications/microchip/xc32/v4.10/bin/bin/../../lib/gcc/pic32c/8.3.1/../../../../pic32c/lib/thumb/v8-m.base/nofp/libg-musl.a(__tz.o)
 .text.rule_to_secs
                0x00000000       0xc8 /Applications/microchip/xc32/v4.10/bin/bin/../../lib/gcc/pic32c/8.3.1/../../../../pic32c/lib/thumb/v8-m.base/nofp/libg-musl.a(__tz.o)
 .text.__secs_to_zone
                0x00000000      0x160 /Applications/microchip/xc32/v4.10/bin/bin/../../lib/gcc/pic32c/8.3.1/../../../../pic32c/lib/thumb/v8-m.base/nofp/libg-musl.a(__tz.o)
 .text.__tzset  0x00000000        0x8 /Applications/microchip/xc32/v4.10/bin/bin/../../lib/gcc/pic32c/8.3.1/../../../../pic32c/lib/thumb/v8-m.base/nofp/libg-musl.a(__tz.o)
 .xc_stack_usage.hdr
                0x00000000        0xe /Applications/microchip/xc32/v4.10/bin/bin/../../lib/gcc/pic32c/8.3.1/../../../../pic32c/lib/thumb/v8-m.base/nofp/libg-musl.a(__tz.o)
 .text          0x00000000        0x0 /Applications/microchip/xc32/v4.10/bin/bin/../../lib/gcc/pic32c/8.3.1/../../../../pic32c/lib/thumb/v8-m.base/nofp/libg-musl.a(clock_gettime.o)
 .data          0x00000000        0x0 /Applications/microchip/xc32/v4.10/bin/bin/../../lib/gcc/pic32c/8.3.1/../../../../pic32c/lib/thumb/v8-m.base/nofp/libg-musl.a(clock_gettime.o)
 .bss           0x00000000        0x0 /Applications/microchip/xc32/v4.10/bin/bin/../../lib/gcc/pic32c/8.3.1/../../../../pic32c/lib/thumb/v8-m.base/nofp/libg-musl.a(clock_gettime.o)
 .xc_stack_usage
                0x00000000       0x1d /Applications/microchip/xc32/v4.10/bin/bin/../../lib/gcc/pic32c/8.3.1/../../../../pic32c/lib/thumb/v8-m.base/nofp/libg-musl.a(clock_gettime.o)
 .xc_stack_usage.hdr
                0x00000000        0xe /Applications/microchip/xc32/v4.10/bin/bin/../../lib/gcc/pic32c/8.3.1/../../../../pic32c/lib/thumb/v8-m.base/nofp/libg-musl.a(clock_gettime.o)
 .text          0x00000000        0x0 /Applications/microchip/xc32/v4.10/bin/bin/../../lib/gcc/pic32c/8.3.1/../../../../pic32c/lib/thumb/v8-m.base/nofp/libg-musl.a(gettimeofday.o)
 .data          0x00000000        0x0 /Applications/microchip/xc32/v4.10/bin/bin/../../lib/gcc/pic32c/8.3.1/../../../../pic32c/lib/thumb/v8-m.base/nofp/libg-musl.a(gettimeofday.o)
 .bss           0x00000000        0x0 /Applications/microchip/xc32/v4.10/bin/bin/../../lib/gcc/pic32c/8.3.1/../../../../pic32c/lib/thumb/v8-m.base/nofp/libg-musl.a(gettimeofday.o)
 .xc_stack_usage
                0x00000000       0x1c /Applications/microchip/xc32/v4.10/bin/bin/../../lib/gcc/pic32c/8.3.1/../../../../pic32c/lib/thumb/v8-m.base/nofp/libg-musl.a(gettimeofday.o)
 .xc_stack_usage.hdr
                0x00000000        0xe /Applications/microchip/xc32/v4.10/bin/bin/../../lib/gcc/pic32c/8.3.1/../../../../pic32c/lib/thumb/v8-m.base/nofp/libg-musl.a(gettimeofday.o)
 .text          0x00000000        0x0 /Applications/microchip/xc32/v4.10/bin/bin/../../lib/gcc/pic32c/8.3.1/../../../../pic32c/lib/thumb/v8-m.base/nofp/libg-musl.a(gmtime_r.o)
 .data          0x00000000        0x0 /Applications/microchip/xc32/v4.10/bin/bin/../../lib/gcc/pic32c/8.3.1/../../../../pic32c/lib/thumb/v8-m.base/nofp/libg-musl.a(gmtime_r.o)
 .bss           0x00000000        0x0 /Applications/microchip/xc32/v4.10/bin/bin/../../lib/gcc/pic32c/8.3.1/../../../../pic32c/lib/thumb/v8-m.base/nofp/libg-musl.a(gmtime_r.o)
 .xc_stack_usage
                0x00000000       0x18 /Applications/microchip/xc32/v4.10/bin/bin/../../lib/gcc/pic32c/8.3.1/../../../../pic32c/lib/thumb/v8-m.base/nofp/libg-musl.a(gmtime_r.o)
 .xc_stack_usage.hdr
                0x00000000        0xe /Applications/microchip/xc32/v4.10/bin/bin/../../lib/gcc/pic32c/8.3.1/../../../../pic32c/lib/thumb/v8-m.base/nofp/libg-musl.a(gmtime_r.o)
 .text          0x00000000        0x0 /Applications/microchip/xc32/v4.10/bin/bin/../../lib/gcc/pic32c/8.3.1/../../../../pic32c/lib/thumb/v8-m.base/nofp/libg-musl.a(readv.o)
 .data          0x00000000        0x0 /Applications/microchip/xc32/v4.10/bin/bin/../../lib/gcc/pic32c/8.3.1/../../../../pic32c/lib/thumb/v8-m.base/nofp/libg-musl.a(readv.o)
 .bss           0x00000000        0x0 /Applications/microchip/xc32/v4.10/bin/bin/../../lib/gcc/pic32c/8.3.1/../../../../pic32c/lib/thumb/v8-m.base/nofp/libg-musl.a(readv.o)
 .xc_stack_usage
                0x00000000       0x15 /Applications/microchip/xc32/v4.10/bin/bin/../../lib/gcc/pic32c/8.3.1/../../../../pic32c/lib/thumb/v8-m.base/nofp/libg-musl.a(readv.o)
 .xc_stack_usage.hdr
                0x00000000        0xe /Applications/microchip/xc32/v4.10/bin/bin/../../lib/gcc/pic32c/8.3.1/../../../../pic32c/lib/thumb/v8-m.base/nofp/libg-musl.a(readv.o)
 .text          0x00000000        0x0 /Applications/microchip/xc32/v4.10/bin/bin/../../lib/gcc/pic32c/8.3.1/../../../../pic32c/lib/thumb/v8-m.base/nofp/libg-musl.a(intscan.o)
 .data          0x00000000        0x0 /Applications/microchip/xc32/v4.10/bin/bin/../../lib/gcc/pic32c/8.3.1/../../../../pic32c/lib/thumb/v8-m.base/nofp/libg-musl.a(intscan.o)
 .bss           0x00000000        0x0 /Applications/microchip/xc32/v4.10/bin/bin/../../lib/gcc/pic32c/8.3.1/../../../../pic32c/lib/thumb/v8-m.base/nofp/libg-musl.a(intscan.o)
 .xc_stack_usage
                0x00000000       0x17 /Applications/microchip/xc32/v4.10/bin/bin/../../lib/gcc/pic32c/8.3.1/../../../../pic32c/lib/thumb/v8-m.base/nofp/libg-musl.a(intscan.o)
 .xc_stack_usage.hdr
                0x00000000        0xe /Applications/microchip/xc32/v4.10/bin/bin/../../lib/gcc/pic32c/8.3.1/../../../../pic32c/lib/thumb/v8-m.base/nofp/libg-musl.a(intscan.o)
 .text          0x00000000        0x0 /Applications/microchip/xc32/v4.10/bin/bin/../../lib/gcc/pic32c/8.3.1/../../../../pic32c/lib/thumb/v8-m.base/nofp/libg-musl.a(syscall_ret.o)
 .data          0x00000000        0x0 /Applications/microchip/xc32/v4.10/bin/bin/../../lib/gcc/pic32c/8.3.1/../../../../pic32c/lib/thumb/v8-m.base/nofp/libg-musl.a(syscall_ret.o)
 .bss           0x00000000        0x0 /Applications/microchip/xc32/v4.10/bin/bin/../../lib/gcc/pic32c/8.3.1/../../../../pic32c/lib/thumb/v8-m.base/nofp/libg-musl.a(syscall_ret.o)
 .xc_stack_usage
                0x00000000       0x1b /Applications/microchip/xc32/v4.10/bin/bin/../../lib/gcc/pic32c/8.3.1/../../../../pic32c/lib/thumb/v8-m.base/nofp/libg-musl.a(syscall_ret.o)
 .xc_stack_usage.hdr
                0x00000000        0xe /Applications/microchip/xc32/v4.10/bin/bin/../../lib/gcc/pic32c/8.3.1/../../../../pic32c/lib/thumb/v8-m.base/nofp/libg-musl.a(syscall_ret.o)
 .text          0x00000000        0x0 /Applications/microchip/xc32/v4.10/bin/bin/../../lib/gcc/pic32c/8.3.1/../../../../pic32c/lib/thumb/v8-m.base/nofp/libg-musl.a(shgetc.o)
 .data          0x00000000        0x0 /Applications/microchip/xc32/v4.10/bin/bin/../../lib/gcc/pic32c/8.3.1/../../../../pic32c/lib/thumb/v8-m.base/nofp/libg-musl.a(shgetc.o)
 .bss           0x00000000        0x0 /Applications/microchip/xc32/v4.10/bin/bin/../../lib/gcc/pic32c/8.3.1/../../../../pic32c/lib/thumb/v8-m.base/nofp/libg-musl.a(shgetc.o)
 .xc_stack_usage
                0x00000000       0x2b /Applications/microchip/xc32/v4.10/bin/bin/../../lib/gcc/pic32c/8.3.1/../../../../pic32c/lib/thumb/v8-m.base/nofp/libg-musl.a(shgetc.o)
 .xc_stack_usage.hdr
                0x00000000        0xe /Applications/microchip/xc32/v4.10/bin/bin/../../lib/gcc/pic32c/8.3.1/../../../../pic32c/lib/thumb/v8-m.base/nofp/libg-musl.a(shgetc.o)
 .text          0x00000000        0x0 /Applications/microchip/xc32/v4.10/bin/bin/../../lib/gcc/pic32c/8.3.1/../../../../pic32c/lib/thumb/v8-m.base/nofp/libg-musl.a(__uflow.o)
 .data          0x00000000        0x0 /Applications/microchip/xc32/v4.10/bin/bin/../../lib/gcc/pic32c/8.3.1/../../../../pic32c/lib/thumb/v8-m.base/nofp/libg-musl.a(__uflow.o)
 .bss           0x00000000        0x0 /Applications/microchip/xc32/v4.10/bin/bin/../../lib/gcc/pic32c/8.3.1/../../../../pic32c/lib/thumb/v8-m.base/nofp/libg-musl.a(__uflow.o)
 .xc_stack_usage
                0x00000000       0x15 /Applications/microchip/xc32/v4.10/bin/bin/../../lib/gcc/pic32c/8.3.1/../../../../pic32c/lib/thumb/v8-m.base/nofp/libg-musl.a(__uflow.o)
 .xc_stack_usage.hdr
                0x00000000        0xe /Applications/microchip/xc32/v4.10/bin/bin/../../lib/gcc/pic32c/8.3.1/../../../../pic32c/lib/thumb/v8-m.base/nofp/libg-musl.a(__uflow.o)
 .text          0x00000000        0x0 /Applications/microchip/xc32/v4.10/bin/bin/../../lib/gcc/pic32c/8.3.1/../../../../pic32c/lib/thumb/v8-m.base/nofp/libg-musl.a(__fopen_rw.o)
 .data          0x00000000        0x0 /Applications/microchip/xc32/v4.10/bin/bin/../../lib/gcc/pic32c/8.3.1/../../../../pic32c/lib/thumb/v8-m.base/nofp/libg-musl.a(__fopen_rw.o)
 .bss           0x00000000        0x0 /Applications/microchip/xc32/v4.10/bin/bin/../../lib/gcc/pic32c/8.3.1/../../../../pic32c/lib/thumb/v8-m.base/nofp/libg-musl.a(__fopen_rw.o)
 .xc_stack_usage
                0x00000000       0x18 /Applications/microchip/xc32/v4.10/bin/bin/../../lib/gcc/pic32c/8.3.1/../../../../pic32c/lib/thumb/v8-m.base/nofp/libg-musl.a(__fopen_rw.o)
 .text.__fopen_rw
                0x00000000       0x4c /Applications/microchip/xc32/v4.10/bin/bin/../../lib/gcc/pic32c/8.3.1/../../../../pic32c/lib/thumb/v8-m.base/nofp/libg-musl.a(__fopen_rw.o)
 .xc_stack_usage.hdr
                0x00000000        0xe /Applications/microchip/xc32/v4.10/bin/bin/../../lib/gcc/pic32c/8.3.1/../../../../pic32c/lib/thumb/v8-m.base/nofp/libg-musl.a(__fopen_rw.o)
 .debug_info    0x00000000      0x69b /Applications/microchip/xc32/v4.10/bin/bin/../../lib/gcc/pic32c/8.3.1/../../../../pic32c/lib/thumb/v8-m.base/nofp/libg-musl.a(__fopen_rw.o)
 .debug_abbrev  0x00000000      0x110 /Applications/microchip/xc32/v4.10/bin/bin/../../lib/gcc/pic32c/8.3.1/../../../../pic32c/lib/thumb/v8-m.base/nofp/libg-musl.a(__fopen_rw.o)
 .debug_loc     0x00000000       0x4f /Applications/microchip/xc32/v4.10/bin/bin/../../lib/gcc/pic32c/8.3.1/../../../../pic32c/lib/thumb/v8-m.base/nofp/libg-musl.a(__fopen_rw.o)
 .debug_aranges
                0x00000000       0x20 /Applications/microchip/xc32/v4.10/bin/bin/../../lib/gcc/pic32c/8.3.1/../../../../pic32c/lib/thumb/v8-m.base/nofp/libg-musl.a(__fopen_rw.o)
 .debug_ranges  0x00000000       0x10 /Applications/microchip/xc32/v4.10/bin/bin/../../lib/gcc/pic32c/8.3.1/../../../../pic32c/lib/thumb/v8-m.base/nofp/libg-musl.a(__fopen_rw.o)
 .debug_line    0x00000000      0x2b3 /Applications/microchip/xc32/v4.10/bin/bin/../../lib/gcc/pic32c/8.3.1/../../../../pic32c/lib/thumb/v8-m.base/nofp/libg-musl.a(__fopen_rw.o)
 .debug_str     0x00000000        0x0 /Applications/microchip/xc32/v4.10/bin/bin/../../lib/gcc/pic32c/8.3.1/../../../../pic32c/lib/thumb/v8-m.base/nofp/libg-musl.a(__fopen_rw.o)
 .comment       0x00000000       0x2c /Applications/microchip/xc32/v4.10/bin/bin/../../lib/gcc/pic32c/8.3.1/../../../../pic32c/lib/thumb/v8-m.base/nofp/libg-musl.a(__fopen_rw.o)
 .note.GNU-stack
                0x00000000        0x0 /Applications/microchip/xc32/v4.10/bin/bin/../../lib/gcc/pic32c/8.3.1/../../../../pic32c/lib/thumb/v8-m.base/nofp/libg-musl.a(__fopen_rw.o)
 .debug_frame   0x00000000       0x28 /Applications/microchip/xc32/v4.10/bin/bin/../../lib/gcc/pic32c/8.3.1/../../../../pic32c/lib/thumb/v8-m.base/nofp/libg-musl.a(__fopen_rw.o)
 .ARM.attributes
                0x00000000       0x32 /Applications/microchip/xc32/v4.10/bin/bin/../../lib/gcc/pic32c/8.3.1/../../../../pic32c/lib/thumb/v8-m.base/nofp/libg-musl.a(__fopen_rw.o)
 .text          0x00000000        0x0 /Applications/microchip/xc32/v4.10/bin/bin/../../lib/gcc/pic32c/8.3.1/../../../../pic32c/lib/thumb/v8-m.base/nofp/libg-musl.a(__ftello_rw.o)
 .data          0x00000000        0x0 /Applications/microchip/xc32/v4.10/bin/bin/../../lib/gcc/pic32c/8.3.1/../../../../pic32c/lib/thumb/v8-m.base/nofp/libg-musl.a(__ftello_rw.o)
 .bss           0x00000000        0x0 /Applications/microchip/xc32/v4.10/bin/bin/../../lib/gcc/pic32c/8.3.1/../../../../pic32c/lib/thumb/v8-m.base/nofp/libg-musl.a(__ftello_rw.o)
 .xc_stack_usage
                0x00000000       0x1d /Applications/microchip/xc32/v4.10/bin/bin/../../lib/gcc/pic32c/8.3.1/../../../../pic32c/lib/thumb/v8-m.base/nofp/libg-musl.a(__ftello_rw.o)
 .text.__ftello_adj_rw
                0x00000000       0x2c /Applications/microchip/xc32/v4.10/bin/bin/../../lib/gcc/pic32c/8.3.1/../../../../pic32c/lib/thumb/v8-m.base/nofp/libg-musl.a(__ftello_rw.o)
 .xc_stack_usage.hdr
                0x00000000        0xe /Applications/microchip/xc32/v4.10/bin/bin/../../lib/gcc/pic32c/8.3.1/../../../../pic32c/lib/thumb/v8-m.base/nofp/libg-musl.a(__ftello_rw.o)
 .debug_info    0x00000000      0x5fc /Applications/microchip/xc32/v4.10/bin/bin/../../lib/gcc/pic32c/8.3.1/../../../../pic32c/lib/thumb/v8-m.base/nofp/libg-musl.a(__ftello_rw.o)
 .debug_abbrev  0x00000000       0xef /Applications/microchip/xc32/v4.10/bin/bin/../../lib/gcc/pic32c/8.3.1/../../../../pic32c/lib/thumb/v8-m.base/nofp/libg-musl.a(__ftello_rw.o)
 .debug_loc     0x00000000       0x45 /Applications/microchip/xc32/v4.10/bin/bin/../../lib/gcc/pic32c/8.3.1/../../../../pic32c/lib/thumb/v8-m.base/nofp/libg-musl.a(__ftello_rw.o)
 .debug_aranges
                0x00000000       0x20 /Applications/microchip/xc32/v4.10/bin/bin/../../lib/gcc/pic32c/8.3.1/../../../../pic32c/lib/thumb/v8-m.base/nofp/libg-musl.a(__ftello_rw.o)
 .debug_ranges  0x00000000       0x10 /Applications/microchip/xc32/v4.10/bin/bin/../../lib/gcc/pic32c/8.3.1/../../../../pic32c/lib/thumb/v8-m.base/nofp/libg-musl.a(__ftello_rw.o)
 .debug_line    0x00000000      0x1ed /Applications/microchip/xc32/v4.10/bin/bin/../../lib/gcc/pic32c/8.3.1/../../../../pic32c/lib/thumb/v8-m.base/nofp/libg-musl.a(__ftello_rw.o)
 .debug_str     0x00000000        0x0 /Applications/microchip/xc32/v4.10/bin/bin/../../lib/gcc/pic32c/8.3.1/../../../../pic32c/lib/thumb/v8-m.base/nofp/libg-musl.a(__ftello_rw.o)
 .comment       0x00000000       0x2c /Applications/microchip/xc32/v4.10/bin/bin/../../lib/gcc/pic32c/8.3.1/../../../../pic32c/lib/thumb/v8-m.base/nofp/libg-musl.a(__ftello_rw.o)
 .note.GNU-stack
                0x00000000        0x0 /Applications/microchip/xc32/v4.10/bin/bin/../../lib/gcc/pic32c/8.3.1/../../../../pic32c/lib/thumb/v8-m.base/nofp/libg-musl.a(__ftello_rw.o)
 .debug_frame   0x00000000       0x2c /Applications/microchip/xc32/v4.10/bin/bin/../../lib/gcc/pic32c/8.3.1/../../../../pic32c/lib/thumb/v8-m.base/nofp/libg-musl.a(__ftello_rw.o)
 .ARM.attributes
                0x00000000       0x32 /Applications/microchip/xc32/v4.10/bin/bin/../../lib/gcc/pic32c/8.3.1/../../../../pic32c/lib/thumb/v8-m.base/nofp/libg-musl.a(__ftello_rw.o)
 .text          0x00000000        0x0 /Applications/microchip/xc32/v4.10/bin/bin/../../lib/gcc/pic32c/8.3.1/../../../../pic32c/lib/thumb/v8-m.base/nofp/libg-musl.a(__init_stdio.o)
 .data          0x00000000        0x0 /Applications/microchip/xc32/v4.10/bin/bin/../../lib/gcc/pic32c/8.3.1/../../../../pic32c/lib/thumb/v8-m.base/nofp/libg-musl.a(__init_stdio.o)
 .bss           0x00000000        0x0 /Applications/microchip/xc32/v4.10/bin/bin/../../lib/gcc/pic32c/8.3.1/../../../../pic32c/lib/thumb/v8-m.base/nofp/libg-musl.a(__init_stdio.o)
 .xc_stack_usage
                0x00000000       0x2f /Applications/microchip/xc32/v4.10/bin/bin/../../lib/gcc/pic32c/8.3.1/../../../../pic32c/lib/thumb/v8-m.base/nofp/libg-musl.a(__init_stdio.o)
 .xc_stack_usage.hdr
                0x00000000        0xe /Applications/microchip/xc32/v4.10/bin/bin/../../lib/gcc/pic32c/8.3.1/../../../../pic32c/lib/thumb/v8-m.base/nofp/libg-musl.a(__init_stdio.o)
 .text          0x00000000        0x0 /Applications/microchip/xc32/v4.10/bin/bin/../../lib/gcc/pic32c/8.3.1/../../../../pic32c/lib/thumb/v8-m.base/nofp/libg-musl.a(__io_buf_needed.o)
 .data          0x00000000        0x0 /Applications/microchip/xc32/v4.10/bin/bin/../../lib/gcc/pic32c/8.3.1/../../../../pic32c/lib/thumb/v8-m.base/nofp/libg-musl.a(__io_buf_needed.o)
 .bss           0x00000000        0x0 /Applications/microchip/xc32/v4.10/bin/bin/../../lib/gcc/pic32c/8.3.1/../../../../pic32c/lib/thumb/v8-m.base/nofp/libg-musl.a(__io_buf_needed.o)
 .xc_stack_usage
                0x00000000       0x1d /Applications/microchip/xc32/v4.10/bin/bin/../../lib/gcc/pic32c/8.3.1/../../../../pic32c/lib/thumb/v8-m.base/nofp/libg-musl.a(__io_buf_needed.o)
 .xc_stack_usage.hdr
                0x00000000        0xe /Applications/microchip/xc32/v4.10/bin/bin/../../lib/gcc/pic32c/8.3.1/../../../../pic32c/lib/thumb/v8-m.base/nofp/libg-musl.a(__io_buf_needed.o)
 .debug_info    0x00000000      0x3b4 /Applications/microchip/xc32/v4.10/bin/bin/../../lib/gcc/pic32c/8.3.1/../../../../pic32c/lib/thumb/v8-m.base/nofp/libg-musl.a(__io_buf_needed.o)
 .debug_abbrev  0x00000000       0x5c /Applications/microchip/xc32/v4.10/bin/bin/../../lib/gcc/pic32c/8.3.1/../../../../pic32c/lib/thumb/v8-m.base/nofp/libg-musl.a(__io_buf_needed.o)
 .debug_loc     0x00000000       0x20 /Applications/microchip/xc32/v4.10/bin/bin/../../lib/gcc/pic32c/8.3.1/../../../../pic32c/lib/thumb/v8-m.base/nofp/libg-musl.a(__io_buf_needed.o)
 .debug_aranges
                0x00000000       0x20 /Applications/microchip/xc32/v4.10/bin/bin/../../lib/gcc/pic32c/8.3.1/../../../../pic32c/lib/thumb/v8-m.base/nofp/libg-musl.a(__io_buf_needed.o)
 .debug_ranges  0x00000000       0x10 /Applications/microchip/xc32/v4.10/bin/bin/../../lib/gcc/pic32c/8.3.1/../../../../pic32c/lib/thumb/v8-m.base/nofp/libg-musl.a(__io_buf_needed.o)
 .debug_line    0x00000000      0x145 /Applications/microchip/xc32/v4.10/bin/bin/../../lib/gcc/pic32c/8.3.1/../../../../pic32c/lib/thumb/v8-m.base/nofp/libg-musl.a(__io_buf_needed.o)
 .debug_str     0x00000000       0x77 /Applications/microchip/xc32/v4.10/bin/bin/../../lib/gcc/pic32c/8.3.1/../../../../pic32c/lib/thumb/v8-m.base/nofp/libg-musl.a(__io_buf_needed.o)
 .comment       0x00000000       0x2c /Applications/microchip/xc32/v4.10/bin/bin/../../lib/gcc/pic32c/8.3.1/../../../../pic32c/lib/thumb/v8-m.base/nofp/libg-musl.a(__io_buf_needed.o)
 .note.GNU-stack
                0x00000000        0x0 /Applications/microchip/xc32/v4.10/bin/bin/../../lib/gcc/pic32c/8.3.1/../../../../pic32c/lib/thumb/v8-m.base/nofp/libg-musl.a(__io_buf_needed.o)
 .debug_frame   0x00000000       0x28 /Applications/microchip/xc32/v4.10/bin/bin/../../lib/gcc/pic32c/8.3.1/../../../../pic32c/lib/thumb/v8-m.base/nofp/libg-musl.a(__io_buf_needed.o)
 .ARM.attributes
                0x00000000       0x32 /Applications/microchip/xc32/v4.10/bin/bin/../../lib/gcc/pic32c/8.3.1/../../../../pic32c/lib/thumb/v8-m.base/nofp/libg-musl.a(__io_buf_needed.o)
 .text          0x00000000        0x0 /Applications/microchip/xc32/v4.10/bin/bin/../../lib/gcc/pic32c/8.3.1/../../../../pic32c/lib/thumb/v8-m.base/nofp/libg-musl.a(__io_file_needed.o)
 .data          0x00000000        0x0 /Applications/microchip/xc32/v4.10/bin/bin/../../lib/gcc/pic32c/8.3.1/../../../../pic32c/lib/thumb/v8-m.base/nofp/libg-musl.a(__io_file_needed.o)
 .bss           0x00000000        0x0 /Applications/microchip/xc32/v4.10/bin/bin/../../lib/gcc/pic32c/8.3.1/../../../../pic32c/lib/thumb/v8-m.base/nofp/libg-musl.a(__io_file_needed.o)
 .xc_stack_usage
                0x00000000       0x1e /Applications/microchip/xc32/v4.10/bin/bin/../../lib/gcc/pic32c/8.3.1/../../../../pic32c/lib/thumb/v8-m.base/nofp/libg-musl.a(__io_file_needed.o)
 .xc_stack_usage.hdr
                0x00000000        0xe /Applications/microchip/xc32/v4.10/bin/bin/../../lib/gcc/pic32c/8.3.1/../../../../pic32c/lib/thumb/v8-m.base/nofp/libg-musl.a(__io_file_needed.o)
 .debug_info    0x00000000      0x32c /Applications/microchip/xc32/v4.10/bin/bin/../../lib/gcc/pic32c/8.3.1/../../../../pic32c/lib/thumb/v8-m.base/nofp/libg-musl.a(__io_file_needed.o)
 .debug_abbrev  0x00000000       0x5c /Applications/microchip/xc32/v4.10/bin/bin/../../lib/gcc/pic32c/8.3.1/../../../../pic32c/lib/thumb/v8-m.base/nofp/libg-musl.a(__io_file_needed.o)
 .debug_loc     0x00000000       0x20 /Applications/microchip/xc32/v4.10/bin/bin/../../lib/gcc/pic32c/8.3.1/../../../../pic32c/lib/thumb/v8-m.base/nofp/libg-musl.a(__io_file_needed.o)
 .debug_aranges
                0x00000000       0x20 /Applications/microchip/xc32/v4.10/bin/bin/../../lib/gcc/pic32c/8.3.1/../../../../pic32c/lib/thumb/v8-m.base/nofp/libg-musl.a(__io_file_needed.o)
 .debug_ranges  0x00000000       0x10 /Applications/microchip/xc32/v4.10/bin/bin/../../lib/gcc/pic32c/8.3.1/../../../../pic32c/lib/thumb/v8-m.base/nofp/libg-musl.a(__io_file_needed.o)
 .debug_line    0x00000000       0xc0 /Applications/microchip/xc32/v4.10/bin/bin/../../lib/gcc/pic32c/8.3.1/../../../../pic32c/lib/thumb/v8-m.base/nofp/libg-musl.a(__io_file_needed.o)
 .debug_str     0x00000000        0xd /Applications/microchip/xc32/v4.10/bin/bin/../../lib/gcc/pic32c/8.3.1/../../../../pic32c/lib/thumb/v8-m.base/nofp/libg-musl.a(__io_file_needed.o)
 .comment       0x00000000       0x2c /Applications/microchip/xc32/v4.10/bin/bin/../../lib/gcc/pic32c/8.3.1/../../../../pic32c/lib/thumb/v8-m.base/nofp/libg-musl.a(__io_file_needed.o)
 .note.GNU-stack
                0x00000000        0x0 /Applications/microchip/xc32/v4.10/bin/bin/../../lib/gcc/pic32c/8.3.1/../../../../pic32c/lib/thumb/v8-m.base/nofp/libg-musl.a(__io_file_needed.o)
 .debug_frame   0x00000000       0x28 /Applications/microchip/xc32/v4.10/bin/bin/../../lib/gcc/pic32c/8.3.1/../../../../pic32c/lib/thumb/v8-m.base/nofp/libg-musl.a(__io_file_needed.o)
 .ARM.attributes
                0x00000000       0x32 /Applications/microchip/xc32/v4.10/bin/bin/../../lib/gcc/pic32c/8.3.1/../../../../pic32c/lib/thumb/v8-m.base/nofp/libg-musl.a(__io_file_needed.o)
 .text          0x00000000        0x0 /Applications/microchip/xc32/v4.10/bin/bin/../../lib/gcc/pic32c/8.3.1/../../../../pic32c/lib/thumb/v8-m.base/nofp/libg-musl.a(__io_scan_needed.o)
 .data          0x00000000        0x0 /Applications/microchip/xc32/v4.10/bin/bin/../../lib/gcc/pic32c/8.3.1/../../../../pic32c/lib/thumb/v8-m.base/nofp/libg-musl.a(__io_scan_needed.o)
 .bss           0x00000000        0x0 /Applications/microchip/xc32/v4.10/bin/bin/../../lib/gcc/pic32c/8.3.1/../../../../pic32c/lib/thumb/v8-m.base/nofp/libg-musl.a(__io_scan_needed.o)
 .xc_stack_usage
                0x00000000       0x1e /Applications/microchip/xc32/v4.10/bin/bin/../../lib/gcc/pic32c/8.3.1/../../../../pic32c/lib/thumb/v8-m.base/nofp/libg-musl.a(__io_scan_needed.o)
 .xc_stack_usage.hdr
                0x00000000        0xe /Applications/microchip/xc32/v4.10/bin/bin/../../lib/gcc/pic32c/8.3.1/../../../../pic32c/lib/thumb/v8-m.base/nofp/libg-musl.a(__io_scan_needed.o)
 .debug_info    0x00000000      0x3cd /Applications/microchip/xc32/v4.10/bin/bin/../../lib/gcc/pic32c/8.3.1/../../../../pic32c/lib/thumb/v8-m.base/nofp/libg-musl.a(__io_scan_needed.o)
 .debug_abbrev  0x00000000       0x5c /Applications/microchip/xc32/v4.10/bin/bin/../../lib/gcc/pic32c/8.3.1/../../../../pic32c/lib/thumb/v8-m.base/nofp/libg-musl.a(__io_scan_needed.o)
 .debug_loc     0x00000000       0x20 /Applications/microchip/xc32/v4.10/bin/bin/../../lib/gcc/pic32c/8.3.1/../../../../pic32c/lib/thumb/v8-m.base/nofp/libg-musl.a(__io_scan_needed.o)
 .debug_aranges
                0x00000000       0x20 /Applications/microchip/xc32/v4.10/bin/bin/../../lib/gcc/pic32c/8.3.1/../../../../pic32c/lib/thumb/v8-m.base/nofp/libg-musl.a(__io_scan_needed.o)
 .debug_ranges  0x00000000       0x10 /Applications/microchip/xc32/v4.10/bin/bin/../../lib/gcc/pic32c/8.3.1/../../../../pic32c/lib/thumb/v8-m.base/nofp/libg-musl.a(__io_scan_needed.o)
 .debug_line    0x00000000       0xca /Applications/microchip/xc32/v4.10/bin/bin/../../lib/gcc/pic32c/8.3.1/../../../../pic32c/lib/thumb/v8-m.base/nofp/libg-musl.a(__io_scan_needed.o)
 .debug_str     0x00000000       0x80 /Applications/microchip/xc32/v4.10/bin/bin/../../lib/gcc/pic32c/8.3.1/../../../../pic32c/lib/thumb/v8-m.base/nofp/libg-musl.a(__io_scan_needed.o)
 .comment       0x00000000       0x2c /Applications/microchip/xc32/v4.10/bin/bin/../../lib/gcc/pic32c/8.3.1/../../../../pic32c/lib/thumb/v8-m.base/nofp/libg-musl.a(__io_scan_needed.o)
 .note.GNU-stack
                0x00000000        0x0 /Applications/microchip/xc32/v4.10/bin/bin/../../lib/gcc/pic32c/8.3.1/../../../../pic32c/lib/thumb/v8-m.base/nofp/libg-musl.a(__io_scan_needed.o)
 .debug_frame   0x00000000       0x28 /Applications/microchip/xc32/v4.10/bin/bin/../../lib/gcc/pic32c/8.3.1/../../../../pic32c/lib/thumb/v8-m.base/nofp/libg-musl.a(__io_scan_needed.o)
 .ARM.attributes
                0x00000000       0x32 /Applications/microchip/xc32/v4.10/bin/bin/../../lib/gcc/pic32c/8.3.1/../../../../pic32c/lib/thumb/v8-m.base/nofp/libg-musl.a(__io_scan_needed.o)
 .text          0x00000000        0x0 /Applications/microchip/xc32/v4.10/bin/bin/../../lib/gcc/pic32c/8.3.1/../../../../pic32c/lib/thumb/v8-m.base/nofp/libg-musl.a(__io_std_needed.o)
 .data          0x00000000        0x0 /Applications/microchip/xc32/v4.10/bin/bin/../../lib/gcc/pic32c/8.3.1/../../../../pic32c/lib/thumb/v8-m.base/nofp/libg-musl.a(__io_std_needed.o)
 .bss           0x00000000        0x0 /Applications/microchip/xc32/v4.10/bin/bin/../../lib/gcc/pic32c/8.3.1/../../../../pic32c/lib/thumb/v8-m.base/nofp/libg-musl.a(__io_std_needed.o)
 .xc_stack_usage
                0x00000000       0x1d /Applications/microchip/xc32/v4.10/bin/bin/../../lib/gcc/pic32c/8.3.1/../../../../pic32c/lib/thumb/v8-m.base/nofp/libg-musl.a(__io_std_needed.o)
 .xc_stack_usage.hdr
                0x00000000        0xe /Applications/microchip/xc32/v4.10/bin/bin/../../lib/gcc/pic32c/8.3.1/../../../../pic32c/lib/thumb/v8-m.base/nofp/libg-musl.a(__io_std_needed.o)
 .debug_info    0x00000000      0x39d /Applications/microchip/xc32/v4.10/bin/bin/../../lib/gcc/pic32c/8.3.1/../../../../pic32c/lib/thumb/v8-m.base/nofp/libg-musl.a(__io_std_needed.o)
 .debug_abbrev  0x00000000       0x5c /Applications/microchip/xc32/v4.10/bin/bin/../../lib/gcc/pic32c/8.3.1/../../../../pic32c/lib/thumb/v8-m.base/nofp/libg-musl.a(__io_std_needed.o)
 .debug_loc     0x00000000       0x20 /Applications/microchip/xc32/v4.10/bin/bin/../../lib/gcc/pic32c/8.3.1/../../../../pic32c/lib/thumb/v8-m.base/nofp/libg-musl.a(__io_std_needed.o)
 .debug_aranges
                0x00000000       0x20 /Applications/microchip/xc32/v4.10/bin/bin/../../lib/gcc/pic32c/8.3.1/../../../../pic32c/lib/thumb/v8-m.base/nofp/libg-musl.a(__io_std_needed.o)
 .debug_ranges  0x00000000       0x10 /Applications/microchip/xc32/v4.10/bin/bin/../../lib/gcc/pic32c/8.3.1/../../../../pic32c/lib/thumb/v8-m.base/nofp/libg-musl.a(__io_std_needed.o)
 .debug_line    0x00000000      0x144 /Applications/microchip/xc32/v4.10/bin/bin/../../lib/gcc/pic32c/8.3.1/../../../../pic32c/lib/thumb/v8-m.base/nofp/libg-musl.a(__io_std_needed.o)
 .debug_str     0x00000000       0x6b /Applications/microchip/xc32/v4.10/bin/bin/../../lib/gcc/pic32c/8.3.1/../../../../pic32c/lib/thumb/v8-m.base/nofp/libg-musl.a(__io_std_needed.o)
 .comment       0x00000000       0x2c /Applications/microchip/xc32/v4.10/bin/bin/../../lib/gcc/pic32c/8.3.1/../../../../pic32c/lib/thumb/v8-m.base/nofp/libg-musl.a(__io_std_needed.o)
 .note.GNU-stack
                0x00000000        0x0 /Applications/microchip/xc32/v4.10/bin/bin/../../lib/gcc/pic32c/8.3.1/../../../../pic32c/lib/thumb/v8-m.base/nofp/libg-musl.a(__io_std_needed.o)
 .debug_frame   0x00000000       0x28 /Applications/microchip/xc32/v4.10/bin/bin/../../lib/gcc/pic32c/8.3.1/../../../../pic32c/lib/thumb/v8-m.base/nofp/libg-musl.a(__io_std_needed.o)
 .ARM.attributes
                0x00000000       0x32 /Applications/microchip/xc32/v4.10/bin/bin/../../lib/gcc/pic32c/8.3.1/../../../../pic32c/lib/thumb/v8-m.base/nofp/libg-musl.a(__io_std_needed.o)
 .text          0x00000000        0x0 /Applications/microchip/xc32/v4.10/bin/bin/../../lib/gcc/pic32c/8.3.1/../../../../pic32c/lib/thumb/v8-m.base/nofp/libg-musl.a(__putc.o)
 .data          0x00000000        0x0 /Applications/microchip/xc32/v4.10/bin/bin/../../lib/gcc/pic32c/8.3.1/../../../../pic32c/lib/thumb/v8-m.base/nofp/libg-musl.a(__putc.o)
 .bss           0x00000000        0x0 /Applications/microchip/xc32/v4.10/bin/bin/../../lib/gcc/pic32c/8.3.1/../../../../pic32c/lib/thumb/v8-m.base/nofp/libg-musl.a(__putc.o)
 .xc_stack_usage
                0x00000000       0x14 /Applications/microchip/xc32/v4.10/bin/bin/../../lib/gcc/pic32c/8.3.1/../../../../pic32c/lib/thumb/v8-m.base/nofp/libg-musl.a(__putc.o)
 .xc_stack_usage.hdr
                0x00000000        0xe /Applications/microchip/xc32/v4.10/bin/bin/../../lib/gcc/pic32c/8.3.1/../../../../pic32c/lib/thumb/v8-m.base/nofp/libg-musl.a(__putc.o)
 .text          0x00000000        0x0 /Applications/microchip/xc32/v4.10/bin/bin/../../lib/gcc/pic32c/8.3.1/../../../../pic32c/lib/thumb/v8-m.base/nofp/libg-musl.a(__scan_d.o)
 .data          0x00000000        0x0 /Applications/microchip/xc32/v4.10/bin/bin/../../lib/gcc/pic32c/8.3.1/../../../../pic32c/lib/thumb/v8-m.base/nofp/libg-musl.a(__scan_d.o)
 .bss           0x00000000        0x0 /Applications/microchip/xc32/v4.10/bin/bin/../../lib/gcc/pic32c/8.3.1/../../../../pic32c/lib/thumb/v8-m.base/nofp/libg-musl.a(__scan_d.o)
 .xc_stack_usage
                0x00000000       0x51 /Applications/microchip/xc32/v4.10/bin/bin/../../lib/gcc/pic32c/8.3.1/../../../../pic32c/lib/thumb/v8-m.base/nofp/libg-musl.a(__scan_d.o)
 .xc_stack_usage.hdr
                0x00000000        0xe /Applications/microchip/xc32/v4.10/bin/bin/../../lib/gcc/pic32c/8.3.1/../../../../pic32c/lib/thumb/v8-m.base/nofp/libg-musl.a(__scan_d.o)
 .text          0x00000000        0x0 /Applications/microchip/xc32/v4.10/bin/bin/../../lib/gcc/pic32c/8.3.1/../../../../pic32c/lib/thumb/v8-m.base/nofp/libg-musl.a(__scan_fp.o)
 .data          0x00000000        0x0 /Applications/microchip/xc32/v4.10/bin/bin/../../lib/gcc/pic32c/8.3.1/../../../../pic32c/lib/thumb/v8-m.base/nofp/libg-musl.a(__scan_fp.o)
 .bss           0x00000000        0x0 /Applications/microchip/xc32/v4.10/bin/bin/../../lib/gcc/pic32c/8.3.1/../../../../pic32c/lib/thumb/v8-m.base/nofp/libg-musl.a(__scan_fp.o)
 .xc_stack_usage
                0x00000000       0x17 /Applications/microchip/xc32/v4.10/bin/bin/../../lib/gcc/pic32c/8.3.1/../../../../pic32c/lib/thumb/v8-m.base/nofp/libg-musl.a(__scan_fp.o)
 .xc_stack_usage.hdr
                0x00000000        0xe /Applications/microchip/xc32/v4.10/bin/bin/../../lib/gcc/pic32c/8.3.1/../../../../pic32c/lib/thumb/v8-m.base/nofp/libg-musl.a(__scan_fp.o)
 .text          0x00000000        0x0 /Applications/microchip/xc32/v4.10/bin/bin/../../lib/gcc/pic32c/8.3.1/../../../../pic32c/lib/thumb/v8-m.base/nofp/libg-musl.a(__scan_i.o)
 .data          0x00000000        0x0 /Applications/microchip/xc32/v4.10/bin/bin/../../lib/gcc/pic32c/8.3.1/../../../../pic32c/lib/thumb/v8-m.base/nofp/libg-musl.a(__scan_i.o)
 .bss           0x00000000        0x0 /Applications/microchip/xc32/v4.10/bin/bin/../../lib/gcc/pic32c/8.3.1/../../../../pic32c/lib/thumb/v8-m.base/nofp/libg-musl.a(__scan_i.o)
 .xc_stack_usage
                0x00000000       0x16 /Applications/microchip/xc32/v4.10/bin/bin/../../lib/gcc/pic32c/8.3.1/../../../../pic32c/lib/thumb/v8-m.base/nofp/libg-musl.a(__scan_i.o)
 .xc_stack_usage.hdr
                0x00000000        0xe /Applications/microchip/xc32/v4.10/bin/bin/../../lib/gcc/pic32c/8.3.1/../../../../pic32c/lib/thumb/v8-m.base/nofp/libg-musl.a(__scan_i.o)
 .text          0x00000000        0x0 /Applications/microchip/xc32/v4.10/bin/bin/../../lib/gcc/pic32c/8.3.1/../../../../pic32c/lib/thumb/v8-m.base/nofp/libg-musl.a(__scan_o.o)
 .data          0x00000000        0x0 /Applications/microchip/xc32/v4.10/bin/bin/../../lib/gcc/pic32c/8.3.1/../../../../pic32c/lib/thumb/v8-m.base/nofp/libg-musl.a(__scan_o.o)
 .bss           0x00000000        0x0 /Applications/microchip/xc32/v4.10/bin/bin/../../lib/gcc/pic32c/8.3.1/../../../../pic32c/lib/thumb/v8-m.base/nofp/libg-musl.a(__scan_o.o)
 .xc_stack_usage
                0x00000000       0x16 /Applications/microchip/xc32/v4.10/bin/bin/../../lib/gcc/pic32c/8.3.1/../../../../pic32c/lib/thumb/v8-m.base/nofp/libg-musl.a(__scan_o.o)
 .xc_stack_usage.hdr
                0x00000000        0xe /Applications/microchip/xc32/v4.10/bin/bin/../../lib/gcc/pic32c/8.3.1/../../../../pic32c/lib/thumb/v8-m.base/nofp/libg-musl.a(__scan_o.o)
 .text          0x00000000        0x0 /Applications/microchip/xc32/v4.10/bin/bin/../../lib/gcc/pic32c/8.3.1/../../../../pic32c/lib/thumb/v8-m.base/nofp/libg-musl.a(__scan_s.o)
 .data          0x00000000        0x0 /Applications/microchip/xc32/v4.10/bin/bin/../../lib/gcc/pic32c/8.3.1/../../../../pic32c/lib/thumb/v8-m.base/nofp/libg-musl.a(__scan_s.o)
 .bss           0x00000000        0x0 /Applications/microchip/xc32/v4.10/bin/bin/../../lib/gcc/pic32c/8.3.1/../../../../pic32c/lib/thumb/v8-m.base/nofp/libg-musl.a(__scan_s.o)
 .xc_stack_usage
                0x00000000       0x16 /Applications/microchip/xc32/v4.10/bin/bin/../../lib/gcc/pic32c/8.3.1/../../../../pic32c/lib/thumb/v8-m.base/nofp/libg-musl.a(__scan_s.o)
 .xc_stack_usage.hdr
                0x00000000        0xe /Applications/microchip/xc32/v4.10/bin/bin/../../lib/gcc/pic32c/8.3.1/../../../../pic32c/lib/thumb/v8-m.base/nofp/libg-musl.a(__scan_s.o)
 .text          0x00000000        0x0 /Applications/microchip/xc32/v4.10/bin/bin/../../lib/gcc/pic32c/8.3.1/../../../../pic32c/lib/thumb/v8-m.base/nofp/libg-musl.a(__scan_u.o)
 .data          0x00000000        0x0 /Applications/microchip/xc32/v4.10/bin/bin/../../lib/gcc/pic32c/8.3.1/../../../../pic32c/lib/thumb/v8-m.base/nofp/libg-musl.a(__scan_u.o)
 .bss           0x00000000        0x0 /Applications/microchip/xc32/v4.10/bin/bin/../../lib/gcc/pic32c/8.3.1/../../../../pic32c/lib/thumb/v8-m.base/nofp/libg-musl.a(__scan_u.o)
 .xc_stack_usage
                0x00000000       0x16 /Applications/microchip/xc32/v4.10/bin/bin/../../lib/gcc/pic32c/8.3.1/../../../../pic32c/lib/thumb/v8-m.base/nofp/libg-musl.a(__scan_u.o)
 .xc_stack_usage.hdr
                0x00000000        0xe /Applications/microchip/xc32/v4.10/bin/bin/../../lib/gcc/pic32c/8.3.1/../../../../pic32c/lib/thumb/v8-m.base/nofp/libg-musl.a(__scan_u.o)
 .text          0x00000000        0x0 /Applications/microchip/xc32/v4.10/bin/bin/../../lib/gcc/pic32c/8.3.1/../../../../pic32c/lib/thumb/v8-m.base/nofp/libg-musl.a(__scan_x.o)
 .data          0x00000000        0x0 /Applications/microchip/xc32/v4.10/bin/bin/../../lib/gcc/pic32c/8.3.1/../../../../pic32c/lib/thumb/v8-m.base/nofp/libg-musl.a(__scan_x.o)
 .bss           0x00000000        0x0 /Applications/microchip/xc32/v4.10/bin/bin/../../lib/gcc/pic32c/8.3.1/../../../../pic32c/lib/thumb/v8-m.base/nofp/libg-musl.a(__scan_x.o)
 .xc_stack_usage
                0x00000000       0x16 /Applications/microchip/xc32/v4.10/bin/bin/../../lib/gcc/pic32c/8.3.1/../../../../pic32c/lib/thumb/v8-m.base/nofp/libg-musl.a(__scan_x.o)
 .xc_stack_usage.hdr
                0x00000000        0xe /Applications/microchip/xc32/v4.10/bin/bin/../../lib/gcc/pic32c/8.3.1/../../../../pic32c/lib/thumb/v8-m.base/nofp/libg-musl.a(__scan_x.o)
 .text          0x00000000        0x0 /Applications/microchip/xc32/v4.10/bin/bin/../../lib/gcc/pic32c/8.3.1/../../../../pic32c/lib/thumb/v8-m.base/nofp/libg-musl.a(__scanf_core.o)
 .data          0x00000000        0x0 /Applications/microchip/xc32/v4.10/bin/bin/../../lib/gcc/pic32c/8.3.1/../../../../pic32c/lib/thumb/v8-m.base/nofp/libg-musl.a(__scanf_core.o)
 .bss           0x00000000        0x0 /Applications/microchip/xc32/v4.10/bin/bin/../../lib/gcc/pic32c/8.3.1/../../../../pic32c/lib/thumb/v8-m.base/nofp/libg-musl.a(__scanf_core.o)
 .xc_stack_usage
                0x00000000       0x9d /Applications/microchip/xc32/v4.10/bin/bin/../../lib/gcc/pic32c/8.3.1/../../../../pic32c/lib/thumb/v8-m.base/nofp/libg-musl.a(__scanf_core.o)
 .text.__dummy_scan
                0x00000000        0x4 /Applications/microchip/xc32/v4.10/bin/bin/../../lib/gcc/pic32c/8.3.1/../../../../pic32c/lib/thumb/v8-m.base/nofp/libg-musl.a(__scanf_core.o)
 .text.__dummy_scan_s
                0x00000000        0x4 /Applications/microchip/xc32/v4.10/bin/bin/../../lib/gcc/pic32c/8.3.1/../../../../pic32c/lib/thumb/v8-m.base/nofp/libg-musl.a(__scanf_core.o)
 .xc_stack_usage.hdr
                0x00000000        0xe /Applications/microchip/xc32/v4.10/bin/bin/../../lib/gcc/pic32c/8.3.1/../../../../pic32c/lib/thumb/v8-m.base/nofp/libg-musl.a(__scanf_core.o)
 .text          0x00000000        0x0 /Applications/microchip/xc32/v4.10/bin/bin/../../lib/gcc/pic32c/8.3.1/../../../../pic32c/lib/thumb/v8-m.base/nofp/libg-musl.a(__stderr.o)
 .data          0x00000000       0x68 /Applications/microchip/xc32/v4.10/bin/bin/../../lib/gcc/pic32c/8.3.1/../../../../pic32c/lib/thumb/v8-m.base/nofp/libg-musl.a(__stderr.o)
 .bss           0x00000000        0x0 /Applications/microchip/xc32/v4.10/bin/bin/../../lib/gcc/pic32c/8.3.1/../../../../pic32c/lib/thumb/v8-m.base/nofp/libg-musl.a(__stderr.o)
 .xc_stack_usage
                0x00000000       0x50 /Applications/microchip/xc32/v4.10/bin/bin/../../lib/gcc/pic32c/8.3.1/../../../../pic32c/lib/thumb/v8-m.base/nofp/libg-musl.a(__stderr.o)
 .text.__get_stderr
                0x00000000        0x8 /Applications/microchip/xc32/v4.10/bin/bin/../../lib/gcc/pic32c/8.3.1/../../../../pic32c/lib/thumb/v8-m.base/nofp/libg-musl.a(__stderr.o)
 .xc_stack_usage.hdr
                0x00000000        0xe /Applications/microchip/xc32/v4.10/bin/bin/../../lib/gcc/pic32c/8.3.1/../../../../pic32c/lib/thumb/v8-m.base/nofp/libg-musl.a(__stderr.o)
 .text          0x00000000        0x0 /Applications/microchip/xc32/v4.10/bin/bin/../../lib/gcc/pic32c/8.3.1/../../../../pic32c/lib/thumb/v8-m.base/nofp/libg-musl.a(__stdio_close.o)
 .data          0x00000000        0x0 /Applications/microchip/xc32/v4.10/bin/bin/../../lib/gcc/pic32c/8.3.1/../../../../pic32c/lib/thumb/v8-m.base/nofp/libg-musl.a(__stdio_close.o)
 .bss           0x00000000        0x0 /Applications/microchip/xc32/v4.10/bin/bin/../../lib/gcc/pic32c/8.3.1/../../../../pic32c/lib/thumb/v8-m.base/nofp/libg-musl.a(__stdio_close.o)
 .xc_stack_usage
                0x00000000       0x39 /Applications/microchip/xc32/v4.10/bin/bin/../../lib/gcc/pic32c/8.3.1/../../../../pic32c/lib/thumb/v8-m.base/nofp/libg-musl.a(__stdio_close.o)
 .text.__stdio_close
                0x00000000       0x42 /Applications/microchip/xc32/v4.10/bin/bin/../../lib/gcc/pic32c/8.3.1/../../../../pic32c/lib/thumb/v8-m.base/nofp/libg-musl.a(__stdio_close.o)
 .xc_stack_usage.hdr
                0x00000000        0xe /Applications/microchip/xc32/v4.10/bin/bin/../../lib/gcc/pic32c/8.3.1/../../../../pic32c/lib/thumb/v8-m.base/nofp/libg-musl.a(__stdio_close.o)
 .text          0x00000000        0x0 /Applications/microchip/xc32/v4.10/bin/bin/../../lib/gcc/pic32c/8.3.1/../../../../pic32c/lib/thumb/v8-m.base/nofp/libg-musl.a(__stdio_exit.o)
 .data          0x00000000        0x0 /Applications/microchip/xc32/v4.10/bin/bin/../../lib/gcc/pic32c/8.3.1/../../../../pic32c/lib/thumb/v8-m.base/nofp/libg-musl.a(__stdio_exit.o)
 .xc_stack_usage
                0x00000000       0x45 /Applications/microchip/xc32/v4.10/bin/bin/../../lib/gcc/pic32c/8.3.1/../../../../pic32c/lib/thumb/v8-m.base/nofp/libg-musl.a(__stdio_exit.o)
 .text.__dummy1
                0x00000000        0x4 /Applications/microchip/xc32/v4.10/bin/bin/../../lib/gcc/pic32c/8.3.1/../../../../pic32c/lib/thumb/v8-m.base/nofp/libg-musl.a(__stdio_exit.o)
 .xc_stack_usage.hdr
                0x00000000        0xe /Applications/microchip/xc32/v4.10/bin/bin/../../lib/gcc/pic32c/8.3.1/../../../../pic32c/lib/thumb/v8-m.base/nofp/libg-musl.a(__stdio_exit.o)
 .text          0x00000000        0x0 /Applications/microchip/xc32/v4.10/bin/bin/../../lib/gcc/pic32c/8.3.1/../../../../pic32c/lib/thumb/v8-m.base/nofp/libg-musl.a(__stdio_write.o)
 .data          0x00000000        0x0 /Applications/microchip/xc32/v4.10/bin/bin/../../lib/gcc/pic32c/8.3.1/../../../../pic32c/lib/thumb/v8-m.base/nofp/libg-musl.a(__stdio_write.o)
 .bss           0x00000000        0x0 /Applications/microchip/xc32/v4.10/bin/bin/../../lib/gcc/pic32c/8.3.1/../../../../pic32c/lib/thumb/v8-m.base/nofp/libg-musl.a(__stdio_write.o)
 .xc_stack_usage
                0x00000000       0x42 /Applications/microchip/xc32/v4.10/bin/bin/../../lib/gcc/pic32c/8.3.1/../../../../pic32c/lib/thumb/v8-m.base/nofp/libg-musl.a(__stdio_write.o)
 .xc_stack_usage.hdr
                0x00000000        0xe /Applications/microchip/xc32/v4.10/bin/bin/../../lib/gcc/pic32c/8.3.1/../../../../pic32c/lib/thumb/v8-m.base/nofp/libg-musl.a(__stdio_write.o)
 .text          0x00000000        0x0 /Applications/microchip/xc32/v4.10/bin/bin/../../lib/gcc/pic32c/8.3.1/../../../../pic32c/lib/thumb/v8-m.base/nofp/libg-musl.a(__stdout.o)
 .bss           0x00000000        0x0 /Applications/microchip/xc32/v4.10/bin/bin/../../lib/gcc/pic32c/8.3.1/../../../../pic32c/lib/thumb/v8-m.base/nofp/libg-musl.a(__stdout.o)
 .xc_stack_usage
                0x00000000       0x50 /Applications/microchip/xc32/v4.10/bin/bin/../../lib/gcc/pic32c/8.3.1/../../../../pic32c/lib/thumb/v8-m.base/nofp/libg-musl.a(__stdout.o)
 .text.__dummy  0x00000000        0x2 /Applications/microchip/xc32/v4.10/bin/bin/../../lib/gcc/pic32c/8.3.1/../../../../pic32c/lib/thumb/v8-m.base/nofp/libg-musl.a(__stdout.o)
 .xc_stack_usage.hdr
                0x00000000        0xe /Applications/microchip/xc32/v4.10/bin/bin/../../lib/gcc/pic32c/8.3.1/../../../../pic32c/lib/thumb/v8-m.base/nofp/libg-musl.a(__stdout.o)
 .text          0x00000000        0x0 /Applications/microchip/xc32/v4.10/bin/bin/../../lib/gcc/pic32c/8.3.1/../../../../pic32c/lib/thumb/v8-m.base/nofp/libg-musl.a(__towrite.o)
 .data          0x00000000        0x0 /Applications/microchip/xc32/v4.10/bin/bin/../../lib/gcc/pic32c/8.3.1/../../../../pic32c/lib/thumb/v8-m.base/nofp/libg-musl.a(__towrite.o)
 .bss           0x00000000        0x0 /Applications/microchip/xc32/v4.10/bin/bin/../../lib/gcc/pic32c/8.3.1/../../../../pic32c/lib/thumb/v8-m.base/nofp/libg-musl.a(__towrite.o)
 .xc_stack_usage
                0x00000000       0x2c /Applications/microchip/xc32/v4.10/bin/bin/../../lib/gcc/pic32c/8.3.1/../../../../pic32c/lib/thumb/v8-m.base/nofp/libg-musl.a(__towrite.o)
 .text.__dummy  0x00000000        0x4 /Applications/microchip/xc32/v4.10/bin/bin/../../lib/gcc/pic32c/8.3.1/../../../../pic32c/lib/thumb/v8-m.base/nofp/libg-musl.a(__towrite.o)
 .xc_stack_usage.hdr
                0x00000000        0xe /Applications/microchip/xc32/v4.10/bin/bin/../../lib/gcc/pic32c/8.3.1/../../../../pic32c/lib/thumb/v8-m.base/nofp/libg-musl.a(__towrite.o)
 .text          0x00000000        0x0 /Applications/microchip/xc32/v4.10/bin/bin/../../lib/gcc/pic32c/8.3.1/../../../../pic32c/lib/thumb/v8-m.base/nofp/libg-musl.a(vsnprintf.o)
 .data          0x00000000        0x0 /Applications/microchip/xc32/v4.10/bin/bin/../../lib/gcc/pic32c/8.3.1/../../../../pic32c/lib/thumb/v8-m.base/nofp/libg-musl.a(vsnprintf.o)
 .bss           0x00000000        0x0 /Applications/microchip/xc32/v4.10/bin/bin/../../lib/gcc/pic32c/8.3.1/../../../../pic32c/lib/thumb/v8-m.base/nofp/libg-musl.a(vsnprintf.o)
 .xc_stack_usage
                0x00000000       0x17 /Applications/microchip/xc32/v4.10/bin/bin/../../lib/gcc/pic32c/8.3.1/../../../../pic32c/lib/thumb/v8-m.base/nofp/libg-musl.a(vsnprintf.o)
 .xc_stack_usage.hdr
                0x00000000        0xe /Applications/microchip/xc32/v4.10/bin/bin/../../lib/gcc/pic32c/8.3.1/../../../../pic32c/lib/thumb/v8-m.base/nofp/libg-musl.a(vsnprintf.o)
 .text          0x00000000        0x0 /Applications/microchip/xc32/v4.10/bin/bin/../../lib/gcc/pic32c/8.3.1/../../../../pic32c/lib/thumb/v8-m.base/nofp/libg-musl.a(strtod.o)
 .data          0x00000000        0x0 /Applications/microchip/xc32/v4.10/bin/bin/../../lib/gcc/pic32c/8.3.1/../../../../pic32c/lib/thumb/v8-m.base/nofp/libg-musl.a(strtod.o)
 .bss           0x00000000        0x0 /Applications/microchip/xc32/v4.10/bin/bin/../../lib/gcc/pic32c/8.3.1/../../../../pic32c/lib/thumb/v8-m.base/nofp/libg-musl.a(strtod.o)
 .xc_stack_usage
                0x00000000       0x51 /Applications/microchip/xc32/v4.10/bin/bin/../../lib/gcc/pic32c/8.3.1/../../../../pic32c/lib/thumb/v8-m.base/nofp/libg-musl.a(strtod.o)
 .text.strtof   0x00000000        0xe /Applications/microchip/xc32/v4.10/bin/bin/../../lib/gcc/pic32c/8.3.1/../../../../pic32c/lib/thumb/v8-m.base/nofp/libg-musl.a(strtod.o)
 .text.strtod   0x00000000        0xa /Applications/microchip/xc32/v4.10/bin/bin/../../lib/gcc/pic32c/8.3.1/../../../../pic32c/lib/thumb/v8-m.base/nofp/libg-musl.a(strtod.o)
 .xc_stack_usage.hdr
                0x00000000        0xe /Applications/microchip/xc32/v4.10/bin/bin/../../lib/gcc/pic32c/8.3.1/../../../../pic32c/lib/thumb/v8-m.base/nofp/libg-musl.a(strtod.o)
 .text          0x00000000        0x0 /Applications/microchip/xc32/v4.10/bin/bin/../../lib/gcc/pic32c/8.3.1/../../../../pic32c/lib/thumb/v8-m.base/nofp/libg-musl.a(__month_to_secs.o)
 .data          0x00000000        0x0 /Applications/microchip/xc32/v4.10/bin/bin/../../lib/gcc/pic32c/8.3.1/../../../../pic32c/lib/thumb/v8-m.base/nofp/libg-musl.a(__month_to_secs.o)
 .bss           0x00000000        0x0 /Applications/microchip/xc32/v4.10/bin/bin/../../lib/gcc/pic32c/8.3.1/../../../../pic32c/lib/thumb/v8-m.base/nofp/libg-musl.a(__month_to_secs.o)
 .xc_stack_usage
                0x00000000       0x1d /Applications/microchip/xc32/v4.10/bin/bin/../../lib/gcc/pic32c/8.3.1/../../../../pic32c/lib/thumb/v8-m.base/nofp/libg-musl.a(__month_to_secs.o)
 .xc_stack_usage.hdr
                0x00000000        0xe /Applications/microchip/xc32/v4.10/bin/bin/../../lib/gcc/pic32c/8.3.1/../../../../pic32c/lib/thumb/v8-m.base/nofp/libg-musl.a(__month_to_secs.o)
 .text          0x00000000        0x0 /Applications/microchip/xc32/v4.10/bin/bin/../../lib/gcc/pic32c/8.3.1/../../../../pic32c/lib/thumb/v8-m.base/nofp/libg-musl.a(__secs_to_tm.o)
 .data          0x00000000        0x0 /Applications/microchip/xc32/v4.10/bin/bin/../../lib/gcc/pic32c/8.3.1/../../../../pic32c/lib/thumb/v8-m.base/nofp/libg-musl.a(__secs_to_tm.o)
 .bss           0x00000000        0x0 /Applications/microchip/xc32/v4.10/bin/bin/../../lib/gcc/pic32c/8.3.1/../../../../pic32c/lib/thumb/v8-m.base/nofp/libg-musl.a(__secs_to_tm.o)
 .xc_stack_usage
                0x00000000       0x1a /Applications/microchip/xc32/v4.10/bin/bin/../../lib/gcc/pic32c/8.3.1/../../../../pic32c/lib/thumb/v8-m.base/nofp/libg-musl.a(__secs_to_tm.o)
 .xc_stack_usage.hdr
                0x00000000        0xe /Applications/microchip/xc32/v4.10/bin/bin/../../lib/gcc/pic32c/8.3.1/../../../../pic32c/lib/thumb/v8-m.base/nofp/libg-musl.a(__secs_to_tm.o)
 .text          0x00000000        0x0 /Applications/microchip/xc32/v4.10/bin/bin/../../lib/gcc/pic32c/8.3.1/../../../../pic32c/lib/thumb/v8-m.base/nofp/libg-musl.a(writev.o)
 .data          0x00000000        0x0 /Applications/microchip/xc32/v4.10/bin/bin/../../lib/gcc/pic32c/8.3.1/../../../../pic32c/lib/thumb/v8-m.base/nofp/libg-musl.a(writev.o)
 .bss           0x00000000        0x0 /Applications/microchip/xc32/v4.10/bin/bin/../../lib/gcc/pic32c/8.3.1/../../../../pic32c/lib/thumb/v8-m.base/nofp/libg-musl.a(writev.o)
 .xc_stack_usage
                0x00000000       0x16 /Applications/microchip/xc32/v4.10/bin/bin/../../lib/gcc/pic32c/8.3.1/../../../../pic32c/lib/thumb/v8-m.base/nofp/libg-musl.a(writev.o)
 .xc_stack_usage.hdr
                0x00000000        0xe /Applications/microchip/xc32/v4.10/bin/bin/../../lib/gcc/pic32c/8.3.1/../../../../pic32c/lib/thumb/v8-m.base/nofp/libg-musl.a(writev.o)
 .text          0x00000000        0x0 /Applications/microchip/xc32/v4.10/bin/bin/../../lib/gcc/pic32c/8.3.1/../../../../pic32c/lib/thumb/v8-m.base/nofp/libg-musl.a(floatscan.o)
 .data          0x00000000        0x0 /Applications/microchip/xc32/v4.10/bin/bin/../../lib/gcc/pic32c/8.3.1/../../../../pic32c/lib/thumb/v8-m.base/nofp/libg-musl.a(floatscan.o)
 .bss           0x00000000        0x0 /Applications/microchip/xc32/v4.10/bin/bin/../../lib/gcc/pic32c/8.3.1/../../../../pic32c/lib/thumb/v8-m.base/nofp/libg-musl.a(floatscan.o)
 .xc_stack_usage
                0x00000000       0x44 /Applications/microchip/xc32/v4.10/bin/bin/../../lib/gcc/pic32c/8.3.1/../../../../pic32c/lib/thumb/v8-m.base/nofp/libg-musl.a(floatscan.o)
 .xc_stack_usage.hdr
                0x00000000        0xe /Applications/microchip/xc32/v4.10/bin/bin/../../lib/gcc/pic32c/8.3.1/../../../../pic32c/lib/thumb/v8-m.base/nofp/libg-musl.a(floatscan.o)
 .text          0x00000000        0x0 /Applications/microchip/xc32/v4.10/bin/bin/../../lib/gcc/pic32c/8.3.1/../../../../pic32c/lib/thumb/v8-m.base/nofp/libg-musl.a(__overflow.o)
 .data          0x00000000        0x0 /Applications/microchip/xc32/v4.10/bin/bin/../../lib/gcc/pic32c/8.3.1/../../../../pic32c/lib/thumb/v8-m.base/nofp/libg-musl.a(__overflow.o)
 .bss           0x00000000        0x0 /Applications/microchip/xc32/v4.10/bin/bin/../../lib/gcc/pic32c/8.3.1/../../../../pic32c/lib/thumb/v8-m.base/nofp/libg-musl.a(__overflow.o)
 .xc_stack_usage
                0x00000000       0x18 /Applications/microchip/xc32/v4.10/bin/bin/../../lib/gcc/pic32c/8.3.1/../../../../pic32c/lib/thumb/v8-m.base/nofp/libg-musl.a(__overflow.o)
 .xc_stack_usage.hdr
                0x00000000        0xe /Applications/microchip/xc32/v4.10/bin/bin/../../lib/gcc/pic32c/8.3.1/../../../../pic32c/lib/thumb/v8-m.base/nofp/libg-musl.a(__overflow.o)
 .text          0x00000000        0x0 /Applications/microchip/xc32/v4.10/bin/bin/../../lib/gcc/pic32c/8.3.1/../../../../pic32c/lib/thumb/v8-m.base/nofp/libg-musl.a(__toread.o)
 .data          0x00000000        0x0 /Applications/microchip/xc32/v4.10/bin/bin/../../lib/gcc/pic32c/8.3.1/../../../../pic32c/lib/thumb/v8-m.base/nofp/libg-musl.a(__toread.o)
 .bss           0x00000000        0x0 /Applications/microchip/xc32/v4.10/bin/bin/../../lib/gcc/pic32c/8.3.1/../../../../pic32c/lib/thumb/v8-m.base/nofp/libg-musl.a(__toread.o)
 .xc_stack_usage
                0x00000000       0x3d /Applications/microchip/xc32/v4.10/bin/bin/../../lib/gcc/pic32c/8.3.1/../../../../pic32c/lib/thumb/v8-m.base/nofp/libg-musl.a(__toread.o)
 .text.__toread_needs_stdio_exit
                0x00000000        0x8 /Applications/microchip/xc32/v4.10/bin/bin/../../lib/gcc/pic32c/8.3.1/../../../../pic32c/lib/thumb/v8-m.base/nofp/libg-musl.a(__toread.o)
 .xc_stack_usage.hdr
                0x00000000        0xe /Applications/microchip/xc32/v4.10/bin/bin/../../lib/gcc/pic32c/8.3.1/../../../../pic32c/lib/thumb/v8-m.base/nofp/libg-musl.a(__toread.o)
 .text          0x00000000        0x0 /Applications/microchip/xc32/v4.10/bin/bin/../../lib/gcc/pic32c/8.3.1/../../../../pic32c/lib/thumb/v8-m.base/nofp/libg-musl.a(__fclose.o)
 .data          0x00000000        0x0 /Applications/microchip/xc32/v4.10/bin/bin/../../lib/gcc/pic32c/8.3.1/../../../../pic32c/lib/thumb/v8-m.base/nofp/libg-musl.a(__fclose.o)
 .bss           0x00000000        0x0 /Applications/microchip/xc32/v4.10/bin/bin/../../lib/gcc/pic32c/8.3.1/../../../../pic32c/lib/thumb/v8-m.base/nofp/libg-musl.a(__fclose.o)
 .xc_stack_usage
                0x00000000       0x16 /Applications/microchip/xc32/v4.10/bin/bin/../../lib/gcc/pic32c/8.3.1/../../../../pic32c/lib/thumb/v8-m.base/nofp/libg-musl.a(__fclose.o)
 .xc_stack_usage.hdr
                0x00000000        0xe /Applications/microchip/xc32/v4.10/bin/bin/../../lib/gcc/pic32c/8.3.1/../../../../pic32c/lib/thumb/v8-m.base/nofp/libg-musl.a(__fclose.o)
 .text          0x00000000        0x0 /Applications/microchip/xc32/v4.10/bin/bin/../../lib/gcc/pic32c/8.3.1/../../../../pic32c/lib/thumb/v8-m.base/nofp/libg-musl.a(__fopen.o)
 .data          0x00000000        0x0 /Applications/microchip/xc32/v4.10/bin/bin/../../lib/gcc/pic32c/8.3.1/../../../../pic32c/lib/thumb/v8-m.base/nofp/libg-musl.a(__fopen.o)
 .bss           0x00000000        0x0 /Applications/microchip/xc32/v4.10/bin/bin/../../lib/gcc/pic32c/8.3.1/../../../../pic32c/lib/thumb/v8-m.base/nofp/libg-musl.a(__fopen.o)
 .xc_stack_usage
                0x00000000       0x43 /Applications/microchip/xc32/v4.10/bin/bin/../../lib/gcc/pic32c/8.3.1/../../../../pic32c/lib/thumb/v8-m.base/nofp/libg-musl.a(__fopen.o)
 .text.__dummy  0x00000000        0x6 /Applications/microchip/xc32/v4.10/bin/bin/../../lib/gcc/pic32c/8.3.1/../../../../pic32c/lib/thumb/v8-m.base/nofp/libg-musl.a(__fopen.o)
 .text.__fopen_std
                0x00000000       0x30 /Applications/microchip/xc32/v4.10/bin/bin/../../lib/gcc/pic32c/8.3.1/../../../../pic32c/lib/thumb/v8-m.base/nofp/libg-musl.a(__fopen.o)
 .text.__fopen  0x00000000        0x8 /Applications/microchip/xc32/v4.10/bin/bin/../../lib/gcc/pic32c/8.3.1/../../../../pic32c/lib/thumb/v8-m.base/nofp/libg-musl.a(__fopen.o)
 .xc_stack_usage.hdr
                0x00000000        0xe /Applications/microchip/xc32/v4.10/bin/bin/../../lib/gcc/pic32c/8.3.1/../../../../pic32c/lib/thumb/v8-m.base/nofp/libg-musl.a(__fopen.o)
 .debug_info    0x00000000      0x583 /Applications/microchip/xc32/v4.10/bin/bin/../../lib/gcc/pic32c/8.3.1/../../../../pic32c/lib/thumb/v8-m.base/nofp/libg-musl.a(__fopen.o)
 .debug_abbrev  0x00000000      0x14f /Applications/microchip/xc32/v4.10/bin/bin/../../lib/gcc/pic32c/8.3.1/../../../../pic32c/lib/thumb/v8-m.base/nofp/libg-musl.a(__fopen.o)
 .debug_loc     0x00000000       0x94 /Applications/microchip/xc32/v4.10/bin/bin/../../lib/gcc/pic32c/8.3.1/../../../../pic32c/lib/thumb/v8-m.base/nofp/libg-musl.a(__fopen.o)
 .debug_aranges
                0x00000000       0x30 /Applications/microchip/xc32/v4.10/bin/bin/../../lib/gcc/pic32c/8.3.1/../../../../pic32c/lib/thumb/v8-m.base/nofp/libg-musl.a(__fopen.o)
 .debug_ranges  0x00000000       0x20 /Applications/microchip/xc32/v4.10/bin/bin/../../lib/gcc/pic32c/8.3.1/../../../../pic32c/lib/thumb/v8-m.base/nofp/libg-musl.a(__fopen.o)
 .debug_line    0x00000000      0x23a /Applications/microchip/xc32/v4.10/bin/bin/../../lib/gcc/pic32c/8.3.1/../../../../pic32c/lib/thumb/v8-m.base/nofp/libg-musl.a(__fopen.o)
 .debug_str     0x00000000        0x0 /Applications/microchip/xc32/v4.10/bin/bin/../../lib/gcc/pic32c/8.3.1/../../../../pic32c/lib/thumb/v8-m.base/nofp/libg-musl.a(__fopen.o)
 .comment       0x00000000       0x2c /Applications/microchip/xc32/v4.10/bin/bin/../../lib/gcc/pic32c/8.3.1/../../../../pic32c/lib/thumb/v8-m.base/nofp/libg-musl.a(__fopen.o)
 .note.GNU-stack
                0x00000000        0x0 /Applications/microchip/xc32/v4.10/bin/bin/../../lib/gcc/pic32c/8.3.1/../../../../pic32c/lib/thumb/v8-m.base/nofp/libg-musl.a(__fopen.o)
 .debug_frame   0x00000000       0x50 /Applications/microchip/xc32/v4.10/bin/bin/../../lib/gcc/pic32c/8.3.1/../../../../pic32c/lib/thumb/v8-m.base/nofp/libg-musl.a(__fopen.o)
 .ARM.attributes
                0x00000000       0x32 /Applications/microchip/xc32/v4.10/bin/bin/../../lib/gcc/pic32c/8.3.1/../../../../pic32c/lib/thumb/v8-m.base/nofp/libg-musl.a(__fopen.o)
 .text          0x00000000        0x0 /Applications/microchip/xc32/v4.10/bin/bin/../../lib/gcc/pic32c/8.3.1/../../../../pic32c/lib/thumb/v8-m.base/nofp/libg-musl.a(__fseeko.o)
 .data          0x00000000        0x0 /Applications/microchip/xc32/v4.10/bin/bin/../../lib/gcc/pic32c/8.3.1/../../../../pic32c/lib/thumb/v8-m.base/nofp/libg-musl.a(__fseeko.o)
 .bss           0x00000000        0x0 /Applications/microchip/xc32/v4.10/bin/bin/../../lib/gcc/pic32c/8.3.1/../../../../pic32c/lib/thumb/v8-m.base/nofp/libg-musl.a(__fseeko.o)
 .xc_stack_usage
                0x00000000       0x16 /Applications/microchip/xc32/v4.10/bin/bin/../../lib/gcc/pic32c/8.3.1/../../../../pic32c/lib/thumb/v8-m.base/nofp/libg-musl.a(__fseeko.o)
 .text.__fseeko
                0x00000000        0xc /Applications/microchip/xc32/v4.10/bin/bin/../../lib/gcc/pic32c/8.3.1/../../../../pic32c/lib/thumb/v8-m.base/nofp/libg-musl.a(__fseeko.o)
 .xc_stack_usage.hdr
                0x00000000        0xe /Applications/microchip/xc32/v4.10/bin/bin/../../lib/gcc/pic32c/8.3.1/../../../../pic32c/lib/thumb/v8-m.base/nofp/libg-musl.a(__fseeko.o)
 .debug_info    0x00000000      0x4f3 /Applications/microchip/xc32/v4.10/bin/bin/../../lib/gcc/pic32c/8.3.1/../../../../pic32c/lib/thumb/v8-m.base/nofp/libg-musl.a(__fseeko.o)
 .debug_abbrev  0x00000000       0xd9 /Applications/microchip/xc32/v4.10/bin/bin/../../lib/gcc/pic32c/8.3.1/../../../../pic32c/lib/thumb/v8-m.base/nofp/libg-musl.a(__fseeko.o)
 .debug_loc     0x00000000       0x72 /Applications/microchip/xc32/v4.10/bin/bin/../../lib/gcc/pic32c/8.3.1/../../../../pic32c/lib/thumb/v8-m.base/nofp/libg-musl.a(__fseeko.o)
 .debug_aranges
                0x00000000       0x20 /Applications/microchip/xc32/v4.10/bin/bin/../../lib/gcc/pic32c/8.3.1/../../../../pic32c/lib/thumb/v8-m.base/nofp/libg-musl.a(__fseeko.o)
 .debug_ranges  0x00000000       0x10 /Applications/microchip/xc32/v4.10/bin/bin/../../lib/gcc/pic32c/8.3.1/../../../../pic32c/lib/thumb/v8-m.base/nofp/libg-musl.a(__fseeko.o)
 .debug_line    0x00000000      0x159 /Applications/microchip/xc32/v4.10/bin/bin/../../lib/gcc/pic32c/8.3.1/../../../../pic32c/lib/thumb/v8-m.base/nofp/libg-musl.a(__fseeko.o)
 .debug_str     0x00000000        0x0 /Applications/microchip/xc32/v4.10/bin/bin/../../lib/gcc/pic32c/8.3.1/../../../../pic32c/lib/thumb/v8-m.base/nofp/libg-musl.a(__fseeko.o)
 .comment       0x00000000       0x2c /Applications/microchip/xc32/v4.10/bin/bin/../../lib/gcc/pic32c/8.3.1/../../../../pic32c/lib/thumb/v8-m.base/nofp/libg-musl.a(__fseeko.o)
 .note.GNU-stack
                0x00000000        0x0 /Applications/microchip/xc32/v4.10/bin/bin/../../lib/gcc/pic32c/8.3.1/../../../../pic32c/lib/thumb/v8-m.base/nofp/libg-musl.a(__fseeko.o)
 .debug_frame   0x00000000       0x2c /Applications/microchip/xc32/v4.10/bin/bin/../../lib/gcc/pic32c/8.3.1/../../../../pic32c/lib/thumb/v8-m.base/nofp/libg-musl.a(__fseeko.o)
 .ARM.attributes
                0x00000000       0x32 /Applications/microchip/xc32/v4.10/bin/bin/../../lib/gcc/pic32c/8.3.1/../../../../pic32c/lib/thumb/v8-m.base/nofp/libg-musl.a(__fseeko.o)
 .text          0x00000000        0x0 /Applications/microchip/xc32/v4.10/bin/bin/../../lib/gcc/pic32c/8.3.1/../../../../pic32c/lib/thumb/v8-m.base/nofp/libg-musl.a(__ftello.o)
 .data          0x00000000        0x0 /Applications/microchip/xc32/v4.10/bin/bin/../../lib/gcc/pic32c/8.3.1/../../../../pic32c/lib/thumb/v8-m.base/nofp/libg-musl.a(__ftello.o)
 .bss           0x00000000        0x0 /Applications/microchip/xc32/v4.10/bin/bin/../../lib/gcc/pic32c/8.3.1/../../../../pic32c/lib/thumb/v8-m.base/nofp/libg-musl.a(__ftello.o)
 .xc_stack_usage
                0x00000000       0x2f /Applications/microchip/xc32/v4.10/bin/bin/../../lib/gcc/pic32c/8.3.1/../../../../pic32c/lib/thumb/v8-m.base/nofp/libg-musl.a(__ftello.o)
 .text.__dummy  0x00000000       0x1e /Applications/microchip/xc32/v4.10/bin/bin/../../lib/gcc/pic32c/8.3.1/../../../../pic32c/lib/thumb/v8-m.base/nofp/libg-musl.a(__ftello.o)
 .text.__ftello_adj
                0x00000000        0x8 /Applications/microchip/xc32/v4.10/bin/bin/../../lib/gcc/pic32c/8.3.1/../../../../pic32c/lib/thumb/v8-m.base/nofp/libg-musl.a(__ftello.o)
 .xc_stack_usage.hdr
                0x00000000        0xe /Applications/microchip/xc32/v4.10/bin/bin/../../lib/gcc/pic32c/8.3.1/../../../../pic32c/lib/thumb/v8-m.base/nofp/libg-musl.a(__ftello.o)
 .debug_info    0x00000000      0x51e /Applications/microchip/xc32/v4.10/bin/bin/../../lib/gcc/pic32c/8.3.1/../../../../pic32c/lib/thumb/v8-m.base/nofp/libg-musl.a(__ftello.o)
 .debug_abbrev  0x00000000       0xf5 /Applications/microchip/xc32/v4.10/bin/bin/../../lib/gcc/pic32c/8.3.1/../../../../pic32c/lib/thumb/v8-m.base/nofp/libg-musl.a(__ftello.o)
 .debug_loc     0x00000000       0xaf /Applications/microchip/xc32/v4.10/bin/bin/../../lib/gcc/pic32c/8.3.1/../../../../pic32c/lib/thumb/v8-m.base/nofp/libg-musl.a(__ftello.o)
 .debug_aranges
                0x00000000       0x28 /Applications/microchip/xc32/v4.10/bin/bin/../../lib/gcc/pic32c/8.3.1/../../../../pic32c/lib/thumb/v8-m.base/nofp/libg-musl.a(__ftello.o)
 .debug_ranges  0x00000000       0x18 /Applications/microchip/xc32/v4.10/bin/bin/../../lib/gcc/pic32c/8.3.1/../../../../pic32c/lib/thumb/v8-m.base/nofp/libg-musl.a(__ftello.o)
 .debug_line    0x00000000      0x186 /Applications/microchip/xc32/v4.10/bin/bin/../../lib/gcc/pic32c/8.3.1/../../../../pic32c/lib/thumb/v8-m.base/nofp/libg-musl.a(__ftello.o)
 .debug_str     0x00000000        0x0 /Applications/microchip/xc32/v4.10/bin/bin/../../lib/gcc/pic32c/8.3.1/../../../../pic32c/lib/thumb/v8-m.base/nofp/libg-musl.a(__ftello.o)
 .comment       0x00000000       0x2c /Applications/microchip/xc32/v4.10/bin/bin/../../lib/gcc/pic32c/8.3.1/../../../../pic32c/lib/thumb/v8-m.base/nofp/libg-musl.a(__ftello.o)
 .note.GNU-stack
                0x00000000        0x0 /Applications/microchip/xc32/v4.10/bin/bin/../../lib/gcc/pic32c/8.3.1/../../../../pic32c/lib/thumb/v8-m.base/nofp/libg-musl.a(__ftello.o)
 .debug_frame   0x00000000       0x40 /Applications/microchip/xc32/v4.10/bin/bin/../../lib/gcc/pic32c/8.3.1/../../../../pic32c/lib/thumb/v8-m.base/nofp/libg-musl.a(__ftello.o)
 .ARM.attributes
                0x00000000       0x32 /Applications/microchip/xc32/v4.10/bin/bin/../../lib/gcc/pic32c/8.3.1/../../../../pic32c/lib/thumb/v8-m.base/nofp/libg-musl.a(__ftello.o)
 .text          0x00000000        0x0 /Applications/microchip/xc32/v4.10/bin/bin/../../lib/gcc/pic32c/8.3.1/../../../../pic32c/lib/thumb/v8-m.base/nofp/libg-musl.a(__fwrite.o)
 .data          0x00000000        0x0 /Applications/microchip/xc32/v4.10/bin/bin/../../lib/gcc/pic32c/8.3.1/../../../../pic32c/lib/thumb/v8-m.base/nofp/libg-musl.a(__fwrite.o)
 .bss           0x00000000        0x0 /Applications/microchip/xc32/v4.10/bin/bin/../../lib/gcc/pic32c/8.3.1/../../../../pic32c/lib/thumb/v8-m.base/nofp/libg-musl.a(__fwrite.o)
 .xc_stack_usage
                0x00000000       0x36 /Applications/microchip/xc32/v4.10/bin/bin/../../lib/gcc/pic32c/8.3.1/../../../../pic32c/lib/thumb/v8-m.base/nofp/libg-musl.a(__fwrite.o)
 .xc_stack_usage.hdr
                0x00000000        0xe /Applications/microchip/xc32/v4.10/bin/bin/../../lib/gcc/pic32c/8.3.1/../../../../pic32c/lib/thumb/v8-m.base/nofp/libg-musl.a(__fwrite.o)
 .text          0x00000000        0x0 /Applications/microchip/xc32/v4.10/bin/bin/../../lib/gcc/pic32c/8.3.1/../../../../pic32c/lib/thumb/v8-m.base/nofp/libg-musl.a(__push_float.o)
 .data          0x00000000        0x0 /Applications/microchip/xc32/v4.10/bin/bin/../../lib/gcc/pic32c/8.3.1/../../../../pic32c/lib/thumb/v8-m.base/nofp/libg-musl.a(__push_float.o)
 .bss           0x00000000        0x0 /Applications/microchip/xc32/v4.10/bin/bin/../../lib/gcc/pic32c/8.3.1/../../../../pic32c/lib/thumb/v8-m.base/nofp/libg-musl.a(__push_float.o)
 .xc_stack_usage
                0x00000000       0x1a /Applications/microchip/xc32/v4.10/bin/bin/../../lib/gcc/pic32c/8.3.1/../../../../pic32c/lib/thumb/v8-m.base/nofp/libg-musl.a(__push_float.o)
 .xc_stack_usage.hdr
                0x00000000        0xe /Applications/microchip/xc32/v4.10/bin/bin/../../lib/gcc/pic32c/8.3.1/../../../../pic32c/lib/thumb/v8-m.base/nofp/libg-musl.a(__push_float.o)
 .text          0x00000000        0x0 /Applications/microchip/xc32/v4.10/bin/bin/../../lib/gcc/pic32c/8.3.1/../../../../pic32c/lib/thumb/v8-m.base/nofp/libg-musl.a(__push_int.o)
 .data          0x00000000        0x0 /Applications/microchip/xc32/v4.10/bin/bin/../../lib/gcc/pic32c/8.3.1/../../../../pic32c/lib/thumb/v8-m.base/nofp/libg-musl.a(__push_int.o)
 .bss           0x00000000        0x0 /Applications/microchip/xc32/v4.10/bin/bin/../../lib/gcc/pic32c/8.3.1/../../../../pic32c/lib/thumb/v8-m.base/nofp/libg-musl.a(__push_int.o)
 .xc_stack_usage
                0x00000000       0x18 /Applications/microchip/xc32/v4.10/bin/bin/../../lib/gcc/pic32c/8.3.1/../../../../pic32c/lib/thumb/v8-m.base/nofp/libg-musl.a(__push_int.o)
 .xc_stack_usage.hdr
                0x00000000        0xe /Applications/microchip/xc32/v4.10/bin/bin/../../lib/gcc/pic32c/8.3.1/../../../../pic32c/lib/thumb/v8-m.base/nofp/libg-musl.a(__push_int.o)
 .text          0x00000000        0x0 /Applications/microchip/xc32/v4.10/bin/bin/../../lib/gcc/pic32c/8.3.1/../../../../pic32c/lib/thumb/v8-m.base/nofp/libg-musl.a(vfprintf.o)
 .data          0x00000000        0x0 /Applications/microchip/xc32/v4.10/bin/bin/../../lib/gcc/pic32c/8.3.1/../../../../pic32c/lib/thumb/v8-m.base/nofp/libg-musl.a(vfprintf.o)
 .bss           0x00000000        0x0 /Applications/microchip/xc32/v4.10/bin/bin/../../lib/gcc/pic32c/8.3.1/../../../../pic32c/lib/thumb/v8-m.base/nofp/libg-musl.a(vfprintf.o)
 .xc_stack_usage
                0x00000000       0x38 /Applications/microchip/xc32/v4.10/bin/bin/../../lib/gcc/pic32c/8.3.1/../../../../pic32c/lib/thumb/v8-m.base/nofp/libg-musl.a(vfprintf.o)
 .xc_stack_usage.hdr
                0x00000000        0xe /Applications/microchip/xc32/v4.10/bin/bin/../../lib/gcc/pic32c/8.3.1/../../../../pic32c/lib/thumb/v8-m.base/nofp/libg-musl.a(vfprintf.o)
 .text          0x00000000        0x0 /Applications/microchip/xc32/v4.10/bin/bin/../../lib/gcc/pic32c/8.3.1/../../../../pic32c/lib/thumb/v8-m.base/nofp/libg-musl.a(__io_fmt_needed.o)
 .data          0x00000000        0x0 /Applications/microchip/xc32/v4.10/bin/bin/../../lib/gcc/pic32c/8.3.1/../../../../pic32c/lib/thumb/v8-m.base/nofp/libg-musl.a(__io_fmt_needed.o)
 .bss           0x00000000        0x0 /Applications/microchip/xc32/v4.10/bin/bin/../../lib/gcc/pic32c/8.3.1/../../../../pic32c/lib/thumb/v8-m.base/nofp/libg-musl.a(__io_fmt_needed.o)
 .xc_stack_usage
                0x00000000       0x1d /Applications/microchip/xc32/v4.10/bin/bin/../../lib/gcc/pic32c/8.3.1/../../../../pic32c/lib/thumb/v8-m.base/nofp/libg-musl.a(__io_fmt_needed.o)
 .xc_stack_usage.hdr
                0x00000000        0xe /Applications/microchip/xc32/v4.10/bin/bin/../../lib/gcc/pic32c/8.3.1/../../../../pic32c/lib/thumb/v8-m.base/nofp/libg-musl.a(__io_fmt_needed.o)
 .debug_info    0x00000000      0x3b4 /Applications/microchip/xc32/v4.10/bin/bin/../../lib/gcc/pic32c/8.3.1/../../../../pic32c/lib/thumb/v8-m.base/nofp/libg-musl.a(__io_fmt_needed.o)
 .debug_abbrev  0x00000000       0x5c /Applications/microchip/xc32/v4.10/bin/bin/../../lib/gcc/pic32c/8.3.1/../../../../pic32c/lib/thumb/v8-m.base/nofp/libg-musl.a(__io_fmt_needed.o)
 .debug_loc     0x00000000       0x20 /Applications/microchip/xc32/v4.10/bin/bin/../../lib/gcc/pic32c/8.3.1/../../../../pic32c/lib/thumb/v8-m.base/nofp/libg-musl.a(__io_fmt_needed.o)
 .debug_aranges
                0x00000000       0x20 /Applications/microchip/xc32/v4.10/bin/bin/../../lib/gcc/pic32c/8.3.1/../../../../pic32c/lib/thumb/v8-m.base/nofp/libg-musl.a(__io_fmt_needed.o)
 .debug_ranges  0x00000000       0x10 /Applications/microchip/xc32/v4.10/bin/bin/../../lib/gcc/pic32c/8.3.1/../../../../pic32c/lib/thumb/v8-m.base/nofp/libg-musl.a(__io_fmt_needed.o)
 .debug_line    0x00000000       0xc9 /Applications/microchip/xc32/v4.10/bin/bin/../../lib/gcc/pic32c/8.3.1/../../../../pic32c/lib/thumb/v8-m.base/nofp/libg-musl.a(__io_fmt_needed.o)
 .debug_str     0x00000000       0x69 /Applications/microchip/xc32/v4.10/bin/bin/../../lib/gcc/pic32c/8.3.1/../../../../pic32c/lib/thumb/v8-m.base/nofp/libg-musl.a(__io_fmt_needed.o)
 .comment       0x00000000       0x2c /Applications/microchip/xc32/v4.10/bin/bin/../../lib/gcc/pic32c/8.3.1/../../../../pic32c/lib/thumb/v8-m.base/nofp/libg-musl.a(__io_fmt_needed.o)
 .note.GNU-stack
                0x00000000        0x0 /Applications/microchip/xc32/v4.10/bin/bin/../../lib/gcc/pic32c/8.3.1/../../../../pic32c/lib/thumb/v8-m.base/nofp/libg-musl.a(__io_fmt_needed.o)
 .debug_frame   0x00000000       0x28 /Applications/microchip/xc32/v4.10/bin/bin/../../lib/gcc/pic32c/8.3.1/../../../../pic32c/lib/thumb/v8-m.base/nofp/libg-musl.a(__io_fmt_needed.o)
 .ARM.attributes
                0x00000000       0x32 /Applications/microchip/xc32/v4.10/bin/bin/../../lib/gcc/pic32c/8.3.1/../../../../pic32c/lib/thumb/v8-m.base/nofp/libg-musl.a(__io_fmt_needed.o)
 .text          0x00000000        0x0 /Applications/microchip/xc32/v4.10/bin/bin/../../lib/gcc/pic32c/8.3.1/../../../../pic32c/lib/thumb/v8-m.base/nofp/libg-musl.a(__fmt_a.o)
 .data          0x00000000        0x0 /Applications/microchip/xc32/v4.10/bin/bin/../../lib/gcc/pic32c/8.3.1/../../../../pic32c/lib/thumb/v8-m.base/nofp/libg-musl.a(__fmt_a.o)
 .bss           0x00000000        0x0 /Applications/microchip/xc32/v4.10/bin/bin/../../lib/gcc/pic32c/8.3.1/../../../../pic32c/lib/thumb/v8-m.base/nofp/libg-musl.a(__fmt_a.o)
 .xc_stack_usage
                0x00000000       0x15 /Applications/microchip/xc32/v4.10/bin/bin/../../lib/gcc/pic32c/8.3.1/../../../../pic32c/lib/thumb/v8-m.base/nofp/libg-musl.a(__fmt_a.o)
 .xc_stack_usage.hdr
                0x00000000        0xe /Applications/microchip/xc32/v4.10/bin/bin/../../lib/gcc/pic32c/8.3.1/../../../../pic32c/lib/thumb/v8-m.base/nofp/libg-musl.a(__fmt_a.o)
 .text          0x00000000        0x0 /Applications/microchip/xc32/v4.10/bin/bin/../../lib/gcc/pic32c/8.3.1/../../../../pic32c/lib/thumb/v8-m.base/nofp/libc-musl.a(fprintf.o)
 .data          0x00000000        0x0 /Applications/microchip/xc32/v4.10/bin/bin/../../lib/gcc/pic32c/8.3.1/../../../../pic32c/lib/thumb/v8-m.base/nofp/libc-musl.a(fprintf.o)
 .bss           0x00000000        0x0 /Applications/microchip/xc32/v4.10/bin/bin/../../lib/gcc/pic32c/8.3.1/../../../../pic32c/lib/thumb/v8-m.base/nofp/libc-musl.a(fprintf.o)
 .xc_stack_usage
                0x00000000       0x15 /Applications/microchip/xc32/v4.10/bin/bin/../../lib/gcc/pic32c/8.3.1/../../../../pic32c/lib/thumb/v8-m.base/nofp/libc-musl.a(fprintf.o)
 .xc_stack_usage.hdr
                0x00000000        0xe /Applications/microchip/xc32/v4.10/bin/bin/../../lib/gcc/pic32c/8.3.1/../../../../pic32c/lib/thumb/v8-m.base/nofp/libc-musl.a(fprintf.o)
 .text          0x00000000        0x0 /Applications/microchip/xc32/v4.10/bin/bin/../../lib/gcc/pic32c/8.3.1/../../../../pic32c/lib/thumb/v8-m.base/nofp/libc-musl.a(printf.o)
 .data          0x00000000        0x0 /Applications/microchip/xc32/v4.10/bin/bin/../../lib/gcc/pic32c/8.3.1/../../../../pic32c/lib/thumb/v8-m.base/nofp/libc-musl.a(printf.o)
 .bss           0x00000000        0x0 /Applications/microchip/xc32/v4.10/bin/bin/../../lib/gcc/pic32c/8.3.1/../../../../pic32c/lib/thumb/v8-m.base/nofp/libc-musl.a(printf.o)
 .xc_stack_usage
                0x00000000       0x14 /Applications/microchip/xc32/v4.10/bin/bin/../../lib/gcc/pic32c/8.3.1/../../../../pic32c/lib/thumb/v8-m.base/nofp/libc-musl.a(printf.o)
 .xc_stack_usage.hdr
                0x00000000        0xe /Applications/microchip/xc32/v4.10/bin/bin/../../lib/gcc/pic32c/8.3.1/../../../../pic32c/lib/thumb/v8-m.base/nofp/libc-musl.a(printf.o)
 .text          0x00000000        0x0 /Applications/microchip/xc32/v4.10/bin/bin/../../lib/gcc/pic32c/8.3.1/../../../../pic32c/lib/thumb/v8-m.base/nofp/libm-emfloat.a(lib_a-_SCALBN.o)
 .data          0x00000000        0x0 /Applications/microchip/xc32/v4.10/bin/bin/../../lib/gcc/pic32c/8.3.1/../../../../pic32c/lib/thumb/v8-m.base/nofp/libm-emfloat.a(lib_a-_SCALBN.o)
 .bss           0x00000000        0x0 /Applications/microchip/xc32/v4.10/bin/bin/../../lib/gcc/pic32c/8.3.1/../../../../pic32c/lib/thumb/v8-m.base/nofp/libm-emfloat.a(lib_a-_SCALBN.o)
 .xc_stack_usage
                0x00000000      0x29a /Applications/microchip/xc32/v4.10/bin/bin/../../lib/gcc/pic32c/8.3.1/../../../../pic32c/lib/thumb/v8-m.base/nofp/libm-emfloat.a(lib_a-_SCALBN.o)
 .text.__SEGGER_RTL_float64_cdiv
                0x00000000      0x2b4 /Applications/microchip/xc32/v4.10/bin/bin/../../lib/gcc/pic32c/8.3.1/../../../../pic32c/lib/thumb/v8-m.base/nofp/libm-emfloat.a(lib_a-_SCALBN.o)
 .text.__SEGGER_RTL_float64_cmplx
                0x00000000       0x14 /Applications/microchip/xc32/v4.10/bin/bin/../../lib/gcc/pic32c/8.3.1/../../../../pic32c/lib/thumb/v8-m.base/nofp/libm-emfloat.a(lib_a-_SCALBN.o)
 .text.__mulsc3
                0x00000000      0x24c /Applications/microchip/xc32/v4.10/bin/bin/../../lib/gcc/pic32c/8.3.1/../../../../pic32c/lib/thumb/v8-m.base/nofp/libm-emfloat.a(lib_a-_SCALBN.o)
 .text.__divdc3
                0x00000000       0x40 /Applications/microchip/xc32/v4.10/bin/bin/../../lib/gcc/pic32c/8.3.1/../../../../pic32c/lib/thumb/v8-m.base/nofp/libm-emfloat.a(lib_a-_SCALBN.o)
 .text.__SEGGER_RTL_float32_isnan
                0x00000000       0x10 /Applications/microchip/xc32/v4.10/bin/bin/../../lib/gcc/pic32c/8.3.1/../../../../pic32c/lib/thumb/v8-m.base/nofp/libm-emfloat.a(lib_a-_SCALBN.o)
 .text.__SEGGER_RTL_float32_isinf
                0x00000000       0x10 /Applications/microchip/xc32/v4.10/bin/bin/../../lib/gcc/pic32c/8.3.1/../../../../pic32c/lib/thumb/v8-m.base/nofp/libm-emfloat.a(lib_a-_SCALBN.o)
 .text.__SEGGER_RTL_float32_isfinite
                0x00000000       0x10 /Applications/microchip/xc32/v4.10/bin/bin/../../lib/gcc/pic32c/8.3.1/../../../../pic32c/lib/thumb/v8-m.base/nofp/libm-emfloat.a(lib_a-_SCALBN.o)
 .text.__SEGGER_RTL_float32_isnormal
                0x00000000       0x18 /Applications/microchip/xc32/v4.10/bin/bin/../../lib/gcc/pic32c/8.3.1/../../../../pic32c/lib/thumb/v8-m.base/nofp/libm-emfloat.a(lib_a-_SCALBN.o)
 .text.__SEGGER_RTL_float32_signbit
                0x00000000        0x4 /Applications/microchip/xc32/v4.10/bin/bin/../../lib/gcc/pic32c/8.3.1/../../../../pic32c/lib/thumb/v8-m.base/nofp/libm-emfloat.a(lib_a-_SCALBN.o)
 .text.__SEGGER_RTL_float32_classify
                0x00000000       0x2c /Applications/microchip/xc32/v4.10/bin/bin/../../lib/gcc/pic32c/8.3.1/../../../../pic32c/lib/thumb/v8-m.base/nofp/libm-emfloat.a(lib_a-_SCALBN.o)
 .text.__SEGGER_RTL_float64_isnan
                0x00000000       0x10 /Applications/microchip/xc32/v4.10/bin/bin/../../lib/gcc/pic32c/8.3.1/../../../../pic32c/lib/thumb/v8-m.base/nofp/libm-emfloat.a(lib_a-_SCALBN.o)
 .text.__SEGGER_RTL_float64_isinf
                0x00000000       0x10 /Applications/microchip/xc32/v4.10/bin/bin/../../lib/gcc/pic32c/8.3.1/../../../../pic32c/lib/thumb/v8-m.base/nofp/libm-emfloat.a(lib_a-_SCALBN.o)
 .text.__SEGGER_RTL_float64_isfinite
                0x00000000       0x10 /Applications/microchip/xc32/v4.10/bin/bin/../../lib/gcc/pic32c/8.3.1/../../../../pic32c/lib/thumb/v8-m.base/nofp/libm-emfloat.a(lib_a-_SCALBN.o)
 .text.__SEGGER_RTL_float64_isnormal
                0x00000000       0x24 /Applications/microchip/xc32/v4.10/bin/bin/../../lib/gcc/pic32c/8.3.1/../../../../pic32c/lib/thumb/v8-m.base/nofp/libm-emfloat.a(lib_a-_SCALBN.o)
 .text.__SEGGER_RTL_float64_signbit
                0x00000000        0x4 /Applications/microchip/xc32/v4.10/bin/bin/../../lib/gcc/pic32c/8.3.1/../../../../pic32c/lib/thumb/v8-m.base/nofp/libm-emfloat.a(lib_a-_SCALBN.o)
 .text.__SEGGER_RTL_float64_classify
                0x00000000       0x48 /Applications/microchip/xc32/v4.10/bin/bin/../../lib/gcc/pic32c/8.3.1/../../../../pic32c/lib/thumb/v8-m.base/nofp/libm-emfloat.a(lib_a-_SCALBN.o)
 .xc_stack_usage.hdr
                0x00000000        0xe /Applications/microchip/xc32/v4.10/bin/bin/../../lib/gcc/pic32c/8.3.1/../../../../pic32c/lib/thumb/v8-m.base/nofp/libm-emfloat.a(lib_a-_SCALBN.o)
 .text          0x00000000        0x0 /Applications/microchip/xc32/v4.10/bin/bin/../../lib/gcc/pic32c/8.3.1/../../../../pic32c/lib/thumb/v8-m.base/nofp/libm-emfloat.a(lib_a-_FLOOR.o)
 .data          0x00000000        0x0 /Applications/microchip/xc32/v4.10/bin/bin/../../lib/gcc/pic32c/8.3.1/../../../../pic32c/lib/thumb/v8-m.base/nofp/libm-emfloat.a(lib_a-_FLOOR.o)
 .bss           0x00000000        0x0 /Applications/microchip/xc32/v4.10/bin/bin/../../lib/gcc/pic32c/8.3.1/../../../../pic32c/lib/thumb/v8-m.base/nofp/libm-emfloat.a(lib_a-_FLOOR.o)
 .xc_stack_usage
                0x00000000      0x298 /Applications/microchip/xc32/v4.10/bin/bin/../../lib/gcc/pic32c/8.3.1/../../../../pic32c/lib/thumb/v8-m.base/nofp/libm-emfloat.a(lib_a-_FLOOR.o)
 .text.__SEGGER_RTL_float64_cdiv
                0x00000000      0x2b4 /Applications/microchip/xc32/v4.10/bin/bin/../../lib/gcc/pic32c/8.3.1/../../../../pic32c/lib/thumb/v8-m.base/nofp/libm-emfloat.a(lib_a-_FLOOR.o)
 .text.__SEGGER_RTL_float64_cmplx
                0x00000000       0x14 /Applications/microchip/xc32/v4.10/bin/bin/../../lib/gcc/pic32c/8.3.1/../../../../pic32c/lib/thumb/v8-m.base/nofp/libm-emfloat.a(lib_a-_FLOOR.o)
 .text.__mulsc3
                0x00000000      0x24c /Applications/microchip/xc32/v4.10/bin/bin/../../lib/gcc/pic32c/8.3.1/../../../../pic32c/lib/thumb/v8-m.base/nofp/libm-emfloat.a(lib_a-_FLOOR.o)
 .text.__divdc3
                0x00000000       0x40 /Applications/microchip/xc32/v4.10/bin/bin/../../lib/gcc/pic32c/8.3.1/../../../../pic32c/lib/thumb/v8-m.base/nofp/libm-emfloat.a(lib_a-_FLOOR.o)
 .text.__SEGGER_RTL_float32_isnan
                0x00000000       0x10 /Applications/microchip/xc32/v4.10/bin/bin/../../lib/gcc/pic32c/8.3.1/../../../../pic32c/lib/thumb/v8-m.base/nofp/libm-emfloat.a(lib_a-_FLOOR.o)
 .text.__SEGGER_RTL_float32_isinf
                0x00000000       0x10 /Applications/microchip/xc32/v4.10/bin/bin/../../lib/gcc/pic32c/8.3.1/../../../../pic32c/lib/thumb/v8-m.base/nofp/libm-emfloat.a(lib_a-_FLOOR.o)
 .text.__SEGGER_RTL_float32_isfinite
                0x00000000       0x10 /Applications/microchip/xc32/v4.10/bin/bin/../../lib/gcc/pic32c/8.3.1/../../../../pic32c/lib/thumb/v8-m.base/nofp/libm-emfloat.a(lib_a-_FLOOR.o)
 .text.__SEGGER_RTL_float32_isnormal
                0x00000000       0x18 /Applications/microchip/xc32/v4.10/bin/bin/../../lib/gcc/pic32c/8.3.1/../../../../pic32c/lib/thumb/v8-m.base/nofp/libm-emfloat.a(lib_a-_FLOOR.o)
 .text.__SEGGER_RTL_float32_signbit
                0x00000000        0x4 /Applications/microchip/xc32/v4.10/bin/bin/../../lib/gcc/pic32c/8.3.1/../../../../pic32c/lib/thumb/v8-m.base/nofp/libm-emfloat.a(lib_a-_FLOOR.o)
 .text.__SEGGER_RTL_float32_classify
                0x00000000       0x2c /Applications/microchip/xc32/v4.10/bin/bin/../../lib/gcc/pic32c/8.3.1/../../../../pic32c/lib/thumb/v8-m.base/nofp/libm-emfloat.a(lib_a-_FLOOR.o)
 .text.__SEGGER_RTL_float64_isnan
                0x00000000       0x10 /Applications/microchip/xc32/v4.10/bin/bin/../../lib/gcc/pic32c/8.3.1/../../../../pic32c/lib/thumb/v8-m.base/nofp/libm-emfloat.a(lib_a-_FLOOR.o)
 .text.__SEGGER_RTL_float64_isinf
                0x00000000       0x10 /Applications/microchip/xc32/v4.10/bin/bin/../../lib/gcc/pic32c/8.3.1/../../../../pic32c/lib/thumb/v8-m.base/nofp/libm-emfloat.a(lib_a-_FLOOR.o)
 .text.__SEGGER_RTL_float64_isfinite
                0x00000000       0x10 /Applications/microchip/xc32/v4.10/bin/bin/../../lib/gcc/pic32c/8.3.1/../../../../pic32c/lib/thumb/v8-m.base/nofp/libm-emfloat.a(lib_a-_FLOOR.o)
 .text.__SEGGER_RTL_float64_isnormal
                0x00000000       0x24 /Applications/microchip/xc32/v4.10/bin/bin/../../lib/gcc/pic32c/8.3.1/../../../../pic32c/lib/thumb/v8-m.base/nofp/libm-emfloat.a(lib_a-_FLOOR.o)
 .text.__SEGGER_RTL_float64_signbit
                0x00000000        0x4 /Applications/microchip/xc32/v4.10/bin/bin/../../lib/gcc/pic32c/8.3.1/../../../../pic32c/lib/thumb/v8-m.base/nofp/libm-emfloat.a(lib_a-_FLOOR.o)
 .text.__SEGGER_RTL_float64_classify
                0x00000000       0x48 /Applications/microchip/xc32/v4.10/bin/bin/../../lib/gcc/pic32c/8.3.1/../../../../pic32c/lib/thumb/v8-m.base/nofp/libm-emfloat.a(lib_a-_FLOOR.o)
 .text.floorl   0x00000000        0x8 /Applications/microchip/xc32/v4.10/bin/bin/../../lib/gcc/pic32c/8.3.1/../../../../pic32c/lib/thumb/v8-m.base/nofp/libm-emfloat.a(lib_a-_FLOOR.o)
 .xc_stack_usage.hdr
                0x00000000        0xe /Applications/microchip/xc32/v4.10/bin/bin/../../lib/gcc/pic32c/8.3.1/../../../../pic32c/lib/thumb/v8-m.base/nofp/libm-emfloat.a(lib_a-_FLOOR.o)
 .text          0x00000000        0x0 /Applications/microchip/xc32/v4.10/bin/bin/../../lib/gcc/pic32c/8.3.1/../../../../pic32c/lib/thumb/v8-m.base/nofp/libm-emfloat.a(lib_a-_FMOD.o)
 .data          0x00000000        0x0 /Applications/microchip/xc32/v4.10/bin/bin/../../lib/gcc/pic32c/8.3.1/../../../../pic32c/lib/thumb/v8-m.base/nofp/libm-emfloat.a(lib_a-_FMOD.o)
 .bss           0x00000000        0x0 /Applications/microchip/xc32/v4.10/bin/bin/../../lib/gcc/pic32c/8.3.1/../../../../pic32c/lib/thumb/v8-m.base/nofp/libm-emfloat.a(lib_a-_FMOD.o)
 .xc_stack_usage
                0x00000000      0x296 /Applications/microchip/xc32/v4.10/bin/bin/../../lib/gcc/pic32c/8.3.1/../../../../pic32c/lib/thumb/v8-m.base/nofp/libm-emfloat.a(lib_a-_FMOD.o)
 .text.__SEGGER_RTL_float64_cdiv
                0x00000000      0x2b4 /Applications/microchip/xc32/v4.10/bin/bin/../../lib/gcc/pic32c/8.3.1/../../../../pic32c/lib/thumb/v8-m.base/nofp/libm-emfloat.a(lib_a-_FMOD.o)
 .text.__SEGGER_RTL_float64_cmplx
                0x00000000       0x14 /Applications/microchip/xc32/v4.10/bin/bin/../../lib/gcc/pic32c/8.3.1/../../../../pic32c/lib/thumb/v8-m.base/nofp/libm-emfloat.a(lib_a-_FMOD.o)
 .text.__mulsc3
                0x00000000      0x24c /Applications/microchip/xc32/v4.10/bin/bin/../../lib/gcc/pic32c/8.3.1/../../../../pic32c/lib/thumb/v8-m.base/nofp/libm-emfloat.a(lib_a-_FMOD.o)
 .text.__divdc3
                0x00000000       0x40 /Applications/microchip/xc32/v4.10/bin/bin/../../lib/gcc/pic32c/8.3.1/../../../../pic32c/lib/thumb/v8-m.base/nofp/libm-emfloat.a(lib_a-_FMOD.o)
 .text.__SEGGER_RTL_float32_isnan
                0x00000000       0x10 /Applications/microchip/xc32/v4.10/bin/bin/../../lib/gcc/pic32c/8.3.1/../../../../pic32c/lib/thumb/v8-m.base/nofp/libm-emfloat.a(lib_a-_FMOD.o)
 .text.__SEGGER_RTL_float32_isinf
                0x00000000       0x10 /Applications/microchip/xc32/v4.10/bin/bin/../../lib/gcc/pic32c/8.3.1/../../../../pic32c/lib/thumb/v8-m.base/nofp/libm-emfloat.a(lib_a-_FMOD.o)
 .text.__SEGGER_RTL_float32_isfinite
                0x00000000       0x10 /Applications/microchip/xc32/v4.10/bin/bin/../../lib/gcc/pic32c/8.3.1/../../../../pic32c/lib/thumb/v8-m.base/nofp/libm-emfloat.a(lib_a-_FMOD.o)
 .text.__SEGGER_RTL_float32_isnormal
                0x00000000       0x18 /Applications/microchip/xc32/v4.10/bin/bin/../../lib/gcc/pic32c/8.3.1/../../../../pic32c/lib/thumb/v8-m.base/nofp/libm-emfloat.a(lib_a-_FMOD.o)
 .text.__SEGGER_RTL_float32_signbit
                0x00000000        0x4 /Applications/microchip/xc32/v4.10/bin/bin/../../lib/gcc/pic32c/8.3.1/../../../../pic32c/lib/thumb/v8-m.base/nofp/libm-emfloat.a(lib_a-_FMOD.o)
 .text.__SEGGER_RTL_float32_classify
                0x00000000       0x2c /Applications/microchip/xc32/v4.10/bin/bin/../../lib/gcc/pic32c/8.3.1/../../../../pic32c/lib/thumb/v8-m.base/nofp/libm-emfloat.a(lib_a-_FMOD.o)
 .text.__SEGGER_RTL_float64_isnan
                0x00000000       0x10 /Applications/microchip/xc32/v4.10/bin/bin/../../lib/gcc/pic32c/8.3.1/../../../../pic32c/lib/thumb/v8-m.base/nofp/libm-emfloat.a(lib_a-_FMOD.o)
 .text.__SEGGER_RTL_float64_isinf
                0x00000000       0x10 /Applications/microchip/xc32/v4.10/bin/bin/../../lib/gcc/pic32c/8.3.1/../../../../pic32c/lib/thumb/v8-m.base/nofp/libm-emfloat.a(lib_a-_FMOD.o)
 .text.__SEGGER_RTL_float64_isfinite
                0x00000000       0x10 /Applications/microchip/xc32/v4.10/bin/bin/../../lib/gcc/pic32c/8.3.1/../../../../pic32c/lib/thumb/v8-m.base/nofp/libm-emfloat.a(lib_a-_FMOD.o)
 .text.__SEGGER_RTL_float64_isnormal
                0x00000000       0x24 /Applications/microchip/xc32/v4.10/bin/bin/../../lib/gcc/pic32c/8.3.1/../../../../pic32c/lib/thumb/v8-m.base/nofp/libm-emfloat.a(lib_a-_FMOD.o)
 .text.__SEGGER_RTL_float64_signbit
                0x00000000        0x4 /Applications/microchip/xc32/v4.10/bin/bin/../../lib/gcc/pic32c/8.3.1/../../../../pic32c/lib/thumb/v8-m.base/nofp/libm-emfloat.a(lib_a-_FMOD.o)
 .text.__SEGGER_RTL_float64_classify
                0x00000000       0x48 /Applications/microchip/xc32/v4.10/bin/bin/../../lib/gcc/pic32c/8.3.1/../../../../pic32c/lib/thumb/v8-m.base/nofp/libm-emfloat.a(lib_a-_FMOD.o)
 .xc_stack_usage.hdr
                0x00000000        0xe /Applications/microchip/xc32/v4.10/bin/bin/../../lib/gcc/pic32c/8.3.1/../../../../pic32c/lib/thumb/v8-m.base/nofp/libm-emfloat.a(lib_a-_FMOD.o)
 .text          0x00000000        0x0 /Applications/microchip/xc32/v4.10/bin/bin/../../lib/gcc/pic32c/8.3.1/../../../../pic32c/lib/thumb/v8-m.base/nofp/libm-emfloat.a(lib_a-_FABS.o)
 .data          0x00000000        0x0 /Applications/microchip/xc32/v4.10/bin/bin/../../lib/gcc/pic32c/8.3.1/../../../../pic32c/lib/thumb/v8-m.base/nofp/libm-emfloat.a(lib_a-_FABS.o)
 .bss           0x00000000        0x0 /Applications/microchip/xc32/v4.10/bin/bin/../../lib/gcc/pic32c/8.3.1/../../../../pic32c/lib/thumb/v8-m.base/nofp/libm-emfloat.a(lib_a-_FABS.o)
 .xc_stack_usage
                0x00000000      0x296 /Applications/microchip/xc32/v4.10/bin/bin/../../lib/gcc/pic32c/8.3.1/../../../../pic32c/lib/thumb/v8-m.base/nofp/libm-emfloat.a(lib_a-_FABS.o)
 .text.__SEGGER_RTL_float64_cdiv
                0x00000000      0x2b4 /Applications/microchip/xc32/v4.10/bin/bin/../../lib/gcc/pic32c/8.3.1/../../../../pic32c/lib/thumb/v8-m.base/nofp/libm-emfloat.a(lib_a-_FABS.o)
 .text.__SEGGER_RTL_float64_cmplx
                0x00000000       0x14 /Applications/microchip/xc32/v4.10/bin/bin/../../lib/gcc/pic32c/8.3.1/../../../../pic32c/lib/thumb/v8-m.base/nofp/libm-emfloat.a(lib_a-_FABS.o)
 .text.__mulsc3
                0x00000000      0x24c /Applications/microchip/xc32/v4.10/bin/bin/../../lib/gcc/pic32c/8.3.1/../../../../pic32c/lib/thumb/v8-m.base/nofp/libm-emfloat.a(lib_a-_FABS.o)
 .text.__divdc3
                0x00000000       0x40 /Applications/microchip/xc32/v4.10/bin/bin/../../lib/gcc/pic32c/8.3.1/../../../../pic32c/lib/thumb/v8-m.base/nofp/libm-emfloat.a(lib_a-_FABS.o)
 .text.__SEGGER_RTL_float32_isnan
                0x00000000       0x10 /Applications/microchip/xc32/v4.10/bin/bin/../../lib/gcc/pic32c/8.3.1/../../../../pic32c/lib/thumb/v8-m.base/nofp/libm-emfloat.a(lib_a-_FABS.o)
 .text.__SEGGER_RTL_float32_isinf
                0x00000000       0x10 /Applications/microchip/xc32/v4.10/bin/bin/../../lib/gcc/pic32c/8.3.1/../../../../pic32c/lib/thumb/v8-m.base/nofp/libm-emfloat.a(lib_a-_FABS.o)
 .text.__SEGGER_RTL_float32_isfinite
                0x00000000       0x10 /Applications/microchip/xc32/v4.10/bin/bin/../../lib/gcc/pic32c/8.3.1/../../../../pic32c/lib/thumb/v8-m.base/nofp/libm-emfloat.a(lib_a-_FABS.o)
 .text.__SEGGER_RTL_float32_isnormal
                0x00000000       0x18 /Applications/microchip/xc32/v4.10/bin/bin/../../lib/gcc/pic32c/8.3.1/../../../../pic32c/lib/thumb/v8-m.base/nofp/libm-emfloat.a(lib_a-_FABS.o)
 .text.__SEGGER_RTL_float32_signbit
                0x00000000        0x4 /Applications/microchip/xc32/v4.10/bin/bin/../../lib/gcc/pic32c/8.3.1/../../../../pic32c/lib/thumb/v8-m.base/nofp/libm-emfloat.a(lib_a-_FABS.o)
 .text.__SEGGER_RTL_float32_classify
                0x00000000       0x2c /Applications/microchip/xc32/v4.10/bin/bin/../../lib/gcc/pic32c/8.3.1/../../../../pic32c/lib/thumb/v8-m.base/nofp/libm-emfloat.a(lib_a-_FABS.o)
 .text.__SEGGER_RTL_float64_isnan
                0x00000000       0x10 /Applications/microchip/xc32/v4.10/bin/bin/../../lib/gcc/pic32c/8.3.1/../../../../pic32c/lib/thumb/v8-m.base/nofp/libm-emfloat.a(lib_a-_FABS.o)
 .text.__SEGGER_RTL_float64_isinf
                0x00000000       0x10 /Applications/microchip/xc32/v4.10/bin/bin/../../lib/gcc/pic32c/8.3.1/../../../../pic32c/lib/thumb/v8-m.base/nofp/libm-emfloat.a(lib_a-_FABS.o)
 .text.__SEGGER_RTL_float64_isfinite
                0x00000000       0x10 /Applications/microchip/xc32/v4.10/bin/bin/../../lib/gcc/pic32c/8.3.1/../../../../pic32c/lib/thumb/v8-m.base/nofp/libm-emfloat.a(lib_a-_FABS.o)
 .text.__SEGGER_RTL_float64_isnormal
                0x00000000       0x24 /Applications/microchip/xc32/v4.10/bin/bin/../../lib/gcc/pic32c/8.3.1/../../../../pic32c/lib/thumb/v8-m.base/nofp/libm-emfloat.a(lib_a-_FABS.o)
 .text.__SEGGER_RTL_float64_signbit
                0x00000000        0x4 /Applications/microchip/xc32/v4.10/bin/bin/../../lib/gcc/pic32c/8.3.1/../../../../pic32c/lib/thumb/v8-m.base/nofp/libm-emfloat.a(lib_a-_FABS.o)
 .text.__SEGGER_RTL_float64_classify
                0x00000000       0x48 /Applications/microchip/xc32/v4.10/bin/bin/../../lib/gcc/pic32c/8.3.1/../../../../pic32c/lib/thumb/v8-m.base/nofp/libm-emfloat.a(lib_a-_FABS.o)
 .text.fabs     0x00000000        0x8 /Applications/microchip/xc32/v4.10/bin/bin/../../lib/gcc/pic32c/8.3.1/../../../../pic32c/lib/thumb/v8-m.base/nofp/libm-emfloat.a(lib_a-_FABS.o)
 .xc_stack_usage.hdr
                0x00000000        0xe /Applications/microchip/xc32/v4.10/bin/bin/../../lib/gcc/pic32c/8.3.1/../../../../pic32c/lib/thumb/v8-m.base/nofp/libm-emfloat.a(lib_a-_FABS.o)
 .text          0x00000000        0x0 /Applications/microchip/xc32/v4.10/bin/bin/../../lib/gcc/pic32c/8.3.1/../../../../pic32c/lib/thumb/v8-m.base/nofp/libm-emfloat.a(lib_a-_FMA.o)
 .data          0x00000000        0x0 /Applications/microchip/xc32/v4.10/bin/bin/../../lib/gcc/pic32c/8.3.1/../../../../pic32c/lib/thumb/v8-m.base/nofp/libm-emfloat.a(lib_a-_FMA.o)
 .bss           0x00000000        0x0 /Applications/microchip/xc32/v4.10/bin/bin/../../lib/gcc/pic32c/8.3.1/../../../../pic32c/lib/thumb/v8-m.base/nofp/libm-emfloat.a(lib_a-_FMA.o)
 .xc_stack_usage
                0x00000000      0x294 /Applications/microchip/xc32/v4.10/bin/bin/../../lib/gcc/pic32c/8.3.1/../../../../pic32c/lib/thumb/v8-m.base/nofp/libm-emfloat.a(lib_a-_FMA.o)
 .text.__SEGGER_RTL_float64_cdiv
                0x00000000      0x2b4 /Applications/microchip/xc32/v4.10/bin/bin/../../lib/gcc/pic32c/8.3.1/../../../../pic32c/lib/thumb/v8-m.base/nofp/libm-emfloat.a(lib_a-_FMA.o)
 .text.__SEGGER_RTL_float64_cmplx
                0x00000000       0x14 /Applications/microchip/xc32/v4.10/bin/bin/../../lib/gcc/pic32c/8.3.1/../../../../pic32c/lib/thumb/v8-m.base/nofp/libm-emfloat.a(lib_a-_FMA.o)
 .text.__mulsc3
                0x00000000      0x24c /Applications/microchip/xc32/v4.10/bin/bin/../../lib/gcc/pic32c/8.3.1/../../../../pic32c/lib/thumb/v8-m.base/nofp/libm-emfloat.a(lib_a-_FMA.o)
 .text.__divdc3
                0x00000000       0x40 /Applications/microchip/xc32/v4.10/bin/bin/../../lib/gcc/pic32c/8.3.1/../../../../pic32c/lib/thumb/v8-m.base/nofp/libm-emfloat.a(lib_a-_FMA.o)
 .text.__SEGGER_RTL_float32_isnan
                0x00000000       0x10 /Applications/microchip/xc32/v4.10/bin/bin/../../lib/gcc/pic32c/8.3.1/../../../../pic32c/lib/thumb/v8-m.base/nofp/libm-emfloat.a(lib_a-_FMA.o)
 .text.__SEGGER_RTL_float32_isinf
                0x00000000       0x10 /Applications/microchip/xc32/v4.10/bin/bin/../../lib/gcc/pic32c/8.3.1/../../../../pic32c/lib/thumb/v8-m.base/nofp/libm-emfloat.a(lib_a-_FMA.o)
 .text.__SEGGER_RTL_float32_isfinite
                0x00000000       0x10 /Applications/microchip/xc32/v4.10/bin/bin/../../lib/gcc/pic32c/8.3.1/../../../../pic32c/lib/thumb/v8-m.base/nofp/libm-emfloat.a(lib_a-_FMA.o)
 .text.__SEGGER_RTL_float32_isnormal
                0x00000000       0x18 /Applications/microchip/xc32/v4.10/bin/bin/../../lib/gcc/pic32c/8.3.1/../../../../pic32c/lib/thumb/v8-m.base/nofp/libm-emfloat.a(lib_a-_FMA.o)
 .text.__SEGGER_RTL_float32_signbit
                0x00000000        0x4 /Applications/microchip/xc32/v4.10/bin/bin/../../lib/gcc/pic32c/8.3.1/../../../../pic32c/lib/thumb/v8-m.base/nofp/libm-emfloat.a(lib_a-_FMA.o)
 .text.__SEGGER_RTL_float32_classify
                0x00000000       0x2c /Applications/microchip/xc32/v4.10/bin/bin/../../lib/gcc/pic32c/8.3.1/../../../../pic32c/lib/thumb/v8-m.base/nofp/libm-emfloat.a(lib_a-_FMA.o)
 .text.__SEGGER_RTL_float64_isnan
                0x00000000       0x10 /Applications/microchip/xc32/v4.10/bin/bin/../../lib/gcc/pic32c/8.3.1/../../../../pic32c/lib/thumb/v8-m.base/nofp/libm-emfloat.a(lib_a-_FMA.o)
 .text.__SEGGER_RTL_float64_isinf
                0x00000000       0x10 /Applications/microchip/xc32/v4.10/bin/bin/../../lib/gcc/pic32c/8.3.1/../../../../pic32c/lib/thumb/v8-m.base/nofp/libm-emfloat.a(lib_a-_FMA.o)
 .text.__SEGGER_RTL_float64_isfinite
                0x00000000       0x10 /Applications/microchip/xc32/v4.10/bin/bin/../../lib/gcc/pic32c/8.3.1/../../../../pic32c/lib/thumb/v8-m.base/nofp/libm-emfloat.a(lib_a-_FMA.o)
 .text.__SEGGER_RTL_float64_isnormal
                0x00000000       0x24 /Applications/microchip/xc32/v4.10/bin/bin/../../lib/gcc/pic32c/8.3.1/../../../../pic32c/lib/thumb/v8-m.base/nofp/libm-emfloat.a(lib_a-_FMA.o)
 .text.__SEGGER_RTL_float64_signbit
                0x00000000        0x4 /Applications/microchip/xc32/v4.10/bin/bin/../../lib/gcc/pic32c/8.3.1/../../../../pic32c/lib/thumb/v8-m.base/nofp/libm-emfloat.a(lib_a-_FMA.o)
 .text.__SEGGER_RTL_float64_classify
                0x00000000       0x48 /Applications/microchip/xc32/v4.10/bin/bin/../../lib/gcc/pic32c/8.3.1/../../../../pic32c/lib/thumb/v8-m.base/nofp/libm-emfloat.a(lib_a-_FMA.o)
 .text.fmal     0x00000000       0x14 /Applications/microchip/xc32/v4.10/bin/bin/../../lib/gcc/pic32c/8.3.1/../../../../pic32c/lib/thumb/v8-m.base/nofp/libm-emfloat.a(lib_a-_FMA.o)
 .xc_stack_usage.hdr
                0x00000000        0xe /Applications/microchip/xc32/v4.10/bin/bin/../../lib/gcc/pic32c/8.3.1/../../../../pic32c/lib/thumb/v8-m.base/nofp/libm-emfloat.a(lib_a-_FMA.o)
 .text          0x00000000        0x0 /Applications/microchip/xc32/v4.10/bin/bin/../../lib/gcc/pic32c/8.3.1/../../../../pic32c/lib/thumb/v8-m.base/nofp/libm-emfloat.a(lib_a-_COPYSIGN.o)
 .data          0x00000000        0x0 /Applications/microchip/xc32/v4.10/bin/bin/../../lib/gcc/pic32c/8.3.1/../../../../pic32c/lib/thumb/v8-m.base/nofp/libm-emfloat.a(lib_a-_COPYSIGN.o)
 .bss           0x00000000        0x0 /Applications/microchip/xc32/v4.10/bin/bin/../../lib/gcc/pic32c/8.3.1/../../../../pic32c/lib/thumb/v8-m.base/nofp/libm-emfloat.a(lib_a-_COPYSIGN.o)
 .xc_stack_usage
                0x00000000      0x29e /Applications/microchip/xc32/v4.10/bin/bin/../../lib/gcc/pic32c/8.3.1/../../../../pic32c/lib/thumb/v8-m.base/nofp/libm-emfloat.a(lib_a-_COPYSIGN.o)
 .text.__SEGGER_RTL_float64_cdiv
                0x00000000      0x2b4 /Applications/microchip/xc32/v4.10/bin/bin/../../lib/gcc/pic32c/8.3.1/../../../../pic32c/lib/thumb/v8-m.base/nofp/libm-emfloat.a(lib_a-_COPYSIGN.o)
 .text.__SEGGER_RTL_float64_cmplx
                0x00000000       0x14 /Applications/microchip/xc32/v4.10/bin/bin/../../lib/gcc/pic32c/8.3.1/../../../../pic32c/lib/thumb/v8-m.base/nofp/libm-emfloat.a(lib_a-_COPYSIGN.o)
 .text.__mulsc3
                0x00000000      0x24c /Applications/microchip/xc32/v4.10/bin/bin/../../lib/gcc/pic32c/8.3.1/../../../../pic32c/lib/thumb/v8-m.base/nofp/libm-emfloat.a(lib_a-_COPYSIGN.o)
 .text.__divdc3
                0x00000000       0x40 /Applications/microchip/xc32/v4.10/bin/bin/../../lib/gcc/pic32c/8.3.1/../../../../pic32c/lib/thumb/v8-m.base/nofp/libm-emfloat.a(lib_a-_COPYSIGN.o)
 .text.__SEGGER_RTL_float32_isnan
                0x00000000       0x10 /Applications/microchip/xc32/v4.10/bin/bin/../../lib/gcc/pic32c/8.3.1/../../../../pic32c/lib/thumb/v8-m.base/nofp/libm-emfloat.a(lib_a-_COPYSIGN.o)
 .text.__SEGGER_RTL_float32_isinf
                0x00000000       0x10 /Applications/microchip/xc32/v4.10/bin/bin/../../lib/gcc/pic32c/8.3.1/../../../../pic32c/lib/thumb/v8-m.base/nofp/libm-emfloat.a(lib_a-_COPYSIGN.o)
 .text.__SEGGER_RTL_float32_isfinite
                0x00000000       0x10 /Applications/microchip/xc32/v4.10/bin/bin/../../lib/gcc/pic32c/8.3.1/../../../../pic32c/lib/thumb/v8-m.base/nofp/libm-emfloat.a(lib_a-_COPYSIGN.o)
 .text.__SEGGER_RTL_float32_isnormal
                0x00000000       0x18 /Applications/microchip/xc32/v4.10/bin/bin/../../lib/gcc/pic32c/8.3.1/../../../../pic32c/lib/thumb/v8-m.base/nofp/libm-emfloat.a(lib_a-_COPYSIGN.o)
 .text.__SEGGER_RTL_float32_signbit
                0x00000000        0x4 /Applications/microchip/xc32/v4.10/bin/bin/../../lib/gcc/pic32c/8.3.1/../../../../pic32c/lib/thumb/v8-m.base/nofp/libm-emfloat.a(lib_a-_COPYSIGN.o)
 .text.__SEGGER_RTL_float32_classify
                0x00000000       0x2c /Applications/microchip/xc32/v4.10/bin/bin/../../lib/gcc/pic32c/8.3.1/../../../../pic32c/lib/thumb/v8-m.base/nofp/libm-emfloat.a(lib_a-_COPYSIGN.o)
 .text.__SEGGER_RTL_float64_isnan
                0x00000000       0x10 /Applications/microchip/xc32/v4.10/bin/bin/../../lib/gcc/pic32c/8.3.1/../../../../pic32c/lib/thumb/v8-m.base/nofp/libm-emfloat.a(lib_a-_COPYSIGN.o)
 .text.__SEGGER_RTL_float64_isinf
                0x00000000       0x10 /Applications/microchip/xc32/v4.10/bin/bin/../../lib/gcc/pic32c/8.3.1/../../../../pic32c/lib/thumb/v8-m.base/nofp/libm-emfloat.a(lib_a-_COPYSIGN.o)
 .text.__SEGGER_RTL_float64_isfinite
                0x00000000       0x10 /Applications/microchip/xc32/v4.10/bin/bin/../../lib/gcc/pic32c/8.3.1/../../../../pic32c/lib/thumb/v8-m.base/nofp/libm-emfloat.a(lib_a-_COPYSIGN.o)
 .text.__SEGGER_RTL_float64_isnormal
                0x00000000       0x24 /Applications/microchip/xc32/v4.10/bin/bin/../../lib/gcc/pic32c/8.3.1/../../../../pic32c/lib/thumb/v8-m.base/nofp/libm-emfloat.a(lib_a-_COPYSIGN.o)
 .text.__SEGGER_RTL_float64_signbit
                0x00000000        0x4 /Applications/microchip/xc32/v4.10/bin/bin/../../lib/gcc/pic32c/8.3.1/../../../../pic32c/lib/thumb/v8-m.base/nofp/libm-emfloat.a(lib_a-_COPYSIGN.o)
 .text.__SEGGER_RTL_float64_classify
                0x00000000       0x48 /Applications/microchip/xc32/v4.10/bin/bin/../../lib/gcc/pic32c/8.3.1/../../../../pic32c/lib/thumb/v8-m.base/nofp/libm-emfloat.a(lib_a-_COPYSIGN.o)
 .text.copysign
                0x00000000       0x10 /Applications/microchip/xc32/v4.10/bin/bin/../../lib/gcc/pic32c/8.3.1/../../../../pic32c/lib/thumb/v8-m.base/nofp/libm-emfloat.a(lib_a-_COPYSIGN.o)
 .xc_stack_usage.hdr
                0x00000000        0xe /Applications/microchip/xc32/v4.10/bin/bin/../../lib/gcc/pic32c/8.3.1/../../../../pic32c/lib/thumb/v8-m.base/nofp/libm-emfloat.a(lib_a-_COPYSIGN.o)
 .data          0x00000000        0x0 /Applications/microchip/xc32/v4.10/bin/bin/../../lib/gcc/pic32c/8.3.1/thumb/v8-m.base/nofp/libgcc.a(_thumb1_case_uhi.o)
 .bss           0x00000000        0x0 /Applications/microchip/xc32/v4.10/bin/bin/../../lib/gcc/pic32c/8.3.1/thumb/v8-m.base/nofp/libgcc.a(_thumb1_case_uhi.o)
 .xc_stack_usage.hdr
                0x00000000        0xe /Applications/microchip/xc32/v4.10/bin/bin/../../lib/gcc/pic32c/8.3.1/thumb/v8-m.base/nofp/libgcc.a(_thumb1_case_uhi.o)
 .xc_stack_usage
                0x00000000       0x23 /Applications/microchip/xc32/v4.10/bin/bin/../../lib/gcc/pic32c/8.3.1/thumb/v8-m.base/nofp/libgcc.a(_thumb1_case_uhi.o)
 .data          0x00000000        0x0 /Applications/microchip/xc32/v4.10/bin/bin/../../lib/gcc/pic32c/8.3.1/thumb/v8-m.base/nofp/libgcc.a(_lshrdi3.o)
 .bss           0x00000000        0x0 /Applications/microchip/xc32/v4.10/bin/bin/../../lib/gcc/pic32c/8.3.1/thumb/v8-m.base/nofp/libgcc.a(_lshrdi3.o)
 .xc_stack_usage.hdr
                0x00000000        0xe /Applications/microchip/xc32/v4.10/bin/bin/../../lib/gcc/pic32c/8.3.1/thumb/v8-m.base/nofp/libgcc.a(_lshrdi3.o)
 .xc_stack_usage
                0x00000000       0x17 /Applications/microchip/xc32/v4.10/bin/bin/../../lib/gcc/pic32c/8.3.1/thumb/v8-m.base/nofp/libgcc.a(_lshrdi3.o)
 .data          0x00000000        0x0 /Applications/microchip/xc32/v4.10/bin/bin/../../lib/gcc/pic32c/8.3.1/thumb/v8-m.base/nofp/libgcc.a(_ashldi3.o)
 .bss           0x00000000        0x0 /Applications/microchip/xc32/v4.10/bin/bin/../../lib/gcc/pic32c/8.3.1/thumb/v8-m.base/nofp/libgcc.a(_ashldi3.o)
 .xc_stack_usage.hdr
                0x00000000        0xe /Applications/microchip/xc32/v4.10/bin/bin/../../lib/gcc/pic32c/8.3.1/thumb/v8-m.base/nofp/libgcc.a(_ashldi3.o)
 .xc_stack_usage
                0x00000000       0x17 /Applications/microchip/xc32/v4.10/bin/bin/../../lib/gcc/pic32c/8.3.1/thumb/v8-m.base/nofp/libgcc.a(_ashldi3.o)
 .data          0x00000000        0x0 /Applications/microchip/xc32/v4.10/bin/bin/../../lib/gcc/pic32c/8.3.1/thumb/v8-m.base/nofp/libgcc.a(_aeabi_ldivmod.o)
 .bss           0x00000000        0x0 /Applications/microchip/xc32/v4.10/bin/bin/../../lib/gcc/pic32c/8.3.1/thumb/v8-m.base/nofp/libgcc.a(_aeabi_ldivmod.o)
 .xc_stack_usage.hdr
                0x00000000        0xe /Applications/microchip/xc32/v4.10/bin/bin/../../lib/gcc/pic32c/8.3.1/thumb/v8-m.base/nofp/libgcc.a(_aeabi_ldivmod.o)
 .xc_stack_usage
                0x00000000       0x1d /Applications/microchip/xc32/v4.10/bin/bin/../../lib/gcc/pic32c/8.3.1/thumb/v8-m.base/nofp/libgcc.a(_aeabi_ldivmod.o)
 .data          0x00000000        0x0 /Applications/microchip/xc32/v4.10/bin/bin/../../lib/gcc/pic32c/8.3.1/thumb/v8-m.base/nofp/libgcc.a(_aeabi_uldivmod.o)
 .bss           0x00000000        0x0 /Applications/microchip/xc32/v4.10/bin/bin/../../lib/gcc/pic32c/8.3.1/thumb/v8-m.base/nofp/libgcc.a(_aeabi_uldivmod.o)
 .xc_stack_usage.hdr
                0x00000000        0xe /Applications/microchip/xc32/v4.10/bin/bin/../../lib/gcc/pic32c/8.3.1/thumb/v8-m.base/nofp/libgcc.a(_aeabi_uldivmod.o)
 .xc_stack_usage
                0x00000000       0x1e /Applications/microchip/xc32/v4.10/bin/bin/../../lib/gcc/pic32c/8.3.1/thumb/v8-m.base/nofp/libgcc.a(_aeabi_uldivmod.o)
 .data          0x00000000        0x0 /Applications/microchip/xc32/v4.10/bin/bin/../../lib/gcc/pic32c/8.3.1/thumb/v8-m.base/nofp/libgcc.a(_muldi3.o)
 .bss           0x00000000        0x0 /Applications/microchip/xc32/v4.10/bin/bin/../../lib/gcc/pic32c/8.3.1/thumb/v8-m.base/nofp/libgcc.a(_muldi3.o)
 .xc_stack_usage
                0x00000000       0x16 /Applications/microchip/xc32/v4.10/bin/bin/../../lib/gcc/pic32c/8.3.1/thumb/v8-m.base/nofp/libgcc.a(_muldi3.o)
 .xc_stack_usage.hdr
                0x00000000        0xe /Applications/microchip/xc32/v4.10/bin/bin/../../lib/gcc/pic32c/8.3.1/thumb/v8-m.base/nofp/libgcc.a(_muldi3.o)
 .data          0x00000000        0x0 /Applications/microchip/xc32/v4.10/bin/bin/../../lib/gcc/pic32c/8.3.1/thumb/v8-m.base/nofp/libgcc.a(_udivmoddi4.o)
 .bss           0x00000000        0x0 /Applications/microchip/xc32/v4.10/bin/bin/../../lib/gcc/pic32c/8.3.1/thumb/v8-m.base/nofp/libgcc.a(_udivmoddi4.o)
 .xc_stack_usage
                0x00000000       0x1a /Applications/microchip/xc32/v4.10/bin/bin/../../lib/gcc/pic32c/8.3.1/thumb/v8-m.base/nofp/libgcc.a(_udivmoddi4.o)
 .ARM.extab     0x00000000        0x0 /Applications/microchip/xc32/v4.10/bin/bin/../../lib/gcc/pic32c/8.3.1/thumb/v8-m.base/nofp/libgcc.a(_udivmoddi4.o)
 .xc_stack_usage.hdr
                0x00000000        0xe /Applications/microchip/xc32/v4.10/bin/bin/../../lib/gcc/pic32c/8.3.1/thumb/v8-m.base/nofp/libgcc.a(_udivmoddi4.o)
 .data          0x00000000        0x0 /Applications/microchip/xc32/v4.10/bin/bin/../../lib/gcc/pic32c/8.3.1/thumb/v8-m.base/nofp/libgcc.a(bpabi.o)
 .bss           0x00000000        0x0 /Applications/microchip/xc32/v4.10/bin/bin/../../lib/gcc/pic32c/8.3.1/thumb/v8-m.base/nofp/libgcc.a(bpabi.o)
 .xc_stack_usage
                0x00000000       0x22 /Applications/microchip/xc32/v4.10/bin/bin/../../lib/gcc/pic32c/8.3.1/thumb/v8-m.base/nofp/libgcc.a(bpabi.o)
 .xc_stack_usage.hdr
                0x00000000        0xe /Applications/microchip/xc32/v4.10/bin/bin/../../lib/gcc/pic32c/8.3.1/thumb/v8-m.base/nofp/libgcc.a(bpabi.o)
 .data          0x00000000        0x0 /Applications/microchip/xc32/v4.10/bin/bin/../../lib/gcc/pic32c/8.3.1/thumb/v8-m.base/nofp/libgcc.a(_dvmd_tls.o)
 .bss           0x00000000        0x0 /Applications/microchip/xc32/v4.10/bin/bin/../../lib/gcc/pic32c/8.3.1/thumb/v8-m.base/nofp/libgcc.a(_dvmd_tls.o)
 .xc_stack_usage.hdr
                0x00000000        0xe /Applications/microchip/xc32/v4.10/bin/bin/../../lib/gcc/pic32c/8.3.1/thumb/v8-m.base/nofp/libgcc.a(_dvmd_tls.o)
 .xc_stack_usage
                0x00000000       0x36 /Applications/microchip/xc32/v4.10/bin/bin/../../lib/gcc/pic32c/8.3.1/thumb/v8-m.base/nofp/libgcc.a(_dvmd_tls.o)
 .data          0x00000000        0x0 /Applications/microchip/xc32/v4.10/bin/bin/../../lib/gcc/pic32c/8.3.1/thumb/v8-m.base/nofp/libgcc.a(_clzsi2.o)
 .bss           0x00000000        0x0 /Applications/microchip/xc32/v4.10/bin/bin/../../lib/gcc/pic32c/8.3.1/thumb/v8-m.base/nofp/libgcc.a(_clzsi2.o)
 .xc_stack_usage.hdr
                0x00000000        0xe /Applications/microchip/xc32/v4.10/bin/bin/../../lib/gcc/pic32c/8.3.1/thumb/v8-m.base/nofp/libgcc.a(_clzsi2.o)
 .xc_stack_usage
                0x00000000       0x16 /Applications/microchip/xc32/v4.10/bin/bin/../../lib/gcc/pic32c/8.3.1/thumb/v8-m.base/nofp/libgcc.a(_clzsi2.o)
 .data          0x00000000        0x0 /Applications/microchip/xc32/v4.10/bin/bin/../../lib/gcc/pic32c/8.3.1/thumb/v8-m.base/nofp/libgcc.a(_divdi3.o)
 .bss           0x00000000        0x0 /Applications/microchip/xc32/v4.10/bin/bin/../../lib/gcc/pic32c/8.3.1/thumb/v8-m.base/nofp/libgcc.a(_divdi3.o)
 .xc_stack_usage
                0x00000000       0x16 /Applications/microchip/xc32/v4.10/bin/bin/../../lib/gcc/pic32c/8.3.1/thumb/v8-m.base/nofp/libgcc.a(_divdi3.o)
 .ARM.extab     0x00000000        0x0 /Applications/microchip/xc32/v4.10/bin/bin/../../lib/gcc/pic32c/8.3.1/thumb/v8-m.base/nofp/libgcc.a(_divdi3.o)
 .xc_stack_usage.hdr
                0x00000000        0xe /Applications/microchip/xc32/v4.10/bin/bin/../../lib/gcc/pic32c/8.3.1/thumb/v8-m.base/nofp/libgcc.a(_divdi3.o)
 .text          0x00000000        0x0 /Applications/microchip/xc32/v4.10/bin/bin/../../lib/gcc/pic32c/8.3.1/../../../../pic32c/lib/thumb/v8-m.base/nofp/libpic32c.a(close.o)
 .data          0x00000000        0x0 /Applications/microchip/xc32/v4.10/bin/bin/../../lib/gcc/pic32c/8.3.1/../../../../pic32c/lib/thumb/v8-m.base/nofp/libpic32c.a(close.o)
 .bss           0x00000000        0x0 /Applications/microchip/xc32/v4.10/bin/bin/../../lib/gcc/pic32c/8.3.1/../../../../pic32c/lib/thumb/v8-m.base/nofp/libpic32c.a(close.o)
 .xc_stack_usage
                0x00000000       0x13 /Applications/microchip/xc32/v4.10/bin/bin/../../lib/gcc/pic32c/8.3.1/../../../../pic32c/lib/thumb/v8-m.base/nofp/libpic32c.a(close.o)
 .gnu.warning.closestub
                0x00000000        0x0 /Applications/microchip/xc32/v4.10/bin/bin/../../lib/gcc/pic32c/8.3.1/../../../../pic32c/lib/thumb/v8-m.base/nofp/libpic32c.a(close.o)
 .xc_stack_usage.hdr
                0x00000000        0xe /Applications/microchip/xc32/v4.10/bin/bin/../../lib/gcc/pic32c/8.3.1/../../../../pic32c/lib/thumb/v8-m.base/nofp/libpic32c.a(close.o)
 .text          0x00000000        0x0 /Applications/microchip/xc32/v4.10/bin/bin/../../lib/gcc/pic32c/8.3.1/../../../../pic32c/lib/thumb/v8-m.base/nofp/libpic32c.a(lseek.o)
 .data          0x00000000        0x0 /Applications/microchip/xc32/v4.10/bin/bin/../../lib/gcc/pic32c/8.3.1/../../../../pic32c/lib/thumb/v8-m.base/nofp/libpic32c.a(lseek.o)
 .bss           0x00000000        0x0 /Applications/microchip/xc32/v4.10/bin/bin/../../lib/gcc/pic32c/8.3.1/../../../../pic32c/lib/thumb/v8-m.base/nofp/libpic32c.a(lseek.o)
 .xc_stack_usage
                0x00000000       0x13 /Applications/microchip/xc32/v4.10/bin/bin/../../lib/gcc/pic32c/8.3.1/../../../../pic32c/lib/thumb/v8-m.base/nofp/libpic32c.a(lseek.o)
 .xc_stack_usage.hdr
                0x00000000        0xe /Applications/microchip/xc32/v4.10/bin/bin/../../lib/gcc/pic32c/8.3.1/../../../../pic32c/lib/thumb/v8-m.base/nofp/libpic32c.a(lseek.o)
 .text          0x00000000        0x0 /Applications/microchip/xc32/v4.10/bin/bin/../../lib/gcc/pic32c/8.3.1/../../../../pic32c/lib/thumb/v8-m.base/nofp/libpic32c.a(sbrk.o)
 .data          0x00000000        0x0 /Applications/microchip/xc32/v4.10/bin/bin/../../lib/gcc/pic32c/8.3.1/../../../../pic32c/lib/thumb/v8-m.base/nofp/libpic32c.a(sbrk.o)
 .xc_stack_usage
                0x00000000       0x13 /Applications/microchip/xc32/v4.10/bin/bin/../../lib/gcc/pic32c/8.3.1/../../../../pic32c/lib/thumb/v8-m.base/nofp/libpic32c.a(sbrk.o)
 .xc_stack_usage.hdr
                0x00000000        0xe /Applications/microchip/xc32/v4.10/bin/bin/../../lib/gcc/pic32c/8.3.1/../../../../pic32c/lib/thumb/v8-m.base/nofp/libpic32c.a(sbrk.o)
 .text          0x00000000        0x0 /Applications/microchip/xc32/v4.10/bin/bin/../../lib/gcc/pic32c/8.3.1/thumb/v8-m.base/nofp/crtend.o
 .data          0x00000000        0x0 /Applications/microchip/xc32/v4.10/bin/bin/../../lib/gcc/pic32c/8.3.1/thumb/v8-m.base/nofp/crtend.o
 .bss           0x00000000        0x0 /Applications/microchip/xc32/v4.10/bin/bin/../../lib/gcc/pic32c/8.3.1/thumb/v8-m.base/nofp/crtend.o
 .eh_frame      0x00000000        0x4 /Applications/microchip/xc32/v4.10/bin/bin/../../lib/gcc/pic32c/8.3.1/thumb/v8-m.base/nofp/crtend.o
 .xc_stack_usage.hdr
                0x00000000        0xe /Applications/microchip/xc32/v4.10/bin/bin/../../lib/gcc/pic32c/8.3.1/thumb/v8-m.base/nofp/crtend.o
 .comment       0x00000000       0x2c /Applications/microchip/xc32/v4.10/bin/bin/../../lib/gcc/pic32c/8.3.1/thumb/v8-m.base/nofp/crtend.o
 .ARM.attributes
                0x00000000       0x30 /Applications/microchip/xc32/v4.10/bin/bin/../../lib/gcc/pic32c/8.3.1/thumb/v8-m.base/nofp/crtend.o
 .text          0x00000000        0x0 /Applications/microchip/xc32/v4.10/bin/bin/../../lib/gcc/pic32c/8.3.1/thumb/v8-m.base/nofp/crtn.o
 .data          0x00000000        0x0 /Applications/microchip/xc32/v4.10/bin/bin/../../lib/gcc/pic32c/8.3.1/thumb/v8-m.base/nofp/crtn.o
 .bss           0x00000000        0x0 /Applications/microchip/xc32/v4.10/bin/bin/../../lib/gcc/pic32c/8.3.1/thumb/v8-m.base/nofp/crtn.o
 .xc_stack_usage.hdr
                0x00000000        0xe /Applications/microchip/xc32/v4.10/bin/bin/../../lib/gcc/pic32c/8.3.1/thumb/v8-m.base/nofp/crtn.o

Memory Configuration

Name             Origin             Length             Attributes
rom              0x00040000         0x00040000         xrl
ram              0x20008000         0x00008000         xw !r
config_00804000  0x00804000         0x00000004
config_00804004  0x00804004         0x00000004
config_00804008  0x00804008         0x00000004
config_0080400C  0x0080400c         0x00000004
config_00804010  0x00804010         0x00000004
config_00804014  0x00804014         0x00000004
config_00804018  0x00804018         0x00000004
config_0080401C  0x0080401c         0x00000004
config_00804020  0x00804020         0x00000004
*default*        0x00000000         0xffffffff

Linker script and memory map

LOAD /Applications/microchip/xc32/v4.10/bin/bin/../../lib/gcc/pic32c/8.3.1/thumb/v8-m.base/nofp/crti.o
LOAD /Applications/microchip/xc32/v4.10/bin/bin/../../lib/gcc/pic32c/8.3.1/thumb/v8-m.base/nofp/crtbegin.o
LOAD build/default/debug/_ext/1360937237/azure_iot_pnp_pic32cmls60-curiosity.o
LOAD build/default/debug/_ext/1360937237/main.o
LOAD build/default/debug/_ext/1360937237/pic32cmls60-curiosity-buttons.o
LOAD build/default/debug/_ext/1360937237/pic32cmls60-curiosity-led.o
LOAD build/default/debug/_ext/1360937237/pic32cmls60-curiosity-commands.o
LOAD build/default/debug/_ext/1414040249/az_base64.o
LOAD build/default/debug/_ext/1414040249/az_context.o
LOAD build/default/debug/_ext/1414040249/az_http_pipeline.o
LOAD build/default/debug/_ext/1414040249/az_http_policy.o
LOAD build/default/debug/_ext/1414040249/az_http_policy_logging.o
LOAD build/default/debug/_ext/1414040249/az_http_policy_retry.o
LOAD build/default/debug/_ext/1414040249/az_http_request.o
LOAD build/default/debug/_ext/1414040249/az_http_response.o
LOAD build/default/debug/_ext/1414040249/az_json_reader.o
LOAD build/default/debug/_ext/1414040249/az_json_token.o
LOAD build/default/debug/_ext/1414040249/az_json_writer.o
LOAD build/default/debug/_ext/1414040249/az_log.o
LOAD build/default/debug/_ext/1414040249/az_precondition.o
LOAD build/default/debug/_ext/1414040249/az_span.o
LOAD build/default/debug/_ext/1292534426/az_iot_common.o
LOAD build/default/debug/_ext/1292534426/az_iot_hub_client.o
LOAD build/default/debug/_ext/1292534426/az_iot_hub_client_c2d.o
LOAD build/default/debug/_ext/1292534426/az_iot_hub_client_commands.o
LOAD build/default/debug/_ext/1292534426/az_iot_hub_client_methods.o
LOAD build/default/debug/_ext/1292534426/az_iot_hub_client_properties.o
LOAD build/default/debug/_ext/1292534426/az_iot_hub_client_sas.o
LOAD build/default/debug/_ext/1292534426/az_iot_hub_client_telemetry.o
LOAD build/default/debug/_ext/1292534426/az_iot_hub_client_twin.o
LOAD build/default/debug/_ext/1292534426/az_iot_provisioning_client.o
LOAD build/default/debug/_ext/1292534426/az_iot_provisioning_client_sas.o
LOAD build/default/debug/_ext/1434821282/bsp.o
LOAD build/default/debug/_ext/60163342/plib_adc.o
LOAD build/default/debug/_ext/60167341/plib_eic.o
LOAD build/default/debug/_ext/1865468468/plib_nvic.o
LOAD build/default/debug/_ext/1865521619/plib_port.o
LOAD build/default/debug/_ext/504274921/plib_sercom3_usart.o
LOAD build/default/debug/_ext/504274921/plib_sercom2_usart.o
LOAD build/default/debug/_ext/1827571544/plib_systick.o
LOAD build/default/debug/_ext/163028504/xc32_monitor.o
LOAD build/default/debug/_ext/1171490990/initialization.o
LOAD build/default/debug/_ext/1171490990/interrupts.o
LOAD build/default/debug/_ext/1171490990/exceptions.o
LOAD build/default/debug/_ext/1171490990/startup_xc32.o
LOAD build/default/debug/_ext/1171490990/libc_syscalls.o
                0x00000001                __MPLAB_BUILD = 0x1
                0x00080000                __rom_end = (ORIGIN (rom) + LENGTH (rom))
                0x20010000                __ram_end = (ORIGIN (ram) + LENGTH (ram))

.config_00804000
 *(.config_00804000)

.config_00804004
 *(.config_00804004)

.config_00804008
 *(.config_00804008)

.config_0080400C
 *(.config_0080400C)

.config_00804010
 *(.config_00804010)

.config_00804014
 *(.config_00804014)

.config_00804018
 *(.config_00804018)

.config_0080401C
 *(.config_0080401C)

.config_00804020
 *(.config_00804020)

.vectors        0x00040000      0x15c
                0x00040000                . = ALIGN (0x4)
                0x00040000                _sfixed = .
 *(.vectors .vectors.* .vectors_default .vectors_default.*)
 .vectors.exception_table
                0x00040000      0x15c build/default/debug/_ext/1171490990/interrupts.o
                0x00040000                exception_table
 *(.isr_vector)
 *(.reset*)
 *(.after_vectors)

.text           0x0004015c       0x20
                0x0004015c                . = ALIGN (0x4)
 *(.glue_7t)
 .glue_7t       0x0004015c        0x0 linker stubs
 *(.glue_7)
 .glue_7        0x0004015c        0x0 linker stubs
 *veneer.o(.text.*)
 *nonsecure_entry.o(.text.*)
 *(.gnu.linkonce.r.*)
 *(.ARM.extab* .gnu.linkonce.armextab.*)
                0x0004015c                . = ALIGN (0x4)
 *(.init)
 .init          0x0004015c        0x4 /Applications/microchip/xc32/v4.10/bin/bin/../../lib/gcc/pic32c/8.3.1/thumb/v8-m.base/nofp/crti.o
                0x0004015c                _init
 .init          0x00040160        0x8 /Applications/microchip/xc32/v4.10/bin/bin/../../lib/gcc/pic32c/8.3.1/thumb/v8-m.base/nofp/crtn.o
                0x00040168                . = ALIGN (0x4)
                0x00040168                __preinit_array_start = .
 *(.preinit_array)
                0x00040168                __preinit_array_end = .
                0x00040168                . = ALIGN (0x4)
                0x00040168                __init_array_start = .
 *(SORT_BY_NAME(.init_array.*))
 *(.init_array)
 .init_array    0x00040168        0x4 /Applications/microchip/xc32/v4.10/bin/bin/../../lib/gcc/pic32c/8.3.1/thumb/v8-m.base/nofp/crtbegin.o
                0x0004016c                __init_array_end = .
                0x0004016c                . = ALIGN (0x4)
 *crtbegin.o(.ctors)
 *(EXCLUDE_FILE(*crtend.o) .ctors)
 *(SORT_BY_NAME(.ctors.*))
 *crtend.o(.ctors)
                0x0004016c                . = ALIGN (0x4)
 *(.fini)
 .fini          0x0004016c        0x4 /Applications/microchip/xc32/v4.10/bin/bin/../../lib/gcc/pic32c/8.3.1/thumb/v8-m.base/nofp/crti.o
                0x0004016c                _fini
 .fini          0x00040170        0x8 /Applications/microchip/xc32/v4.10/bin/bin/../../lib/gcc/pic32c/8.3.1/thumb/v8-m.base/nofp/crtn.o
                0x00040178                . = ALIGN (0x4)
                0x00040178                __fini_array_start = .
 *(.fini_array)
 .fini_array    0x00040178        0x4 /Applications/microchip/xc32/v4.10/bin/bin/../../lib/gcc/pic32c/8.3.1/thumb/v8-m.base/nofp/crtbegin.o
 *(SORT_BY_NAME(.fini_array.*))
                0x0004017c                __fini_array_end = .
 *crtbegin.o(.dtors)
 *(EXCLUDE_FILE(*crtend.o) .dtors)
 *(SORT_BY_NAME(.dtors.*))
 *crtend.o(.dtors)
                0x0004017c                . = ALIGN (0x4)
                0x0004017c                _efixed = .
                [!provide]                PROVIDE (__exidx_start = .)

.ARM.exidx      0x0004017c       0x10
 *(.ARM.exidx* .gnu.linkonce.armexidx.*)
 .ARM.exidx     0x0004017c        0x8 /Applications/microchip/xc32/v4.10/bin/bin/../../lib/gcc/pic32c/8.3.1/thumb/v8-m.base/nofp/libgcc.a(_udivmoddi4.o)
 .ARM.exidx     0x00040184        0x8 /Applications/microchip/xc32/v4.10/bin/bin/../../lib/gcc/pic32c/8.3.1/thumb/v8-m.base/nofp/libgcc.a(_divdi3.o)
                [!provide]                PROVIDE (__exidx_end = .)
                0x0004018c                . = ALIGN (0x4)
                0x0004018c                _etext = .

.bss            0x20008000        0x0
                0x20008000                . = ALIGN (0x4)
                0x20008000                __bss_start__ = .
                0x20008000                _sbss = .
                0x20008000                _szero = .
 *(COMMON)
                0x20008000                . = ALIGN (0x4)
                0x20008000                __bss_end__ = .
                0x20008000                _ebss = .
                0x20008000                _ezero = .
                0x20008000                . = ALIGN (0x4)
                0x20008000                _end = .
                0x2000ffff                _ram_end_ = ((ORIGIN (ram) + LENGTH (ram)) - 0x1)
                0x00000001                __ICD2RAM = 0x1
                0x00000001                __MPLAB_DEBUG = 0x1
                0x00000001                __DEBUG = 0x1
                0x00000200                _min_heap_size = 0x200
LOAD ./ewf_iot_central_Secure_sg_veneer.lib
START GROUP
LOAD /Applications/microchip/xc32/v4.10/bin/bin/../../lib/gcc/pic32c/8.3.1/../../../../pic32c/lib/thumb/v8-m.base/nofp/libpic32c.a
LOAD /Applications/microchip/xc32/v4.10/bin/bin/../../lib/gcc/pic32c/8.3.1/../../../../pic32c/lib/thumb/v8-m.base/nofp/libm-emfloat.a
LOAD /Applications/microchip/xc32/v4.10/bin/bin/../../lib/gcc/pic32c/8.3.1/../../../../pic32c/lib/thumb/v8-m.base/nofp/libg-musl.a
LOAD /Applications/microchip/xc32/v4.10/bin/bin/../../lib/gcc/pic32c/8.3.1/../../../../pic32c/lib/thumb/v8-m.base/nofp/libc-musl.a
LOAD /Applications/microchip/xc32/v4.10/bin/bin/../../lib/gcc/pic32c/8.3.1/../../../../pic32c/lib/thumb/v8-m.base/nofp/libm-emfloat.a
LOAD /Applications/microchip/xc32/v4.10/bin/bin/../../lib/gcc/pic32c/8.3.1/thumb/v8-m.base/nofp/libgcc.a
END GROUP
LOAD /Applications/microchip/xc32/v4.10/bin/bin/../../lib/gcc/pic32c/8.3.1/thumb/v8-m.base/nofp/crtend.o
LOAD /Applications/microchip/xc32/v4.10/bin/bin/../../lib/gcc/pic32c/8.3.1/thumb/v8-m.base/nofp/crtn.o
OUTPUT(dist/default/debug/ewf_iot_central_NonSecure.X.debug.elf elf32-littlearm)
LOAD stack
LOAD data_init

.ARM.attributes
                0x00000000       0x2e
 .ARM.attributes
                0x00000000       0x22 /Applications/microchip/xc32/v4.10/bin/bin/../../lib/gcc/pic32c/8.3.1/thumb/v8-m.base/nofp/crti.o
 .ARM.attributes
                0x00000022       0x30 /Applications/microchip/xc32/v4.10/bin/bin/../../lib/gcc/pic32c/8.3.1/thumb/v8-m.base/nofp/crtbegin.o
 .ARM.attributes
                0x00000052       0x30 build/default/debug/_ext/1360937237/azure_iot_pnp_pic32cmls60-curiosity.o
 .ARM.attributes
                0x00000082       0x30 build/default/debug/_ext/1360937237/main.o
 .ARM.attributes
                0x000000b2       0x30 build/default/debug/_ext/1360937237/pic32cmls60-curiosity-buttons.o
 .ARM.attributes
                0x000000e2       0x30 build/default/debug/_ext/1360937237/pic32cmls60-curiosity-led.o
 .ARM.attributes
                0x00000112       0x30 build/default/debug/_ext/1360937237/pic32cmls60-curiosity-commands.o
 .ARM.attributes
                0x00000142       0x30 build/default/debug/_ext/1414040249/az_json_reader.o
 .ARM.attributes
                0x00000172       0x30 build/default/debug/_ext/1414040249/az_json_token.o
 .ARM.attributes
                0x000001a2       0x30 build/default/debug/_ext/1414040249/az_json_writer.o
 .ARM.attributes
                0x000001d2       0x30 build/default/debug/_ext/1414040249/az_log.o
 .ARM.attributes
                0x00000202       0x30 build/default/debug/_ext/1414040249/az_precondition.o
 .ARM.attributes
                0x00000232       0x30 build/default/debug/_ext/1414040249/az_span.o
 .ARM.attributes
                0x00000262       0x30 build/default/debug/_ext/1292534426/az_iot_common.o
 .ARM.attributes
                0x00000292       0x30 build/default/debug/_ext/1292534426/az_iot_hub_client.o
 .ARM.attributes
                0x000002c2       0x30 build/default/debug/_ext/1292534426/az_iot_hub_client_commands.o
 .ARM.attributes
                0x000002f2       0x30 build/default/debug/_ext/1292534426/az_iot_hub_client_methods.o
 .ARM.attributes
                0x00000322       0x30 build/default/debug/_ext/1292534426/az_iot_hub_client_properties.o
 .ARM.attributes
                0x00000352       0x30 build/default/debug/_ext/1292534426/az_iot_hub_client_telemetry.o
 .ARM.attributes
                0x00000382       0x30 build/default/debug/_ext/1292534426/az_iot_hub_client_twin.o
 .ARM.attributes
                0x000003b2       0x30 build/default/debug/_ext/1292534426/az_iot_provisioning_client.o
 .ARM.attributes
                0x000003e2       0x30 build/default/debug/_ext/1434821282/bsp.o
 .ARM.attributes
                0x00000412       0x30 build/default/debug/_ext/60163342/plib_adc.o
 .ARM.attributes
                0x00000442       0x30 build/default/debug/_ext/60167341/plib_eic.o
 .ARM.attributes
                0x00000472       0x30 build/default/debug/_ext/1865468468/plib_nvic.o
 .ARM.attributes
                0x000004a2       0x30 build/default/debug/_ext/504274921/plib_sercom3_usart.o
 .ARM.attributes
                0x000004d2       0x30 build/default/debug/_ext/504274921/plib_sercom2_usart.o
 .ARM.attributes
                0x00000502       0x30 build/default/debug/_ext/1827571544/plib_systick.o
 .ARM.attributes
                0x00000532       0x30 build/default/debug/_ext/163028504/xc32_monitor.o
 .ARM.attributes
                0x00000562       0x30 build/default/debug/_ext/1171490990/initialization.o
 .ARM.attributes
                0x00000592       0x30 build/default/debug/_ext/1171490990/interrupts.o
 .ARM.attributes
                0x000005c2       0x30 build/default/debug/_ext/1171490990/exceptions.o
 .ARM.attributes
                0x000005f2       0x30 build/default/debug/_ext/1171490990/startup_xc32.o
 .ARM.attributes
                0x00000622       0x30 build/default/debug/_ext/1171490990/libc_syscalls.o
 .ARM.attributes
                0x00000652       0x30 /Applications/microchip/xc32/v4.10/bin/bin/../../lib/gcc/pic32c/8.3.1/../../../../pic32c/lib/thumb/v8-m.base/nofp/libpic32c.a(data_init.o)
 .ARM.attributes
                0x00000682       0x30 /Applications/microchip/xc32/v4.10/bin/bin/../../lib/gcc/pic32c/8.3.1/../../../../pic32c/lib/thumb/v8-m.base/nofp/libm-emfloat.a(lib_a-_MODF.o)
 .ARM.attributes
                0x000006b2       0x20 /Applications/microchip/xc32/v4.10/bin/bin/../../lib/gcc/pic32c/8.3.1/../../../../pic32c/lib/thumb/v8-m.base/nofp/libm-emfloat.a(floatasmops_arm.o)
 .ARM.attributes
                0x000006d2       0x32 /Applications/microchip/xc32/v4.10/bin/bin/../../lib/gcc/pic32c/8.3.1/../../../../pic32c/lib/thumb/v8-m.base/nofp/libg-musl.a(isxdigit.o)
 .ARM.attributes
                0x00000704       0x32 /Applications/microchip/xc32/v4.10/bin/bin/../../lib/gcc/pic32c/8.3.1/../../../../pic32c/lib/thumb/v8-m.base/nofp/libg-musl.a(__libc_start_main.o)
 .ARM.attributes
                0x00000736       0x32 /Applications/microchip/xc32/v4.10/bin/bin/../../lib/gcc/pic32c/8.3.1/../../../../pic32c/lib/thumb/v8-m.base/nofp/libg-musl.a(exit.o)
 .ARM.attributes
                0x00000768       0x32 /Applications/microchip/xc32/v4.10/bin/bin/../../lib/gcc/pic32c/8.3.1/../../../../pic32c/lib/thumb/v8-m.base/nofp/libg-musl.a(libc.o)
 .ARM.attributes
                0x0000079a       0x32 /Applications/microchip/xc32/v4.10/bin/bin/../../lib/gcc/pic32c/8.3.1/../../../../pic32c/lib/thumb/v8-m.base/nofp/libg-musl.a(malloc.o)
 .ARM.attributes
                0x000007cc       0x32 /Applications/microchip/xc32/v4.10/bin/bin/../../lib/gcc/pic32c/8.3.1/../../../../pic32c/lib/thumb/v8-m.base/nofp/libg-musl.a(expand_heap.o)
 .ARM.attributes
                0x000007fe       0x32 /Applications/microchip/xc32/v4.10/bin/bin/../../lib/gcc/pic32c/8.3.1/../../../../pic32c/lib/thumb/v8-m.base/nofp/libg-musl.a(__fmt_d.o)
 .ARM.attributes
                0x00000830       0x32 /Applications/microchip/xc32/v4.10/bin/bin/../../lib/gcc/pic32c/8.3.1/../../../../pic32c/lib/thumb/v8-m.base/nofp/libg-musl.a(__fmt_fp.o)
 .ARM.attributes
                0x00000862       0x32 /Applications/microchip/xc32/v4.10/bin/bin/../../lib/gcc/pic32c/8.3.1/../../../../pic32c/lib/thumb/v8-m.base/nofp/libg-musl.a(__fmt_o.o)
 .ARM.attributes
                0x00000894       0x32 /Applications/microchip/xc32/v4.10/bin/bin/../../lib/gcc/pic32c/8.3.1/../../../../pic32c/lib/thumb/v8-m.base/nofp/libg-musl.a(__fmt_s.o)
 .ARM.attributes
                0x000008c6       0x32 /Applications/microchip/xc32/v4.10/bin/bin/../../lib/gcc/pic32c/8.3.1/../../../../pic32c/lib/thumb/v8-m.base/nofp/libg-musl.a(__fmt_u.o)
 .ARM.attributes
                0x000008f8       0x32 /Applications/microchip/xc32/v4.10/bin/bin/../../lib/gcc/pic32c/8.3.1/../../../../pic32c/lib/thumb/v8-m.base/nofp/libg-musl.a(__fmt_x.o)
 .ARM.attributes
                0x0000092a       0x32 /Applications/microchip/xc32/v4.10/bin/bin/../../lib/gcc/pic32c/8.3.1/../../../../pic32c/lib/thumb/v8-m.base/nofp/libg-musl.a(__printf_core.o)
 .ARM.attributes
                0x0000095c       0x32 /Applications/microchip/xc32/v4.10/bin/bin/../../lib/gcc/pic32c/8.3.1/../../../../pic32c/lib/thumb/v8-m.base/nofp/libg-musl.a(fflush.o)
 .ARM.attributes
                0x0000098e       0x32 /Applications/microchip/xc32/v4.10/bin/bin/../../lib/gcc/pic32c/8.3.1/../../../../pic32c/lib/thumb/v8-m.base/nofp/libg-musl.a(fwrite.o)
 .ARM.attributes
                0x000009c0       0x32 /Applications/microchip/xc32/v4.10/bin/bin/../../lib/gcc/pic32c/8.3.1/../../../../pic32c/lib/thumb/v8-m.base/nofp/libg-musl.a(putc.o)
 .ARM.attributes
                0x000009f2       0x32 /Applications/microchip/xc32/v4.10/bin/bin/../../lib/gcc/pic32c/8.3.1/../../../../pic32c/lib/thumb/v8-m.base/nofp/libg-musl.a(sscanf.o)
 .ARM.attributes
                0x00000a24       0x32 /Applications/microchip/xc32/v4.10/bin/bin/../../lib/gcc/pic32c/8.3.1/../../../../pic32c/lib/thumb/v8-m.base/nofp/libg-musl.a(stdin.o)
 .ARM.attributes
                0x00000a56       0x32 /Applications/microchip/xc32/v4.10/bin/bin/../../lib/gcc/pic32c/8.3.1/../../../../pic32c/lib/thumb/v8-m.base/nofp/libg-musl.a(stdout.o)
 .ARM.attributes
                0x00000a88       0x32 /Applications/microchip/xc32/v4.10/bin/bin/../../lib/gcc/pic32c/8.3.1/../../../../pic32c/lib/thumb/v8-m.base/nofp/libg-musl.a(vsscanf.o)
 .ARM.attributes
                0x00000aba       0x32 /Applications/microchip/xc32/v4.10/bin/bin/../../lib/gcc/pic32c/8.3.1/../../../../pic32c/lib/thumb/v8-m.base/nofp/libg-musl.a(puts.o)
 .ARM.attributes
                0x00000aec       0x32 /Applications/microchip/xc32/v4.10/bin/bin/../../lib/gcc/pic32c/8.3.1/../../../../pic32c/lib/thumb/v8-m.base/nofp/libg-musl.a(setbuf.o)
 .ARM.attributes
                0x00000b1e       0x32 /Applications/microchip/xc32/v4.10/bin/bin/../../lib/gcc/pic32c/8.3.1/../../../../pic32c/lib/thumb/v8-m.base/nofp/libg-musl.a(atoi.o)
 .ARM.attributes
                0x00000b50       0x32 /Applications/microchip/xc32/v4.10/bin/bin/../../lib/gcc/pic32c/8.3.1/../../../../pic32c/lib/thumb/v8-m.base/nofp/libg-musl.a(div.o)
 .ARM.attributes
                0x00000b82       0x32 /Applications/microchip/xc32/v4.10/bin/bin/../../lib/gcc/pic32c/8.3.1/../../../../pic32c/lib/thumb/v8-m.base/nofp/libg-musl.a(memcmp.o)
 .ARM.attributes
                0x00000bb4       0x32 /Applications/microchip/xc32/v4.10/bin/bin/../../lib/gcc/pic32c/8.3.1/../../../../pic32c/lib/thumb/v8-m.base/nofp/libg-musl.a(memcpy.o)
 .ARM.attributes
                0x00000be6       0x32 /Applications/microchip/xc32/v4.10/bin/bin/../../lib/gcc/pic32c/8.3.1/../../../../pic32c/lib/thumb/v8-m.base/nofp/libg-musl.a(memmove.o)
 .ARM.attributes
                0x00000c18       0x32 /Applications/microchip/xc32/v4.10/bin/bin/../../lib/gcc/pic32c/8.3.1/../../../../pic32c/lib/thumb/v8-m.base/nofp/libg-musl.a(memset.o)
 .ARM.attributes
                0x00000c4a       0x32 /Applications/microchip/xc32/v4.10/bin/bin/../../lib/gcc/pic32c/8.3.1/../../../../pic32c/lib/thumb/v8-m.base/nofp/libg-musl.a(strlen.o)
 .ARM.attributes
                0x00000c7c       0x32 /Applications/microchip/xc32/v4.10/bin/bin/../../lib/gcc/pic32c/8.3.1/../../../../pic32c/lib/thumb/v8-m.base/nofp/libg-musl.a(strcpy.o)
 .ARM.attributes
                0x00000cae       0x32 /Applications/microchip/xc32/v4.10/bin/bin/../../lib/gcc/pic32c/8.3.1/../../../../pic32c/lib/thumb/v8-m.base/nofp/libg-musl.a(strlcat.o)
 .ARM.attributes
                0x00000ce0       0x32 /Applications/microchip/xc32/v4.10/bin/bin/../../lib/gcc/pic32c/8.3.1/../../../../pic32c/lib/thumb/v8-m.base/nofp/libg-musl.a(strlcpy.o)
 .ARM.attributes
                0x00000d12       0x32 /Applications/microchip/xc32/v4.10/bin/bin/../../lib/gcc/pic32c/8.3.1/../../../../pic32c/lib/thumb/v8-m.base/nofp/libg-musl.a(strnlen.o)
 .ARM.attributes
                0x00000d44       0x32 /Applications/microchip/xc32/v4.10/bin/bin/../../lib/gcc/pic32c/8.3.1/../../../../pic32c/lib/thumb/v8-m.base/nofp/libg-musl.a(localtime.o)
 .ARM.attributes
                0x00000d76       0x32 /Applications/microchip/xc32/v4.10/bin/bin/../../lib/gcc/pic32c/8.3.1/../../../../pic32c/lib/thumb/v8-m.base/nofp/libg-musl.a(strftime.o)
 .ARM.attributes
                0x00000da8       0x32 /Applications/microchip/xc32/v4.10/bin/bin/../../lib/gcc/pic32c/8.3.1/../../../../pic32c/lib/thumb/v8-m.base/nofp/libg-musl.a(time.o)
 .ARM.attributes
                0x00000dda       0x32 /Applications/microchip/xc32/v4.10/bin/bin/../../lib/gcc/pic32c/8.3.1/../../../../pic32c/lib/thumb/v8-m.base/nofp/libg-musl.a(tolower.o)
 .ARM.attributes
                0x00000e0c       0x32 /Applications/microchip/xc32/v4.10/bin/bin/../../lib/gcc/pic32c/8.3.1/../../../../pic32c/lib/thumb/v8-m.base/nofp/libg-musl.a(toupper.o)
 .ARM.attributes
                0x00000e3e       0x32 /Applications/microchip/xc32/v4.10/bin/bin/../../lib/gcc/pic32c/8.3.1/../../../../pic32c/lib/thumb/v8-m.base/nofp/libg-musl.a(__environ.o)
 .ARM.attributes
                0x00000e70       0x32 /Applications/microchip/xc32/v4.10/bin/bin/../../lib/gcc/pic32c/8.3.1/../../../../pic32c/lib/thumb/v8-m.base/nofp/libg-musl.a(__errno_location.o)
 .ARM.attributes
                0x00000ea2       0x32 /Applications/microchip/xc32/v4.10/bin/bin/../../lib/gcc/pic32c/8.3.1/../../../../pic32c/lib/thumb/v8-m.base/nofp/libg-musl.a(_Exit.o)
 .ARM.attributes
                0x00000ed4       0x32 /Applications/microchip/xc32/v4.10/bin/bin/../../lib/gcc/pic32c/8.3.1/../../../../pic32c/lib/thumb/v8-m.base/nofp/libg-musl.a(langinfo.o)
 .ARM.attributes
                0x00000f06       0x32 /Applications/microchip/xc32/v4.10/bin/bin/../../lib/gcc/pic32c/8.3.1/../../../../pic32c/lib/thumb/v8-m.base/nofp/libg-musl.a(c_locale.o)
 .ARM.attributes
                0x00000f38       0x32 /Applications/microchip/xc32/v4.10/bin/bin/../../lib/gcc/pic32c/8.3.1/../../../../pic32c/lib/thumb/v8-m.base/nofp/libg-musl.a(__string_read.o)
 .ARM.attributes
                0x00000f6a       0x32 /Applications/microchip/xc32/v4.10/bin/bin/../../lib/gcc/pic32c/8.3.1/../../../../pic32c/lib/thumb/v8-m.base/nofp/libg-musl.a(fputs.o)
 .ARM.attributes
                0x00000f9c       0x32 /Applications/microchip/xc32/v4.10/bin/bin/../../lib/gcc/pic32c/8.3.1/../../../../pic32c/lib/thumb/v8-m.base/nofp/libg-musl.a(__out.o)
 .ARM.attributes
                0x00000fce       0x32 /Applications/microchip/xc32/v4.10/bin/bin/../../lib/gcc/pic32c/8.3.1/../../../../pic32c/lib/thumb/v8-m.base/nofp/libg-musl.a(__pop_float.o)
 .ARM.attributes
                0x00001000       0x32 /Applications/microchip/xc32/v4.10/bin/bin/../../lib/gcc/pic32c/8.3.1/../../../../pic32c/lib/thumb/v8-m.base/nofp/libg-musl.a(__pop_int.o)
 .ARM.attributes
                0x00001032       0x32 /Applications/microchip/xc32/v4.10/bin/bin/../../lib/gcc/pic32c/8.3.1/../../../../pic32c/lib/thumb/v8-m.base/nofp/libg-musl.a(__pop_ptr.o)
 .ARM.attributes
                0x00001064       0x32 /Applications/microchip/xc32/v4.10/bin/bin/../../lib/gcc/pic32c/8.3.1/../../../../pic32c/lib/thumb/v8-m.base/nofp/libg-musl.a(__stdio_read.o)
 .ARM.attributes
                0x00001096       0x32 /Applications/microchip/xc32/v4.10/bin/bin/../../lib/gcc/pic32c/8.3.1/../../../../pic32c/lib/thumb/v8-m.base/nofp/libg-musl.a(__towrite_rw.o)
 .ARM.attributes
                0x000010c8       0x32 /Applications/microchip/xc32/v4.10/bin/bin/../../lib/gcc/pic32c/8.3.1/../../../../pic32c/lib/thumb/v8-m.base/nofp/libg-musl.a(setvbuf.o)
 .ARM.attributes
                0x000010fa       0x32 /Applications/microchip/xc32/v4.10/bin/bin/../../lib/gcc/pic32c/8.3.1/../../../../pic32c/lib/thumb/v8-m.base/nofp/libg-musl.a(vfscanf.o)
 .ARM.attributes
                0x0000112c       0x32 /Applications/microchip/xc32/v4.10/bin/bin/../../lib/gcc/pic32c/8.3.1/../../../../pic32c/lib/thumb/v8-m.base/nofp/libg-musl.a(snprintf.o)
 .ARM.attributes
                0x0000115e       0x32 /Applications/microchip/xc32/v4.10/bin/bin/../../lib/gcc/pic32c/8.3.1/../../../../pic32c/lib/thumb/v8-m.base/nofp/libg-musl.a(abs.o)
 .ARM.attributes
                0x00001190       0x32 /Applications/microchip/xc32/v4.10/bin/bin/../../lib/gcc/pic32c/8.3.1/../../../../pic32c/lib/thumb/v8-m.base/nofp/libg-musl.a(strtol.o)
 .ARM.attributes
                0x000011c2       0x32 /Applications/microchip/xc32/v4.10/bin/bin/../../lib/gcc/pic32c/8.3.1/../../../../pic32c/lib/thumb/v8-m.base/nofp/libg-musl.a(memchr.o)
 .ARM.attributes
                0x000011f4       0x32 /Applications/microchip/xc32/v4.10/bin/bin/../../lib/gcc/pic32c/8.3.1/../../../../pic32c/lib/thumb/v8-m.base/nofp/libg-musl.a(stpcpy.o)
 .ARM.attributes
                0x00001226       0x32 /Applications/microchip/xc32/v4.10/bin/bin/../../lib/gcc/pic32c/8.3.1/../../../../pic32c/lib/thumb/v8-m.base/nofp/libg-musl.a(__tm_to_secs.o)
 .ARM.attributes
                0x00001258       0x32 /Applications/microchip/xc32/v4.10/bin/bin/../../lib/gcc/pic32c/8.3.1/../../../../pic32c/lib/thumb/v8-m.base/nofp/libg-musl.a(__year_to_secs.o)
 .ARM.attributes
                0x0000128a       0x32 /Applications/microchip/xc32/v4.10/bin/bin/../../lib/gcc/pic32c/8.3.1/../../../../pic32c/lib/thumb/v8-m.base/nofp/libg-musl.a(__tz.o)
 .ARM.attributes
                0x000012bc       0x32 /Applications/microchip/xc32/v4.10/bin/bin/../../lib/gcc/pic32c/8.3.1/../../../../pic32c/lib/thumb/v8-m.base/nofp/libg-musl.a(clock_gettime.o)
 .ARM.attributes
                0x000012ee       0x32 /Applications/microchip/xc32/v4.10/bin/bin/../../lib/gcc/pic32c/8.3.1/../../../../pic32c/lib/thumb/v8-m.base/nofp/libg-musl.a(gettimeofday.o)
 .ARM.attributes
                0x00001320       0x32 /Applications/microchip/xc32/v4.10/bin/bin/../../lib/gcc/pic32c/8.3.1/../../../../pic32c/lib/thumb/v8-m.base/nofp/libg-musl.a(gmtime_r.o)
 .ARM.attributes
                0x00001352       0x32 /Applications/microchip/xc32/v4.10/bin/bin/../../lib/gcc/pic32c/8.3.1/../../../../pic32c/lib/thumb/v8-m.base/nofp/libg-musl.a(readv.o)
 .ARM.attributes
                0x00001384       0x32 /Applications/microchip/xc32/v4.10/bin/bin/../../lib/gcc/pic32c/8.3.1/../../../../pic32c/lib/thumb/v8-m.base/nofp/libg-musl.a(intscan.o)
 .ARM.attributes
                0x000013b6       0x32 /Applications/microchip/xc32/v4.10/bin/bin/../../lib/gcc/pic32c/8.3.1/../../../../pic32c/lib/thumb/v8-m.base/nofp/libg-musl.a(syscall_ret.o)
 .ARM.attributes
                0x000013e8       0x32 /Applications/microchip/xc32/v4.10/bin/bin/../../lib/gcc/pic32c/8.3.1/../../../../pic32c/lib/thumb/v8-m.base/nofp/libg-musl.a(shgetc.o)
 .ARM.attributes
                0x0000141a       0x32 /Applications/microchip/xc32/v4.10/bin/bin/../../lib/gcc/pic32c/8.3.1/../../../../pic32c/lib/thumb/v8-m.base/nofp/libg-musl.a(__uflow.o)
 .ARM.attributes
                0x0000144c       0x32 /Applications/microchip/xc32/v4.10/bin/bin/../../lib/gcc/pic32c/8.3.1/../../../../pic32c/lib/thumb/v8-m.base/nofp/libg-musl.a(__init_stdio.o)
 .ARM.attributes
                0x0000147e       0x32 /Applications/microchip/xc32/v4.10/bin/bin/../../lib/gcc/pic32c/8.3.1/../../../../pic32c/lib/thumb/v8-m.base/nofp/libg-musl.a(__putc.o)
 .ARM.attributes
                0x000014b0       0x32 /Applications/microchip/xc32/v4.10/bin/bin/../../lib/gcc/pic32c/8.3.1/../../../../pic32c/lib/thumb/v8-m.base/nofp/libg-musl.a(__scan_d.o)
 .ARM.attributes
                0x000014e2       0x32 /Applications/microchip/xc32/v4.10/bin/bin/../../lib/gcc/pic32c/8.3.1/../../../../pic32c/lib/thumb/v8-m.base/nofp/libg-musl.a(__scan_fp.o)
 .ARM.attributes
                0x00001514       0x32 /Applications/microchip/xc32/v4.10/bin/bin/../../lib/gcc/pic32c/8.3.1/../../../../pic32c/lib/thumb/v8-m.base/nofp/libg-musl.a(__scan_i.o)
 .ARM.attributes
                0x00001546       0x32 /Applications/microchip/xc32/v4.10/bin/bin/../../lib/gcc/pic32c/8.3.1/../../../../pic32c/lib/thumb/v8-m.base/nofp/libg-musl.a(__scan_o.o)
 .ARM.attributes
                0x00001578       0x32 /Applications/microchip/xc32/v4.10/bin/bin/../../lib/gcc/pic32c/8.3.1/../../../../pic32c/lib/thumb/v8-m.base/nofp/libg-musl.a(__scan_s.o)
 .ARM.attributes
                0x000015aa       0x32 /Applications/microchip/xc32/v4.10/bin/bin/../../lib/gcc/pic32c/8.3.1/../../../../pic32c/lib/thumb/v8-m.base/nofp/libg-musl.a(__scan_u.o)
 .ARM.attributes
                0x000015dc       0x32 /Applications/microchip/xc32/v4.10/bin/bin/../../lib/gcc/pic32c/8.3.1/../../../../pic32c/lib/thumb/v8-m.base/nofp/libg-musl.a(__scan_x.o)
 .ARM.attributes
                0x0000160e       0x32 /Applications/microchip/xc32/v4.10/bin/bin/../../lib/gcc/pic32c/8.3.1/../../../../pic32c/lib/thumb/v8-m.base/nofp/libg-musl.a(__scanf_core.o)
 .ARM.attributes
                0x00001640       0x32 /Applications/microchip/xc32/v4.10/bin/bin/../../lib/gcc/pic32c/8.3.1/../../../../pic32c/lib/thumb/v8-m.base/nofp/libg-musl.a(__stderr.o)
 .ARM.attributes
                0x00001672       0x32 /Applications/microchip/xc32/v4.10/bin/bin/../../lib/gcc/pic32c/8.3.1/../../../../pic32c/lib/thumb/v8-m.base/nofp/libg-musl.a(__stdio_close.o)
 .ARM.attributes
                0x000016a4       0x32 /Applications/microchip/xc32/v4.10/bin/bin/../../lib/gcc/pic32c/8.3.1/../../../../pic32c/lib/thumb/v8-m.base/nofp/libg-musl.a(__stdio_exit.o)
 .ARM.attributes
                0x000016d6       0x32 /Applications/microchip/xc32/v4.10/bin/bin/../../lib/gcc/pic32c/8.3.1/../../../../pic32c/lib/thumb/v8-m.base/nofp/libg-musl.a(__stdio_write.o)
 .ARM.attributes
                0x00001708       0x32 /Applications/microchip/xc32/v4.10/bin/bin/../../lib/gcc/pic32c/8.3.1/../../../../pic32c/lib/thumb/v8-m.base/nofp/libg-musl.a(__stdout.o)
 .ARM.attributes
                0x0000173a       0x32 /Applications/microchip/xc32/v4.10/bin/bin/../../lib/gcc/pic32c/8.3.1/../../../../pic32c/lib/thumb/v8-m.base/nofp/libg-musl.a(__towrite.o)
 .ARM.attributes
                0x0000176c       0x32 /Applications/microchip/xc32/v4.10/bin/bin/../../lib/gcc/pic32c/8.3.1/../../../../pic32c/lib/thumb/v8-m.base/nofp/libg-musl.a(vsnprintf.o)
 .ARM.attributes
                0x0000179e       0x32 /Applications/microchip/xc32/v4.10/bin/bin/../../lib/gcc/pic32c/8.3.1/../../../../pic32c/lib/thumb/v8-m.base/nofp/libg-musl.a(strtod.o)
 .ARM.attributes
                0x000017d0       0x32 /Applications/microchip/xc32/v4.10/bin/bin/../../lib/gcc/pic32c/8.3.1/../../../../pic32c/lib/thumb/v8-m.base/nofp/libg-musl.a(__month_to_secs.o)
 .ARM.attributes
                0x00001802       0x32 /Applications/microchip/xc32/v4.10/bin/bin/../../lib/gcc/pic32c/8.3.1/../../../../pic32c/lib/thumb/v8-m.base/nofp/libg-musl.a(__secs_to_tm.o)
 .ARM.attributes
                0x00001834       0x32 /Applications/microchip/xc32/v4.10/bin/bin/../../lib/gcc/pic32c/8.3.1/../../../../pic32c/lib/thumb/v8-m.base/nofp/libg-musl.a(writev.o)
 .ARM.attributes
                0x00001866       0x32 /Applications/microchip/xc32/v4.10/bin/bin/../../lib/gcc/pic32c/8.3.1/../../../../pic32c/lib/thumb/v8-m.base/nofp/libg-musl.a(floatscan.o)
 .ARM.attributes
                0x00001898       0x32 /Applications/microchip/xc32/v4.10/bin/bin/../../lib/gcc/pic32c/8.3.1/../../../../pic32c/lib/thumb/v8-m.base/nofp/libg-musl.a(__overflow.o)
 .ARM.attributes
                0x000018ca       0x32 /Applications/microchip/xc32/v4.10/bin/bin/../../lib/gcc/pic32c/8.3.1/../../../../pic32c/lib/thumb/v8-m.base/nofp/libg-musl.a(__toread.o)
 .ARM.attributes
                0x000018fc       0x32 /Applications/microchip/xc32/v4.10/bin/bin/../../lib/gcc/pic32c/8.3.1/../../../../pic32c/lib/thumb/v8-m.base/nofp/libg-musl.a(__fclose.o)
 .ARM.attributes
                0x0000192e       0x32 /Applications/microchip/xc32/v4.10/bin/bin/../../lib/gcc/pic32c/8.3.1/../../../../pic32c/lib/thumb/v8-m.base/nofp/libg-musl.a(__fwrite.o)
 .ARM.attributes
                0x00001960       0x32 /Applications/microchip/xc32/v4.10/bin/bin/../../lib/gcc/pic32c/8.3.1/../../../../pic32c/lib/thumb/v8-m.base/nofp/libg-musl.a(__push_float.o)
 .ARM.attributes
                0x00001992       0x32 /Applications/microchip/xc32/v4.10/bin/bin/../../lib/gcc/pic32c/8.3.1/../../../../pic32c/lib/thumb/v8-m.base/nofp/libg-musl.a(__push_int.o)
 .ARM.attributes
                0x000019c4       0x32 /Applications/microchip/xc32/v4.10/bin/bin/../../lib/gcc/pic32c/8.3.1/../../../../pic32c/lib/thumb/v8-m.base/nofp/libg-musl.a(vfprintf.o)
 .ARM.attributes
                0x000019f6       0x32 /Applications/microchip/xc32/v4.10/bin/bin/../../lib/gcc/pic32c/8.3.1/../../../../pic32c/lib/thumb/v8-m.base/nofp/libg-musl.a(__fmt_a.o)
 .ARM.attributes
                0x00001a28       0x32 /Applications/microchip/xc32/v4.10/bin/bin/../../lib/gcc/pic32c/8.3.1/../../../../pic32c/lib/thumb/v8-m.base/nofp/libc-musl.a(fprintf.o)
 .ARM.attributes
                0x00001a5a       0x32 /Applications/microchip/xc32/v4.10/bin/bin/../../lib/gcc/pic32c/8.3.1/../../../../pic32c/lib/thumb/v8-m.base/nofp/libc-musl.a(printf.o)
 .ARM.attributes
                0x00001a8c       0x30 /Applications/microchip/xc32/v4.10/bin/bin/../../lib/gcc/pic32c/8.3.1/../../../../pic32c/lib/thumb/v8-m.base/nofp/libm-emfloat.a(lib_a-_SCALBN.o)
 .ARM.attributes
                0x00001abc       0x30 /Applications/microchip/xc32/v4.10/bin/bin/../../lib/gcc/pic32c/8.3.1/../../../../pic32c/lib/thumb/v8-m.base/nofp/libm-emfloat.a(lib_a-_FLOOR.o)
 .ARM.attributes
                0x00001aec       0x30 /Applications/microchip/xc32/v4.10/bin/bin/../../lib/gcc/pic32c/8.3.1/../../../../pic32c/lib/thumb/v8-m.base/nofp/libm-emfloat.a(lib_a-_FMOD.o)
 .ARM.attributes
                0x00001b1c       0x30 /Applications/microchip/xc32/v4.10/bin/bin/../../lib/gcc/pic32c/8.3.1/../../../../pic32c/lib/thumb/v8-m.base/nofp/libm-emfloat.a(lib_a-_FABS.o)
 .ARM.attributes
                0x00001b4c       0x30 /Applications/microchip/xc32/v4.10/bin/bin/../../lib/gcc/pic32c/8.3.1/../../../../pic32c/lib/thumb/v8-m.base/nofp/libm-emfloat.a(lib_a-_FMA.o)
 .ARM.attributes
                0x00001b7c       0x30 /Applications/microchip/xc32/v4.10/bin/bin/../../lib/gcc/pic32c/8.3.1/../../../../pic32c/lib/thumb/v8-m.base/nofp/libm-emfloat.a(lib_a-_COPYSIGN.o)
 .ARM.attributes
                0x00001bac       0x22 /Applications/microchip/xc32/v4.10/bin/bin/../../lib/gcc/pic32c/8.3.1/thumb/v8-m.base/nofp/libgcc.a(_thumb1_case_uhi.o)
 .ARM.attributes
                0x00001bce       0x22 /Applications/microchip/xc32/v4.10/bin/bin/../../lib/gcc/pic32c/8.3.1/thumb/v8-m.base/nofp/libgcc.a(_lshrdi3.o)
 .ARM.attributes
                0x00001bf0       0x22 /Applications/microchip/xc32/v4.10/bin/bin/../../lib/gcc/pic32c/8.3.1/thumb/v8-m.base/nofp/libgcc.a(_ashldi3.o)
 .ARM.attributes
                0x00001c12       0x22 /Applications/microchip/xc32/v4.10/bin/bin/../../lib/gcc/pic32c/8.3.1/thumb/v8-m.base/nofp/libgcc.a(_aeabi_ldivmod.o)
 .ARM.attributes
                0x00001c34       0x22 /Applications/microchip/xc32/v4.10/bin/bin/../../lib/gcc/pic32c/8.3.1/thumb/v8-m.base/nofp/libgcc.a(_aeabi_uldivmod.o)
 .ARM.attributes
                0x00001c56       0x30 /Applications/microchip/xc32/v4.10/bin/bin/../../lib/gcc/pic32c/8.3.1/thumb/v8-m.base/nofp/libgcc.a(_muldi3.o)
 .ARM.attributes
                0x00001c86       0x30 /Applications/microchip/xc32/v4.10/bin/bin/../../lib/gcc/pic32c/8.3.1/thumb/v8-m.base/nofp/libgcc.a(_udivmoddi4.o)
 .ARM.attributes
                0x00001cb6       0x30 /Applications/microchip/xc32/v4.10/bin/bin/../../lib/gcc/pic32c/8.3.1/thumb/v8-m.base/nofp/libgcc.a(bpabi.o)
 .ARM.attributes
                0x00001ce6       0x22 /Applications/microchip/xc32/v4.10/bin/bin/../../lib/gcc/pic32c/8.3.1/thumb/v8-m.base/nofp/libgcc.a(_dvmd_tls.o)
 .ARM.attributes
                0x00001d08       0x22 /Applications/microchip/xc32/v4.10/bin/bin/../../lib/gcc/pic32c/8.3.1/thumb/v8-m.base/nofp/libgcc.a(_clzsi2.o)
 .ARM.attributes
                0x00001d2a       0x30 /Applications/microchip/xc32/v4.10/bin/bin/../../lib/gcc/pic32c/8.3.1/thumb/v8-m.base/nofp/libgcc.a(_divdi3.o)
 .ARM.attributes
                0x00001d5a       0x30 /Applications/microchip/xc32/v4.10/bin/bin/../../lib/gcc/pic32c/8.3.1/../../../../pic32c/lib/thumb/v8-m.base/nofp/libpic32c.a(close.o)
 .ARM.attributes
                0x00001d8a       0x30 /Applications/microchip/xc32/v4.10/bin/bin/../../lib/gcc/pic32c/8.3.1/../../../../pic32c/lib/thumb/v8-m.base/nofp/libpic32c.a(lseek.o)
 .ARM.attributes
                0x00001dba       0x30 /Applications/microchip/xc32/v4.10/bin/bin/../../lib/gcc/pic32c/8.3.1/../../../../pic32c/lib/thumb/v8-m.base/nofp/libpic32c.a(sbrk.o)
 .ARM.attributes
                0x00001dea       0x22 /Applications/microchip/xc32/v4.10/bin/bin/../../lib/gcc/pic32c/8.3.1/thumb/v8-m.base/nofp/crtn.o

.comment        0x00000000       0x2b
 .comment       0x00000000       0x2b /Applications/microchip/xc32/v4.10/bin/bin/../../lib/gcc/pic32c/8.3.1/thumb/v8-m.base/nofp/crtbegin.o
                                 0x2c (size before relaxing)
 .comment       0x0000002b       0x2c build/default/debug/_ext/1360937237/azure_iot_pnp_pic32cmls60-curiosity.o
 .comment       0x0000002b       0x2c build/default/debug/_ext/1360937237/main.o
 .comment       0x0000002b       0x2c build/default/debug/_ext/1360937237/pic32cmls60-curiosity-buttons.o
 .comment       0x0000002b       0x2c build/default/debug/_ext/1360937237/pic32cmls60-curiosity-led.o
 .comment       0x0000002b       0x2c build/default/debug/_ext/1360937237/pic32cmls60-curiosity-commands.o
 .comment       0x0000002b       0x2c build/default/debug/_ext/1414040249/az_json_reader.o
 .comment       0x0000002b       0x2c build/default/debug/_ext/1414040249/az_json_token.o
 .comment       0x0000002b       0x2c build/default/debug/_ext/1414040249/az_json_writer.o
 .comment       0x0000002b       0x2c build/default/debug/_ext/1414040249/az_log.o
 .comment       0x0000002b       0x2c build/default/debug/_ext/1414040249/az_precondition.o
 .comment       0x0000002b       0x2c build/default/debug/_ext/1414040249/az_span.o
 .comment       0x0000002b       0x2c build/default/debug/_ext/1292534426/az_iot_common.o
 .comment       0x0000002b       0x2c build/default/debug/_ext/1292534426/az_iot_hub_client.o
 .comment       0x0000002b       0x2c build/default/debug/_ext/1292534426/az_iot_hub_client_commands.o
 .comment       0x0000002b       0x2c build/default/debug/_ext/1292534426/az_iot_hub_client_methods.o
 .comment       0x0000002b       0x2c build/default/debug/_ext/1292534426/az_iot_hub_client_properties.o
 .comment       0x0000002b       0x2c build/default/debug/_ext/1292534426/az_iot_hub_client_telemetry.o
 .comment       0x0000002b       0x2c build/default/debug/_ext/1292534426/az_iot_hub_client_twin.o
 .comment       0x0000002b       0x2c build/default/debug/_ext/1292534426/az_iot_provisioning_client.o
 .comment       0x0000002b       0x2c build/default/debug/_ext/1434821282/bsp.o
 .comment       0x0000002b       0x2c build/default/debug/_ext/60163342/plib_adc.o
 .comment       0x0000002b       0x2c build/default/debug/_ext/60167341/plib_eic.o
 .comment       0x0000002b       0x2c build/default/debug/_ext/1865468468/plib_nvic.o
 .comment       0x0000002b       0x2c build/default/debug/_ext/504274921/plib_sercom3_usart.o
 .comment       0x0000002b       0x2c build/default/debug/_ext/504274921/plib_sercom2_usart.o
 .comment       0x0000002b       0x2c build/default/debug/_ext/1827571544/plib_systick.o
 .comment       0x0000002b       0x2c build/default/debug/_ext/163028504/xc32_monitor.o
 .comment       0x0000002b       0x2c build/default/debug/_ext/1171490990/initialization.o
 .comment       0x0000002b       0x2c build/default/debug/_ext/1171490990/interrupts.o
 .comment       0x0000002b       0x2c build/default/debug/_ext/1171490990/exceptions.o
 .comment       0x0000002b       0x2c build/default/debug/_ext/1171490990/startup_xc32.o
 .comment       0x0000002b       0x2c build/default/debug/_ext/1171490990/libc_syscalls.o
 .comment       0x0000002b       0x2c /Applications/microchip/xc32/v4.10/bin/bin/../../lib/gcc/pic32c/8.3.1/../../../../pic32c/lib/thumb/v8-m.base/nofp/libpic32c.a(data_init.o)
 .comment       0x0000002b       0x2c /Applications/microchip/xc32/v4.10/bin/bin/../../lib/gcc/pic32c/8.3.1/../../../../pic32c/lib/thumb/v8-m.base/nofp/libm-emfloat.a(lib_a-_MODF.o)
 .comment       0x0000002b       0x2c /Applications/microchip/xc32/v4.10/bin/bin/../../lib/gcc/pic32c/8.3.1/../../../../pic32c/lib/thumb/v8-m.base/nofp/libg-musl.a(isxdigit.o)
 .comment       0x0000002b       0x2c /Applications/microchip/xc32/v4.10/bin/bin/../../lib/gcc/pic32c/8.3.1/../../../../pic32c/lib/thumb/v8-m.base/nofp/libg-musl.a(__libc_start_main.o)
 .comment       0x0000002b       0x2c /Applications/microchip/xc32/v4.10/bin/bin/../../lib/gcc/pic32c/8.3.1/../../../../pic32c/lib/thumb/v8-m.base/nofp/libg-musl.a(exit.o)
 .comment       0x0000002b       0x2c /Applications/microchip/xc32/v4.10/bin/bin/../../lib/gcc/pic32c/8.3.1/../../../../pic32c/lib/thumb/v8-m.base/nofp/libg-musl.a(libc.o)
 .comment       0x0000002b       0x2c /Applications/microchip/xc32/v4.10/bin/bin/../../lib/gcc/pic32c/8.3.1/../../../../pic32c/lib/thumb/v8-m.base/nofp/libg-musl.a(malloc.o)
 .comment       0x0000002b       0x2c /Applications/microchip/xc32/v4.10/bin/bin/../../lib/gcc/pic32c/8.3.1/../../../../pic32c/lib/thumb/v8-m.base/nofp/libg-musl.a(expand_heap.o)
 .comment       0x0000002b       0x2c /Applications/microchip/xc32/v4.10/bin/bin/../../lib/gcc/pic32c/8.3.1/../../../../pic32c/lib/thumb/v8-m.base/nofp/libg-musl.a(__fmt_d.o)
 .comment       0x0000002b       0x2c /Applications/microchip/xc32/v4.10/bin/bin/../../lib/gcc/pic32c/8.3.1/../../../../pic32c/lib/thumb/v8-m.base/nofp/libg-musl.a(__fmt_fp.o)
 .comment       0x0000002b       0x2c /Applications/microchip/xc32/v4.10/bin/bin/../../lib/gcc/pic32c/8.3.1/../../../../pic32c/lib/thumb/v8-m.base/nofp/libg-musl.a(__fmt_o.o)
 .comment       0x0000002b       0x2c /Applications/microchip/xc32/v4.10/bin/bin/../../lib/gcc/pic32c/8.3.1/../../../../pic32c/lib/thumb/v8-m.base/nofp/libg-musl.a(__fmt_s.o)
 .comment       0x0000002b       0x2c /Applications/microchip/xc32/v4.10/bin/bin/../../lib/gcc/pic32c/8.3.1/../../../../pic32c/lib/thumb/v8-m.base/nofp/libg-musl.a(__fmt_u.o)
 .comment       0x0000002b       0x2c /Applications/microchip/xc32/v4.10/bin/bin/../../lib/gcc/pic32c/8.3.1/../../../../pic32c/lib/thumb/v8-m.base/nofp/libg-musl.a(__fmt_x.o)
 .comment       0x0000002b       0x2c /Applications/microchip/xc32/v4.10/bin/bin/../../lib/gcc/pic32c/8.3.1/../../../../pic32c/lib/thumb/v8-m.base/nofp/libg-musl.a(__printf_core.o)
 .comment       0x0000002b       0x2c /Applications/microchip/xc32/v4.10/bin/bin/../../lib/gcc/pic32c/8.3.1/../../../../pic32c/lib/thumb/v8-m.base/nofp/libg-musl.a(fflush.o)
 .comment       0x0000002b       0x2c /Applications/microchip/xc32/v4.10/bin/bin/../../lib/gcc/pic32c/8.3.1/../../../../pic32c/lib/thumb/v8-m.base/nofp/libg-musl.a(fwrite.o)
 .comment       0x0000002b       0x2c /Applications/microchip/xc32/v4.10/bin/bin/../../lib/gcc/pic32c/8.3.1/../../../../pic32c/lib/thumb/v8-m.base/nofp/libg-musl.a(putc.o)
 .comment       0x0000002b       0x2c /Applications/microchip/xc32/v4.10/bin/bin/../../lib/gcc/pic32c/8.3.1/../../../../pic32c/lib/thumb/v8-m.base/nofp/libg-musl.a(sscanf.o)
 .comment       0x0000002b       0x2c /Applications/microchip/xc32/v4.10/bin/bin/../../lib/gcc/pic32c/8.3.1/../../../../pic32c/lib/thumb/v8-m.base/nofp/libg-musl.a(stdin.o)
 .comment       0x0000002b       0x2c /Applications/microchip/xc32/v4.10/bin/bin/../../lib/gcc/pic32c/8.3.1/../../../../pic32c/lib/thumb/v8-m.base/nofp/libg-musl.a(stdout.o)
 .comment       0x0000002b       0x2c /Applications/microchip/xc32/v4.10/bin/bin/../../lib/gcc/pic32c/8.3.1/../../../../pic32c/lib/thumb/v8-m.base/nofp/libg-musl.a(vsscanf.o)
 .comment       0x0000002b       0x2c /Applications/microchip/xc32/v4.10/bin/bin/../../lib/gcc/pic32c/8.3.1/../../../../pic32c/lib/thumb/v8-m.base/nofp/libg-musl.a(puts.o)
 .comment       0x0000002b       0x2c /Applications/microchip/xc32/v4.10/bin/bin/../../lib/gcc/pic32c/8.3.1/../../../../pic32c/lib/thumb/v8-m.base/nofp/libg-musl.a(setbuf.o)
 .comment       0x0000002b       0x2c /Applications/microchip/xc32/v4.10/bin/bin/../../lib/gcc/pic32c/8.3.1/../../../../pic32c/lib/thumb/v8-m.base/nofp/libg-musl.a(atoi.o)
 .comment       0x0000002b       0x2c /Applications/microchip/xc32/v4.10/bin/bin/../../lib/gcc/pic32c/8.3.1/../../../../pic32c/lib/thumb/v8-m.base/nofp/libg-musl.a(div.o)
 .comment       0x0000002b       0x2c /Applications/microchip/xc32/v4.10/bin/bin/../../lib/gcc/pic32c/8.3.1/../../../../pic32c/lib/thumb/v8-m.base/nofp/libg-musl.a(memcmp.o)
 .comment       0x0000002b       0x2c /Applications/microchip/xc32/v4.10/bin/bin/../../lib/gcc/pic32c/8.3.1/../../../../pic32c/lib/thumb/v8-m.base/nofp/libg-musl.a(memcpy.o)
 .comment       0x0000002b       0x2c /Applications/microchip/xc32/v4.10/bin/bin/../../lib/gcc/pic32c/8.3.1/../../../../pic32c/lib/thumb/v8-m.base/nofp/libg-musl.a(memmove.o)
 .comment       0x0000002b       0x2c /Applications/microchip/xc32/v4.10/bin/bin/../../lib/gcc/pic32c/8.3.1/../../../../pic32c/lib/thumb/v8-m.base/nofp/libg-musl.a(memset.o)
 .comment       0x0000002b       0x2c /Applications/microchip/xc32/v4.10/bin/bin/../../lib/gcc/pic32c/8.3.1/../../../../pic32c/lib/thumb/v8-m.base/nofp/libg-musl.a(strlen.o)
 .comment       0x0000002b       0x2c /Applications/microchip/xc32/v4.10/bin/bin/../../lib/gcc/pic32c/8.3.1/../../../../pic32c/lib/thumb/v8-m.base/nofp/libg-musl.a(strcpy.o)
 .comment       0x0000002b       0x2c /Applications/microchip/xc32/v4.10/bin/bin/../../lib/gcc/pic32c/8.3.1/../../../../pic32c/lib/thumb/v8-m.base/nofp/libg-musl.a(strlcat.o)
 .comment       0x0000002b       0x2c /Applications/microchip/xc32/v4.10/bin/bin/../../lib/gcc/pic32c/8.3.1/../../../../pic32c/lib/thumb/v8-m.base/nofp/libg-musl.a(strlcpy.o)
 .comment       0x0000002b       0x2c /Applications/microchip/xc32/v4.10/bin/bin/../../lib/gcc/pic32c/8.3.1/../../../../pic32c/lib/thumb/v8-m.base/nofp/libg-musl.a(strnlen.o)
 .comment       0x0000002b       0x2c /Applications/microchip/xc32/v4.10/bin/bin/../../lib/gcc/pic32c/8.3.1/../../../../pic32c/lib/thumb/v8-m.base/nofp/libg-musl.a(localtime.o)
 .comment       0x0000002b       0x2c /Applications/microchip/xc32/v4.10/bin/bin/../../lib/gcc/pic32c/8.3.1/../../../../pic32c/lib/thumb/v8-m.base/nofp/libg-musl.a(strftime.o)
 .comment       0x0000002b       0x2c /Applications/microchip/xc32/v4.10/bin/bin/../../lib/gcc/pic32c/8.3.1/../../../../pic32c/lib/thumb/v8-m.base/nofp/libg-musl.a(time.o)
 .comment       0x0000002b       0x2c /Applications/microchip/xc32/v4.10/bin/bin/../../lib/gcc/pic32c/8.3.1/../../../../pic32c/lib/thumb/v8-m.base/nofp/libg-musl.a(tolower.o)
 .comment       0x0000002b       0x2c /Applications/microchip/xc32/v4.10/bin/bin/../../lib/gcc/pic32c/8.3.1/../../../../pic32c/lib/thumb/v8-m.base/nofp/libg-musl.a(toupper.o)
 .comment       0x0000002b       0x2c /Applications/microchip/xc32/v4.10/bin/bin/../../lib/gcc/pic32c/8.3.1/../../../../pic32c/lib/thumb/v8-m.base/nofp/libg-musl.a(__environ.o)
 .comment       0x0000002b       0x2c /Applications/microchip/xc32/v4.10/bin/bin/../../lib/gcc/pic32c/8.3.1/../../../../pic32c/lib/thumb/v8-m.base/nofp/libg-musl.a(__errno_location.o)
 .comment       0x0000002b       0x2c /Applications/microchip/xc32/v4.10/bin/bin/../../lib/gcc/pic32c/8.3.1/../../../../pic32c/lib/thumb/v8-m.base/nofp/libg-musl.a(_Exit.o)
 .comment       0x0000002b       0x2c /Applications/microchip/xc32/v4.10/bin/bin/../../lib/gcc/pic32c/8.3.1/../../../../pic32c/lib/thumb/v8-m.base/nofp/libg-musl.a(langinfo.o)
 .comment       0x0000002b       0x2c /Applications/microchip/xc32/v4.10/bin/bin/../../lib/gcc/pic32c/8.3.1/../../../../pic32c/lib/thumb/v8-m.base/nofp/libg-musl.a(c_locale.o)
 .comment       0x0000002b       0x2c /Applications/microchip/xc32/v4.10/bin/bin/../../lib/gcc/pic32c/8.3.1/../../../../pic32c/lib/thumb/v8-m.base/nofp/libg-musl.a(__string_read.o)
 .comment       0x0000002b       0x2c /Applications/microchip/xc32/v4.10/bin/bin/../../lib/gcc/pic32c/8.3.1/../../../../pic32c/lib/thumb/v8-m.base/nofp/libg-musl.a(fputs.o)
 .comment       0x0000002b       0x2c /Applications/microchip/xc32/v4.10/bin/bin/../../lib/gcc/pic32c/8.3.1/../../../../pic32c/lib/thumb/v8-m.base/nofp/libg-musl.a(__out.o)
 .comment       0x0000002b       0x2c /Applications/microchip/xc32/v4.10/bin/bin/../../lib/gcc/pic32c/8.3.1/../../../../pic32c/lib/thumb/v8-m.base/nofp/libg-musl.a(__pop_float.o)
 .comment       0x0000002b       0x2c /Applications/microchip/xc32/v4.10/bin/bin/../../lib/gcc/pic32c/8.3.1/../../../../pic32c/lib/thumb/v8-m.base/nofp/libg-musl.a(__pop_int.o)
 .comment       0x0000002b       0x2c /Applications/microchip/xc32/v4.10/bin/bin/../../lib/gcc/pic32c/8.3.1/../../../../pic32c/lib/thumb/v8-m.base/nofp/libg-musl.a(__pop_ptr.o)
 .comment       0x0000002b       0x2c /Applications/microchip/xc32/v4.10/bin/bin/../../lib/gcc/pic32c/8.3.1/../../../../pic32c/lib/thumb/v8-m.base/nofp/libg-musl.a(__stdio_read.o)
 .comment       0x0000002b       0x2c /Applications/microchip/xc32/v4.10/bin/bin/../../lib/gcc/pic32c/8.3.1/../../../../pic32c/lib/thumb/v8-m.base/nofp/libg-musl.a(__towrite_rw.o)
 .comment       0x0000002b       0x2c /Applications/microchip/xc32/v4.10/bin/bin/../../lib/gcc/pic32c/8.3.1/../../../../pic32c/lib/thumb/v8-m.base/nofp/libg-musl.a(setvbuf.o)
 .comment       0x0000002b       0x2c /Applications/microchip/xc32/v4.10/bin/bin/../../lib/gcc/pic32c/8.3.1/../../../../pic32c/lib/thumb/v8-m.base/nofp/libg-musl.a(vfscanf.o)
 .comment       0x0000002b       0x2c /Applications/microchip/xc32/v4.10/bin/bin/../../lib/gcc/pic32c/8.3.1/../../../../pic32c/lib/thumb/v8-m.base/nofp/libg-musl.a(snprintf.o)
 .comment       0x0000002b       0x2c /Applications/microchip/xc32/v4.10/bin/bin/../../lib/gcc/pic32c/8.3.1/../../../../pic32c/lib/thumb/v8-m.base/nofp/libg-musl.a(abs.o)
 .comment       0x0000002b       0x2c /Applications/microchip/xc32/v4.10/bin/bin/../../lib/gcc/pic32c/8.3.1/../../../../pic32c/lib/thumb/v8-m.base/nofp/libg-musl.a(strtol.o)
 .comment       0x0000002b       0x2c /Applications/microchip/xc32/v4.10/bin/bin/../../lib/gcc/pic32c/8.3.1/../../../../pic32c/lib/thumb/v8-m.base/nofp/libg-musl.a(memchr.o)
 .comment       0x0000002b       0x2c /Applications/microchip/xc32/v4.10/bin/bin/../../lib/gcc/pic32c/8.3.1/../../../../pic32c/lib/thumb/v8-m.base/nofp/libg-musl.a(stpcpy.o)
 .comment       0x0000002b       0x2c /Applications/microchip/xc32/v4.10/bin/bin/../../lib/gcc/pic32c/8.3.1/../../../../pic32c/lib/thumb/v8-m.base/nofp/libg-musl.a(__tm_to_secs.o)
 .comment       0x0000002b       0x2c /Applications/microchip/xc32/v4.10/bin/bin/../../lib/gcc/pic32c/8.3.1/../../../../pic32c/lib/thumb/v8-m.base/nofp/libg-musl.a(__year_to_secs.o)
 .comment       0x0000002b       0x2c /Applications/microchip/xc32/v4.10/bin/bin/../../lib/gcc/pic32c/8.3.1/../../../../pic32c/lib/thumb/v8-m.base/nofp/libg-musl.a(__tz.o)
 .comment       0x0000002b       0x2c /Applications/microchip/xc32/v4.10/bin/bin/../../lib/gcc/pic32c/8.3.1/../../../../pic32c/lib/thumb/v8-m.base/nofp/libg-musl.a(clock_gettime.o)
 .comment       0x0000002b       0x2c /Applications/microchip/xc32/v4.10/bin/bin/../../lib/gcc/pic32c/8.3.1/../../../../pic32c/lib/thumb/v8-m.base/nofp/libg-musl.a(gettimeofday.o)
 .comment       0x0000002b       0x2c /Applications/microchip/xc32/v4.10/bin/bin/../../lib/gcc/pic32c/8.3.1/../../../../pic32c/lib/thumb/v8-m.base/nofp/libg-musl.a(gmtime_r.o)
 .comment       0x0000002b       0x2c /Applications/microchip/xc32/v4.10/bin/bin/../../lib/gcc/pic32c/8.3.1/../../../../pic32c/lib/thumb/v8-m.base/nofp/libg-musl.a(readv.o)
 .comment       0x0000002b       0x2c /Applications/microchip/xc32/v4.10/bin/bin/../../lib/gcc/pic32c/8.3.1/../../../../pic32c/lib/thumb/v8-m.base/nofp/libg-musl.a(intscan.o)
 .comment       0x0000002b       0x2c /Applications/microchip/xc32/v4.10/bin/bin/../../lib/gcc/pic32c/8.3.1/../../../../pic32c/lib/thumb/v8-m.base/nofp/libg-musl.a(syscall_ret.o)
 .comment       0x0000002b       0x2c /Applications/microchip/xc32/v4.10/bin/bin/../../lib/gcc/pic32c/8.3.1/../../../../pic32c/lib/thumb/v8-m.base/nofp/libg-musl.a(shgetc.o)
 .comment       0x0000002b       0x2c /Applications/microchip/xc32/v4.10/bin/bin/../../lib/gcc/pic32c/8.3.1/../../../../pic32c/lib/thumb/v8-m.base/nofp/libg-musl.a(__uflow.o)
 .comment       0x0000002b       0x2c /Applications/microchip/xc32/v4.10/bin/bin/../../lib/gcc/pic32c/8.3.1/../../../../pic32c/lib/thumb/v8-m.base/nofp/libg-musl.a(__init_stdio.o)
 .comment       0x0000002b       0x2c /Applications/microchip/xc32/v4.10/bin/bin/../../lib/gcc/pic32c/8.3.1/../../../../pic32c/lib/thumb/v8-m.base/nofp/libg-musl.a(__putc.o)
 .comment       0x0000002b       0x2c /Applications/microchip/xc32/v4.10/bin/bin/../../lib/gcc/pic32c/8.3.1/../../../../pic32c/lib/thumb/v8-m.base/nofp/libg-musl.a(__scan_d.o)
 .comment       0x0000002b       0x2c /Applications/microchip/xc32/v4.10/bin/bin/../../lib/gcc/pic32c/8.3.1/../../../../pic32c/lib/thumb/v8-m.base/nofp/libg-musl.a(__scan_fp.o)
 .comment       0x0000002b       0x2c /Applications/microchip/xc32/v4.10/bin/bin/../../lib/gcc/pic32c/8.3.1/../../../../pic32c/lib/thumb/v8-m.base/nofp/libg-musl.a(__scan_i.o)
 .comment       0x0000002b       0x2c /Applications/microchip/xc32/v4.10/bin/bin/../../lib/gcc/pic32c/8.3.1/../../../../pic32c/lib/thumb/v8-m.base/nofp/libg-musl.a(__scan_o.o)
 .comment       0x0000002b       0x2c /Applications/microchip/xc32/v4.10/bin/bin/../../lib/gcc/pic32c/8.3.1/../../../../pic32c/lib/thumb/v8-m.base/nofp/libg-musl.a(__scan_s.o)
 .comment       0x0000002b       0x2c /Applications/microchip/xc32/v4.10/bin/bin/../../lib/gcc/pic32c/8.3.1/../../../../pic32c/lib/thumb/v8-m.base/nofp/libg-musl.a(__scan_u.o)
 .comment       0x0000002b       0x2c /Applications/microchip/xc32/v4.10/bin/bin/../../lib/gcc/pic32c/8.3.1/../../../../pic32c/lib/thumb/v8-m.base/nofp/libg-musl.a(__scan_x.o)
 .comment       0x0000002b       0x2c /Applications/microchip/xc32/v4.10/bin/bin/../../lib/gcc/pic32c/8.3.1/../../../../pic32c/lib/thumb/v8-m.base/nofp/libg-musl.a(__scanf_core.o)
 .comment       0x0000002b       0x2c /Applications/microchip/xc32/v4.10/bin/bin/../../lib/gcc/pic32c/8.3.1/../../../../pic32c/lib/thumb/v8-m.base/nofp/libg-musl.a(__stderr.o)
 .comment       0x0000002b       0x2c /Applications/microchip/xc32/v4.10/bin/bin/../../lib/gcc/pic32c/8.3.1/../../../../pic32c/lib/thumb/v8-m.base/nofp/libg-musl.a(__stdio_close.o)
 .comment       0x0000002b       0x2c /Applications/microchip/xc32/v4.10/bin/bin/../../lib/gcc/pic32c/8.3.1/../../../../pic32c/lib/thumb/v8-m.base/nofp/libg-musl.a(__stdio_exit.o)
 .comment       0x0000002b       0x2c /Applications/microchip/xc32/v4.10/bin/bin/../../lib/gcc/pic32c/8.3.1/../../../../pic32c/lib/thumb/v8-m.base/nofp/libg-musl.a(__stdio_write.o)
 .comment       0x0000002b       0x2c /Applications/microchip/xc32/v4.10/bin/bin/../../lib/gcc/pic32c/8.3.1/../../../../pic32c/lib/thumb/v8-m.base/nofp/libg-musl.a(__stdout.o)
 .comment       0x0000002b       0x2c /Applications/microchip/xc32/v4.10/bin/bin/../../lib/gcc/pic32c/8.3.1/../../../../pic32c/lib/thumb/v8-m.base/nofp/libg-musl.a(__towrite.o)
 .comment       0x0000002b       0x2c /Applications/microchip/xc32/v4.10/bin/bin/../../lib/gcc/pic32c/8.3.1/../../../../pic32c/lib/thumb/v8-m.base/nofp/libg-musl.a(vsnprintf.o)
 .comment       0x0000002b       0x2c /Applications/microchip/xc32/v4.10/bin/bin/../../lib/gcc/pic32c/8.3.1/../../../../pic32c/lib/thumb/v8-m.base/nofp/libg-musl.a(strtod.o)
 .comment       0x0000002b       0x2c /Applications/microchip/xc32/v4.10/bin/bin/../../lib/gcc/pic32c/8.3.1/../../../../pic32c/lib/thumb/v8-m.base/nofp/libg-musl.a(__month_to_secs.o)
 .comment       0x0000002b       0x2c /Applications/microchip/xc32/v4.10/bin/bin/../../lib/gcc/pic32c/8.3.1/../../../../pic32c/lib/thumb/v8-m.base/nofp/libg-musl.a(__secs_to_tm.o)
 .comment       0x0000002b       0x2c /Applications/microchip/xc32/v4.10/bin/bin/../../lib/gcc/pic32c/8.3.1/../../../../pic32c/lib/thumb/v8-m.base/nofp/libg-musl.a(writev.o)
 .comment       0x0000002b       0x2c /Applications/microchip/xc32/v4.10/bin/bin/../../lib/gcc/pic32c/8.3.1/../../../../pic32c/lib/thumb/v8-m.base/nofp/libg-musl.a(floatscan.o)
 .comment       0x0000002b       0x2c /Applications/microchip/xc32/v4.10/bin/bin/../../lib/gcc/pic32c/8.3.1/../../../../pic32c/lib/thumb/v8-m.base/nofp/libg-musl.a(__overflow.o)
 .comment       0x0000002b       0x2c /Applications/microchip/xc32/v4.10/bin/bin/../../lib/gcc/pic32c/8.3.1/../../../../pic32c/lib/thumb/v8-m.base/nofp/libg-musl.a(__toread.o)
 .comment       0x0000002b       0x2c /Applications/microchip/xc32/v4.10/bin/bin/../../lib/gcc/pic32c/8.3.1/../../../../pic32c/lib/thumb/v8-m.base/nofp/libg-musl.a(__fclose.o)
 .comment       0x0000002b       0x2c /Applications/microchip/xc32/v4.10/bin/bin/../../lib/gcc/pic32c/8.3.1/../../../../pic32c/lib/thumb/v8-m.base/nofp/libg-musl.a(__fwrite.o)
 .comment       0x0000002b       0x2c /Applications/microchip/xc32/v4.10/bin/bin/../../lib/gcc/pic32c/8.3.1/../../../../pic32c/lib/thumb/v8-m.base/nofp/libg-musl.a(__push_float.o)
 .comment       0x0000002b       0x2c /Applications/microchip/xc32/v4.10/bin/bin/../../lib/gcc/pic32c/8.3.1/../../../../pic32c/lib/thumb/v8-m.base/nofp/libg-musl.a(__push_int.o)
 .comment       0x0000002b       0x2c /Applications/microchip/xc32/v4.10/bin/bin/../../lib/gcc/pic32c/8.3.1/../../../../pic32c/lib/thumb/v8-m.base/nofp/libg-musl.a(vfprintf.o)
 .comment       0x0000002b       0x2c /Applications/microchip/xc32/v4.10/bin/bin/../../lib/gcc/pic32c/8.3.1/../../../../pic32c/lib/thumb/v8-m.base/nofp/libg-musl.a(__fmt_a.o)
 .comment       0x0000002b       0x2c /Applications/microchip/xc32/v4.10/bin/bin/../../lib/gcc/pic32c/8.3.1/../../../../pic32c/lib/thumb/v8-m.base/nofp/libc-musl.a(fprintf.o)
 .comment       0x0000002b       0x2c /Applications/microchip/xc32/v4.10/bin/bin/../../lib/gcc/pic32c/8.3.1/../../../../pic32c/lib/thumb/v8-m.base/nofp/libc-musl.a(printf.o)
 .comment       0x0000002b       0x2c /Applications/microchip/xc32/v4.10/bin/bin/../../lib/gcc/pic32c/8.3.1/../../../../pic32c/lib/thumb/v8-m.base/nofp/libm-emfloat.a(lib_a-_SCALBN.o)
 .comment       0x0000002b       0x2c /Applications/microchip/xc32/v4.10/bin/bin/../../lib/gcc/pic32c/8.3.1/../../../../pic32c/lib/thumb/v8-m.base/nofp/libm-emfloat.a(lib_a-_FLOOR.o)
 .comment       0x0000002b       0x2c /Applications/microchip/xc32/v4.10/bin/bin/../../lib/gcc/pic32c/8.3.1/../../../../pic32c/lib/thumb/v8-m.base/nofp/libm-emfloat.a(lib_a-_FMOD.o)
 .comment       0x0000002b       0x2c /Applications/microchip/xc32/v4.10/bin/bin/../../lib/gcc/pic32c/8.3.1/../../../../pic32c/lib/thumb/v8-m.base/nofp/libm-emfloat.a(lib_a-_FABS.o)
 .comment       0x0000002b       0x2c /Applications/microchip/xc32/v4.10/bin/bin/../../lib/gcc/pic32c/8.3.1/../../../../pic32c/lib/thumb/v8-m.base/nofp/libm-emfloat.a(lib_a-_FMA.o)
 .comment       0x0000002b       0x2c /Applications/microchip/xc32/v4.10/bin/bin/../../lib/gcc/pic32c/8.3.1/../../../../pic32c/lib/thumb/v8-m.base/nofp/libm-emfloat.a(lib_a-_COPYSIGN.o)
 .comment       0x0000002b       0x2c /Applications/microchip/xc32/v4.10/bin/bin/../../lib/gcc/pic32c/8.3.1/thumb/v8-m.base/nofp/libgcc.a(_muldi3.o)
 .comment       0x0000002b       0x2c /Applications/microchip/xc32/v4.10/bin/bin/../../lib/gcc/pic32c/8.3.1/thumb/v8-m.base/nofp/libgcc.a(_udivmoddi4.o)
 .comment       0x0000002b       0x2c /Applications/microchip/xc32/v4.10/bin/bin/../../lib/gcc/pic32c/8.3.1/thumb/v8-m.base/nofp/libgcc.a(bpabi.o)
 .comment       0x0000002b       0x2c /Applications/microchip/xc32/v4.10/bin/bin/../../lib/gcc/pic32c/8.3.1/thumb/v8-m.base/nofp/libgcc.a(_divdi3.o)
 .comment       0x0000002b       0x2c /Applications/microchip/xc32/v4.10/bin/bin/../../lib/gcc/pic32c/8.3.1/../../../../pic32c/lib/thumb/v8-m.base/nofp/libpic32c.a(close.o)
 .comment       0x0000002b       0x2c /Applications/microchip/xc32/v4.10/bin/bin/../../lib/gcc/pic32c/8.3.1/../../../../pic32c/lib/thumb/v8-m.base/nofp/libpic32c.a(lseek.o)
 .comment       0x0000002b       0x2c /Applications/microchip/xc32/v4.10/bin/bin/../../lib/gcc/pic32c/8.3.1/../../../../pic32c/lib/thumb/v8-m.base/nofp/libpic32c.a(sbrk.o)

.debug_info     0x00000000    0x72c53
 .debug_info    0x00000000     0x8c51 build/default/debug/_ext/1360937237/azure_iot_pnp_pic32cmls60-curiosity.o
 .debug_info    0x00008c51    0x1d31b build/default/debug/_ext/1360937237/main.o
 .debug_info    0x00025f6c      0x999 build/default/debug/_ext/1360937237/pic32cmls60-curiosity-buttons.o
 .debug_info    0x00026905      0x751 build/default/debug/_ext/1360937237/pic32cmls60-curiosity-led.o
 .debug_info    0x00027056     0x2252 build/default/debug/_ext/1360937237/pic32cmls60-curiosity-commands.o
 .debug_info    0x000292a8     0x2de0 build/default/debug/_ext/1414040249/az_json_reader.o
 .debug_info    0x0002c088     0x2187 build/default/debug/_ext/1414040249/az_json_token.o
 .debug_info    0x0002e20f     0x403e build/default/debug/_ext/1414040249/az_json_writer.o
 .debug_info    0x0003224d      0x9f6 build/default/debug/_ext/1414040249/az_log.o
 .debug_info    0x00032c43      0x58f build/default/debug/_ext/1414040249/az_precondition.o
 .debug_info    0x000331d2     0x349f build/default/debug/_ext/1414040249/az_span.o
 .debug_info    0x00036671     0x1881 build/default/debug/_ext/1292534426/az_iot_common.o
 .debug_info    0x00037ef2     0x1205 build/default/debug/_ext/1292534426/az_iot_hub_client.o
 .debug_info    0x000390f7      0xf18 build/default/debug/_ext/1292534426/az_iot_hub_client_commands.o
 .debug_info    0x0003a00f     0x12ac build/default/debug/_ext/1292534426/az_iot_hub_client_methods.o
 .debug_info    0x0003b2bb     0x2cb3 build/default/debug/_ext/1292534426/az_iot_hub_client_properties.o
 .debug_info    0x0003df6e      0xca2 build/default/debug/_ext/1292534426/az_iot_hub_client_telemetry.o
 .debug_info    0x0003ec10     0x1c59 build/default/debug/_ext/1292534426/az_iot_hub_client_twin.o
 .debug_info    0x00040869     0x3c4f build/default/debug/_ext/1292534426/az_iot_provisioning_client.o
 .debug_info    0x000444b8      0x60b build/default/debug/_ext/1434821282/bsp.o
 .debug_info    0x00044ac3      0xe30 build/default/debug/_ext/60163342/plib_adc.o
 .debug_info    0x000458f3      0x824 build/default/debug/_ext/60167341/plib_eic.o
 .debug_info    0x00046117      0xf73 build/default/debug/_ext/1865468468/plib_nvic.o
 .debug_info    0x0004708a     0x1531 build/default/debug/_ext/504274921/plib_sercom3_usart.o
 .debug_info    0x000485bb     0x22ac build/default/debug/_ext/504274921/plib_sercom2_usart.o
 .debug_info    0x0004a867      0x6e0 build/default/debug/_ext/1827571544/plib_systick.o
 .debug_info    0x0004af47      0x44e build/default/debug/_ext/163028504/xc32_monitor.o
 .debug_info    0x0004b395      0x4d7 build/default/debug/_ext/1171490990/initialization.o
 .debug_info    0x0004b86c      0xe92 build/default/debug/_ext/1171490990/interrupts.o
 .debug_info    0x0004c6fe      0x38c build/default/debug/_ext/1171490990/exceptions.o
 .debug_info    0x0004ca8a      0x4ee build/default/debug/_ext/1171490990/startup_xc32.o
 .debug_info    0x0004cf78      0x353 build/default/debug/_ext/1171490990/libc_syscalls.o
 .debug_info    0x0004d2cb      0x2b1 /Applications/microchip/xc32/v4.10/bin/bin/../../lib/gcc/pic32c/8.3.1/../../../../pic32c/lib/thumb/v8-m.base/nofp/libpic32c.a(data_init.o)
 .debug_info    0x0004d57c      0x363 /Applications/microchip/xc32/v4.10/bin/bin/../../lib/gcc/pic32c/8.3.1/../../../../pic32c/lib/thumb/v8-m.base/nofp/libg-musl.a(isxdigit.o)
 .debug_info    0x0004d8df      0x62a /Applications/microchip/xc32/v4.10/bin/bin/../../lib/gcc/pic32c/8.3.1/../../../../pic32c/lib/thumb/v8-m.base/nofp/libg-musl.a(__libc_start_main.o)
 .debug_info    0x0004df09      0x3de /Applications/microchip/xc32/v4.10/bin/bin/../../lib/gcc/pic32c/8.3.1/../../../../pic32c/lib/thumb/v8-m.base/nofp/libg-musl.a(exit.o)
 .debug_info    0x0004e2e7      0x53c /Applications/microchip/xc32/v4.10/bin/bin/../../lib/gcc/pic32c/8.3.1/../../../../pic32c/lib/thumb/v8-m.base/nofp/libg-musl.a(libc.o)
 .debug_info    0x0004e823     0x13a8 /Applications/microchip/xc32/v4.10/bin/bin/../../lib/gcc/pic32c/8.3.1/../../../../pic32c/lib/thumb/v8-m.base/nofp/libg-musl.a(malloc.o)
 .debug_info    0x0004fbcb      0x383 /Applications/microchip/xc32/v4.10/bin/bin/../../lib/gcc/pic32c/8.3.1/../../../../pic32c/lib/thumb/v8-m.base/nofp/libg-musl.a(expand_heap.o)
 .debug_info    0x0004ff4e      0x5c9 /Applications/microchip/xc32/v4.10/bin/bin/../../lib/gcc/pic32c/8.3.1/../../../../pic32c/lib/thumb/v8-m.base/nofp/libg-musl.a(__fmt_d.o)
 .debug_info    0x00050517      0x95b /Applications/microchip/xc32/v4.10/bin/bin/../../lib/gcc/pic32c/8.3.1/../../../../pic32c/lib/thumb/v8-m.base/nofp/libg-musl.a(__fmt_fp.o)
 .debug_info    0x00050e72      0x59a /Applications/microchip/xc32/v4.10/bin/bin/../../lib/gcc/pic32c/8.3.1/../../../../pic32c/lib/thumb/v8-m.base/nofp/libg-musl.a(__fmt_o.o)
 .debug_info    0x0005140c      0x585 /Applications/microchip/xc32/v4.10/bin/bin/../../lib/gcc/pic32c/8.3.1/../../../../pic32c/lib/thumb/v8-m.base/nofp/libg-musl.a(__fmt_s.o)
 .debug_info    0x00051991      0x65d /Applications/microchip/xc32/v4.10/bin/bin/../../lib/gcc/pic32c/8.3.1/../../../../pic32c/lib/thumb/v8-m.base/nofp/libg-musl.a(__fmt_u.o)
 .debug_info    0x00051fee      0x5ce /Applications/microchip/xc32/v4.10/bin/bin/../../lib/gcc/pic32c/8.3.1/../../../../pic32c/lib/thumb/v8-m.base/nofp/libg-musl.a(__fmt_x.o)
 .debug_info    0x000525bc      0xd4c /Applications/microchip/xc32/v4.10/bin/bin/../../lib/gcc/pic32c/8.3.1/../../../../pic32c/lib/thumb/v8-m.base/nofp/libg-musl.a(__printf_core.o)
 .debug_info    0x00053308      0x5ae /Applications/microchip/xc32/v4.10/bin/bin/../../lib/gcc/pic32c/8.3.1/../../../../pic32c/lib/thumb/v8-m.base/nofp/libg-musl.a(fflush.o)
 .debug_info    0x000538b6      0x4da /Applications/microchip/xc32/v4.10/bin/bin/../../lib/gcc/pic32c/8.3.1/../../../../pic32c/lib/thumb/v8-m.base/nofp/libg-musl.a(fwrite.o)
 .debug_info    0x00053d90      0x4ae /Applications/microchip/xc32/v4.10/bin/bin/../../lib/gcc/pic32c/8.3.1/../../../../pic32c/lib/thumb/v8-m.base/nofp/libg-musl.a(putc.o)
 .debug_info    0x0005423e      0x33a /Applications/microchip/xc32/v4.10/bin/bin/../../lib/gcc/pic32c/8.3.1/../../../../pic32c/lib/thumb/v8-m.base/nofp/libg-musl.a(sscanf.o)
 .debug_info    0x00054578      0x6ce /Applications/microchip/xc32/v4.10/bin/bin/../../lib/gcc/pic32c/8.3.1/../../../../pic32c/lib/thumb/v8-m.base/nofp/libg-musl.a(stdin.o)
 .debug_info    0x00054c46      0x48a /Applications/microchip/xc32/v4.10/bin/bin/../../lib/gcc/pic32c/8.3.1/../../../../pic32c/lib/thumb/v8-m.base/nofp/libg-musl.a(stdout.o)
 .debug_info    0x000550d0      0x745 /Applications/microchip/xc32/v4.10/bin/bin/../../lib/gcc/pic32c/8.3.1/../../../../pic32c/lib/thumb/v8-m.base/nofp/libg-musl.a(vsscanf.o)
 .debug_info    0x00055815      0x64f /Applications/microchip/xc32/v4.10/bin/bin/../../lib/gcc/pic32c/8.3.1/../../../../pic32c/lib/thumb/v8-m.base/nofp/libg-musl.a(puts.o)
 .debug_info    0x00055e64      0x2fa /Applications/microchip/xc32/v4.10/bin/bin/../../lib/gcc/pic32c/8.3.1/../../../../pic32c/lib/thumb/v8-m.base/nofp/libg-musl.a(setbuf.o)
 .debug_info    0x0005615e      0x302 /Applications/microchip/xc32/v4.10/bin/bin/../../lib/gcc/pic32c/8.3.1/../../../../pic32c/lib/thumb/v8-m.base/nofp/libg-musl.a(atoi.o)
 .debug_info    0x00056460      0x2cc /Applications/microchip/xc32/v4.10/bin/bin/../../lib/gcc/pic32c/8.3.1/../../../../pic32c/lib/thumb/v8-m.base/nofp/libg-musl.a(div.o)
 .debug_info    0x0005672c      0x2e9 /Applications/microchip/xc32/v4.10/bin/bin/../../lib/gcc/pic32c/8.3.1/../../../../pic32c/lib/thumb/v8-m.base/nofp/libg-musl.a(memcmp.o)
 .debug_info    0x00056a15      0x2f8 /Applications/microchip/xc32/v4.10/bin/bin/../../lib/gcc/pic32c/8.3.1/../../../../pic32c/lib/thumb/v8-m.base/nofp/libg-musl.a(memcpy.o)
 .debug_info    0x00056d0d      0x2fa /Applications/microchip/xc32/v4.10/bin/bin/../../lib/gcc/pic32c/8.3.1/../../../../pic32c/lib/thumb/v8-m.base/nofp/libg-musl.a(memmove.o)
 .debug_info    0x00057007      0x2bc /Applications/microchip/xc32/v4.10/bin/bin/../../lib/gcc/pic32c/8.3.1/../../../../pic32c/lib/thumb/v8-m.base/nofp/libg-musl.a(memset.o)
 .debug_info    0x000572c3      0x2ad /Applications/microchip/xc32/v4.10/bin/bin/../../lib/gcc/pic32c/8.3.1/../../../../pic32c/lib/thumb/v8-m.base/nofp/libg-musl.a(strlen.o)
 .debug_info    0x00057570      0x2bb /Applications/microchip/xc32/v4.10/bin/bin/../../lib/gcc/pic32c/8.3.1/../../../../pic32c/lib/thumb/v8-m.base/nofp/libg-musl.a(strcpy.o)
 .debug_info    0x0005782b      0x356 /Applications/microchip/xc32/v4.10/bin/bin/../../lib/gcc/pic32c/8.3.1/../../../../pic32c/lib/thumb/v8-m.base/nofp/libg-musl.a(strlcat.o)
 .debug_info    0x00057b81      0x3d2 /Applications/microchip/xc32/v4.10/bin/bin/../../lib/gcc/pic32c/8.3.1/../../../../pic32c/lib/thumb/v8-m.base/nofp/libg-musl.a(strlcpy.o)
 .debug_info    0x00057f53      0x2dd /Applications/microchip/xc32/v4.10/bin/bin/../../lib/gcc/pic32c/8.3.1/../../../../pic32c/lib/thumb/v8-m.base/nofp/libg-musl.a(strnlen.o)
 .debug_info    0x00058230      0x3e5 /Applications/microchip/xc32/v4.10/bin/bin/../../lib/gcc/pic32c/8.3.1/../../../../pic32c/lib/thumb/v8-m.base/nofp/libg-musl.a(localtime.o)
 .debug_info    0x00058615      0xb0d /Applications/microchip/xc32/v4.10/bin/bin/../../lib/gcc/pic32c/8.3.1/../../../../pic32c/lib/thumb/v8-m.base/nofp/libg-musl.a(strftime.o)
 .debug_info    0x00059122      0x322 /Applications/microchip/xc32/v4.10/bin/bin/../../lib/gcc/pic32c/8.3.1/../../../../pic32c/lib/thumb/v8-m.base/nofp/libg-musl.a(time.o)
 .debug_info    0x00059444      0x360 /Applications/microchip/xc32/v4.10/bin/bin/../../lib/gcc/pic32c/8.3.1/../../../../pic32c/lib/thumb/v8-m.base/nofp/libg-musl.a(tolower.o)
 .debug_info    0x000597a4      0x360 /Applications/microchip/xc32/v4.10/bin/bin/../../lib/gcc/pic32c/8.3.1/../../../../pic32c/lib/thumb/v8-m.base/nofp/libg-musl.a(toupper.o)
 .debug_info    0x00059b04      0x2b6 /Applications/microchip/xc32/v4.10/bin/bin/../../lib/gcc/pic32c/8.3.1/../../../../pic32c/lib/thumb/v8-m.base/nofp/libg-musl.a(__environ.o)
 .debug_info    0x00059dba      0x27a /Applications/microchip/xc32/v4.10/bin/bin/../../lib/gcc/pic32c/8.3.1/../../../../pic32c/lib/thumb/v8-m.base/nofp/libg-musl.a(__errno_location.o)
 .debug_info    0x0005a034      0x2b8 /Applications/microchip/xc32/v4.10/bin/bin/../../lib/gcc/pic32c/8.3.1/../../../../pic32c/lib/thumb/v8-m.base/nofp/libg-musl.a(_Exit.o)
 .debug_info    0x0005a2ec      0x4e7 /Applications/microchip/xc32/v4.10/bin/bin/../../lib/gcc/pic32c/8.3.1/../../../../pic32c/lib/thumb/v8-m.base/nofp/libg-musl.a(langinfo.o)
 .debug_info    0x0005a7d3      0x400 /Applications/microchip/xc32/v4.10/bin/bin/../../lib/gcc/pic32c/8.3.1/../../../../pic32c/lib/thumb/v8-m.base/nofp/libg-musl.a(c_locale.o)
 .debug_info    0x0005abd3      0x6af /Applications/microchip/xc32/v4.10/bin/bin/../../lib/gcc/pic32c/8.3.1/../../../../pic32c/lib/thumb/v8-m.base/nofp/libg-musl.a(__string_read.o)
 .debug_info    0x0005b282      0x65f /Applications/microchip/xc32/v4.10/bin/bin/../../lib/gcc/pic32c/8.3.1/../../../../pic32c/lib/thumb/v8-m.base/nofp/libg-musl.a(fputs.o)
 .debug_info    0x0005b8e1      0x547 /Applications/microchip/xc32/v4.10/bin/bin/../../lib/gcc/pic32c/8.3.1/../../../../pic32c/lib/thumb/v8-m.base/nofp/libg-musl.a(__out.o)
 .debug_info    0x0005be28      0x3e4 /Applications/microchip/xc32/v4.10/bin/bin/../../lib/gcc/pic32c/8.3.1/../../../../pic32c/lib/thumb/v8-m.base/nofp/libg-musl.a(__pop_float.o)
 .debug_info    0x0005c20c      0x408 /Applications/microchip/xc32/v4.10/bin/bin/../../lib/gcc/pic32c/8.3.1/../../../../pic32c/lib/thumb/v8-m.base/nofp/libg-musl.a(__pop_int.o)
 .debug_info    0x0005c614      0x414 /Applications/microchip/xc32/v4.10/bin/bin/../../lib/gcc/pic32c/8.3.1/../../../../pic32c/lib/thumb/v8-m.base/nofp/libg-musl.a(__pop_ptr.o)
 .debug_info    0x0005ca28      0x6b2 /Applications/microchip/xc32/v4.10/bin/bin/../../lib/gcc/pic32c/8.3.1/../../../../pic32c/lib/thumb/v8-m.base/nofp/libg-musl.a(__stdio_read.o)
 .debug_info    0x0005d0da      0x5e1 /Applications/microchip/xc32/v4.10/bin/bin/../../lib/gcc/pic32c/8.3.1/../../../../pic32c/lib/thumb/v8-m.base/nofp/libg-musl.a(__towrite_rw.o)
 .debug_info    0x0005d6bb      0x555 /Applications/microchip/xc32/v4.10/bin/bin/../../lib/gcc/pic32c/8.3.1/../../../../pic32c/lib/thumb/v8-m.base/nofp/libg-musl.a(setvbuf.o)
 .debug_info    0x0005dc10      0x6d0 /Applications/microchip/xc32/v4.10/bin/bin/../../lib/gcc/pic32c/8.3.1/../../../../pic32c/lib/thumb/v8-m.base/nofp/libg-musl.a(vfscanf.o)
 .debug_info    0x0005e2e0      0x353 /Applications/microchip/xc32/v4.10/bin/bin/../../lib/gcc/pic32c/8.3.1/../../../../pic32c/lib/thumb/v8-m.base/nofp/libg-musl.a(snprintf.o)
 .debug_info    0x0005e633      0x24c /Applications/microchip/xc32/v4.10/bin/bin/../../lib/gcc/pic32c/8.3.1/../../../../pic32c/lib/thumb/v8-m.base/nofp/libg-musl.a(abs.o)
 .debug_info    0x0005e87f      0x9f6 /Applications/microchip/xc32/v4.10/bin/bin/../../lib/gcc/pic32c/8.3.1/../../../../pic32c/lib/thumb/v8-m.base/nofp/libg-musl.a(strtol.o)
 .debug_info    0x0005f275      0x2fd /Applications/microchip/xc32/v4.10/bin/bin/../../lib/gcc/pic32c/8.3.1/../../../../pic32c/lib/thumb/v8-m.base/nofp/libg-musl.a(memchr.o)
 .debug_info    0x0005f572      0x2bf /Applications/microchip/xc32/v4.10/bin/bin/../../lib/gcc/pic32c/8.3.1/../../../../pic32c/lib/thumb/v8-m.base/nofp/libg-musl.a(stpcpy.o)
 .debug_info    0x0005f831      0x45c /Applications/microchip/xc32/v4.10/bin/bin/../../lib/gcc/pic32c/8.3.1/../../../../pic32c/lib/thumb/v8-m.base/nofp/libg-musl.a(__tm_to_secs.o)
 .debug_info    0x0005fc8d      0x336 /Applications/microchip/xc32/v4.10/bin/bin/../../lib/gcc/pic32c/8.3.1/../../../../pic32c/lib/thumb/v8-m.base/nofp/libg-musl.a(__year_to_secs.o)
 .debug_info    0x0005ffc3      0xc21 /Applications/microchip/xc32/v4.10/bin/bin/../../lib/gcc/pic32c/8.3.1/../../../../pic32c/lib/thumb/v8-m.base/nofp/libg-musl.a(__tz.o)
 .debug_info    0x00060be4      0x4ab /Applications/microchip/xc32/v4.10/bin/bin/../../lib/gcc/pic32c/8.3.1/../../../../pic32c/lib/thumb/v8-m.base/nofp/libg-musl.a(clock_gettime.o)
 .debug_info    0x0006108f      0x329 /Applications/microchip/xc32/v4.10/bin/bin/../../lib/gcc/pic32c/8.3.1/../../../../pic32c/lib/thumb/v8-m.base/nofp/libg-musl.a(gettimeofday.o)
 .debug_info    0x000613b8      0x404 /Applications/microchip/xc32/v4.10/bin/bin/../../lib/gcc/pic32c/8.3.1/../../../../pic32c/lib/thumb/v8-m.base/nofp/libg-musl.a(gmtime_r.o)
 .debug_info    0x000617bc      0x36d /Applications/microchip/xc32/v4.10/bin/bin/../../lib/gcc/pic32c/8.3.1/../../../../pic32c/lib/thumb/v8-m.base/nofp/libg-musl.a(readv.o)
 .debug_info    0x00061b29      0x84c /Applications/microchip/xc32/v4.10/bin/bin/../../lib/gcc/pic32c/8.3.1/../../../../pic32c/lib/thumb/v8-m.base/nofp/libg-musl.a(intscan.o)
 .debug_info    0x00062375      0x2d1 /Applications/microchip/xc32/v4.10/bin/bin/../../lib/gcc/pic32c/8.3.1/../../../../pic32c/lib/thumb/v8-m.base/nofp/libg-musl.a(syscall_ret.o)
 .debug_info    0x00062646      0x651 /Applications/microchip/xc32/v4.10/bin/bin/../../lib/gcc/pic32c/8.3.1/../../../../pic32c/lib/thumb/v8-m.base/nofp/libg-musl.a(shgetc.o)
 .debug_info    0x00062c97      0x61d /Applications/microchip/xc32/v4.10/bin/bin/../../lib/gcc/pic32c/8.3.1/../../../../pic32c/lib/thumb/v8-m.base/nofp/libg-musl.a(__uflow.o)
 .debug_info    0x000632b4      0x333 /Applications/microchip/xc32/v4.10/bin/bin/../../lib/gcc/pic32c/8.3.1/../../../../pic32c/lib/thumb/v8-m.base/nofp/libg-musl.a(__init_stdio.o)
 .debug_info    0x000635e7      0x50b /Applications/microchip/xc32/v4.10/bin/bin/../../lib/gcc/pic32c/8.3.1/../../../../pic32c/lib/thumb/v8-m.base/nofp/libg-musl.a(__putc.o)
 .debug_info    0x00063af2      0x8d2 /Applications/microchip/xc32/v4.10/bin/bin/../../lib/gcc/pic32c/8.3.1/../../../../pic32c/lib/thumb/v8-m.base/nofp/libg-musl.a(__scan_d.o)
 .debug_info    0x000643c4      0x9f9 /Applications/microchip/xc32/v4.10/bin/bin/../../lib/gcc/pic32c/8.3.1/../../../../pic32c/lib/thumb/v8-m.base/nofp/libg-musl.a(__scan_fp.o)
 .debug_info    0x00064dbd      0x8d9 /Applications/microchip/xc32/v4.10/bin/bin/../../lib/gcc/pic32c/8.3.1/../../../../pic32c/lib/thumb/v8-m.base/nofp/libg-musl.a(__scan_i.o)
 .debug_info    0x00065696      0x7ed /Applications/microchip/xc32/v4.10/bin/bin/../../lib/gcc/pic32c/8.3.1/../../../../pic32c/lib/thumb/v8-m.base/nofp/libg-musl.a(__scan_o.o)
 .debug_info    0x00065e83      0x766 /Applications/microchip/xc32/v4.10/bin/bin/../../lib/gcc/pic32c/8.3.1/../../../../pic32c/lib/thumb/v8-m.base/nofp/libg-musl.a(__scan_s.o)
 .debug_info    0x000665e9      0x562 /Applications/microchip/xc32/v4.10/bin/bin/../../lib/gcc/pic32c/8.3.1/../../../../pic32c/lib/thumb/v8-m.base/nofp/libg-musl.a(__scan_u.o)
 .debug_info    0x00066b4b      0x869 /Applications/microchip/xc32/v4.10/bin/bin/../../lib/gcc/pic32c/8.3.1/../../../../pic32c/lib/thumb/v8-m.base/nofp/libg-musl.a(__scan_x.o)
 .debug_info    0x000673b4      0xf49 /Applications/microchip/xc32/v4.10/bin/bin/../../lib/gcc/pic32c/8.3.1/../../../../pic32c/lib/thumb/v8-m.base/nofp/libg-musl.a(__scanf_core.o)
 .debug_info    0x000682fd      0x672 /Applications/microchip/xc32/v4.10/bin/bin/../../lib/gcc/pic32c/8.3.1/../../../../pic32c/lib/thumb/v8-m.base/nofp/libg-musl.a(__stderr.o)
 .debug_info    0x0006896f      0x6cb /Applications/microchip/xc32/v4.10/bin/bin/../../lib/gcc/pic32c/8.3.1/../../../../pic32c/lib/thumb/v8-m.base/nofp/libg-musl.a(__stdio_close.o)
 .debug_info    0x0006903a      0x596 /Applications/microchip/xc32/v4.10/bin/bin/../../lib/gcc/pic32c/8.3.1/../../../../pic32c/lib/thumb/v8-m.base/nofp/libg-musl.a(__stdio_exit.o)
 .debug_info    0x000695d0      0x6ff /Applications/microchip/xc32/v4.10/bin/bin/../../lib/gcc/pic32c/8.3.1/../../../../pic32c/lib/thumb/v8-m.base/nofp/libg-musl.a(__stdio_write.o)
 .debug_info    0x00069ccf      0x672 /Applications/microchip/xc32/v4.10/bin/bin/../../lib/gcc/pic32c/8.3.1/../../../../pic32c/lib/thumb/v8-m.base/nofp/libg-musl.a(__stdout.o)
 .debug_info    0x0006a341      0x4fd /Applications/microchip/xc32/v4.10/bin/bin/../../lib/gcc/pic32c/8.3.1/../../../../pic32c/lib/thumb/v8-m.base/nofp/libg-musl.a(__towrite.o)
 .debug_info    0x0006a83e      0x709 /Applications/microchip/xc32/v4.10/bin/bin/../../lib/gcc/pic32c/8.3.1/../../../../pic32c/lib/thumb/v8-m.base/nofp/libg-musl.a(vsnprintf.o)
 .debug_info    0x0006af47      0x814 /Applications/microchip/xc32/v4.10/bin/bin/../../lib/gcc/pic32c/8.3.1/../../../../pic32c/lib/thumb/v8-m.base/nofp/libg-musl.a(strtod.o)
 .debug_info    0x0006b75b      0x2e1 /Applications/microchip/xc32/v4.10/bin/bin/../../lib/gcc/pic32c/8.3.1/../../../../pic32c/lib/thumb/v8-m.base/nofp/libg-musl.a(__month_to_secs.o)
 .debug_info    0x0006ba3c      0x532 /Applications/microchip/xc32/v4.10/bin/bin/../../lib/gcc/pic32c/8.3.1/../../../../pic32c/lib/thumb/v8-m.base/nofp/libg-musl.a(__secs_to_tm.o)
 .debug_info    0x0006bf6e      0x371 /Applications/microchip/xc32/v4.10/bin/bin/../../lib/gcc/pic32c/8.3.1/../../../../pic32c/lib/thumb/v8-m.base/nofp/libg-musl.a(writev.o)
 .debug_info    0x0006c2df     0x10cf /Applications/microchip/xc32/v4.10/bin/bin/../../lib/gcc/pic32c/8.3.1/../../../../pic32c/lib/thumb/v8-m.base/nofp/libg-musl.a(floatscan.o)
 .debug_info    0x0006d3ae      0x62f /Applications/microchip/xc32/v4.10/bin/bin/../../lib/gcc/pic32c/8.3.1/../../../../pic32c/lib/thumb/v8-m.base/nofp/libg-musl.a(__overflow.o)
 .debug_info    0x0006d9dd      0x637 /Applications/microchip/xc32/v4.10/bin/bin/../../lib/gcc/pic32c/8.3.1/../../../../pic32c/lib/thumb/v8-m.base/nofp/libg-musl.a(__toread.o)
 .debug_info    0x0006e014      0x435 /Applications/microchip/xc32/v4.10/bin/bin/../../lib/gcc/pic32c/8.3.1/../../../../pic32c/lib/thumb/v8-m.base/nofp/libg-musl.a(__fclose.o)
 .debug_info    0x0006e449      0x5b2 /Applications/microchip/xc32/v4.10/bin/bin/../../lib/gcc/pic32c/8.3.1/../../../../pic32c/lib/thumb/v8-m.base/nofp/libg-musl.a(__fwrite.o)
 .debug_info    0x0006e9fb      0x3e7 /Applications/microchip/xc32/v4.10/bin/bin/../../lib/gcc/pic32c/8.3.1/../../../../pic32c/lib/thumb/v8-m.base/nofp/libg-musl.a(__push_float.o)
 .debug_info    0x0006ede2      0x419 /Applications/microchip/xc32/v4.10/bin/bin/../../lib/gcc/pic32c/8.3.1/../../../../pic32c/lib/thumb/v8-m.base/nofp/libg-musl.a(__push_int.o)
 .debug_info    0x0006f1fb      0x6d2 /Applications/microchip/xc32/v4.10/bin/bin/../../lib/gcc/pic32c/8.3.1/../../../../pic32c/lib/thumb/v8-m.base/nofp/libg-musl.a(vfprintf.o)
 .debug_info    0x0006f8cd      0x8ce /Applications/microchip/xc32/v4.10/bin/bin/../../lib/gcc/pic32c/8.3.1/../../../../pic32c/lib/thumb/v8-m.base/nofp/libg-musl.a(__fmt_a.o)
 .debug_info    0x0007019b      0x342 /Applications/microchip/xc32/v4.10/bin/bin/../../lib/gcc/pic32c/8.3.1/../../../../pic32c/lib/thumb/v8-m.base/nofp/libc-musl.a(fprintf.o)
 .debug_info    0x000704dd      0x344 /Applications/microchip/xc32/v4.10/bin/bin/../../lib/gcc/pic32c/8.3.1/../../../../pic32c/lib/thumb/v8-m.base/nofp/libc-musl.a(printf.o)
 .debug_info    0x00070821       0x26 /Applications/microchip/xc32/v4.10/bin/bin/../../lib/gcc/pic32c/8.3.1/thumb/v8-m.base/nofp/libgcc.a(_thumb1_case_uhi.o)
 .debug_info    0x00070847       0x26 /Applications/microchip/xc32/v4.10/bin/bin/../../lib/gcc/pic32c/8.3.1/thumb/v8-m.base/nofp/libgcc.a(_lshrdi3.o)
 .debug_info    0x0007086d       0x26 /Applications/microchip/xc32/v4.10/bin/bin/../../lib/gcc/pic32c/8.3.1/thumb/v8-m.base/nofp/libgcc.a(_ashldi3.o)
 .debug_info    0x00070893       0x26 /Applications/microchip/xc32/v4.10/bin/bin/../../lib/gcc/pic32c/8.3.1/thumb/v8-m.base/nofp/libgcc.a(_aeabi_ldivmod.o)
 .debug_info    0x000708b9       0x26 /Applications/microchip/xc32/v4.10/bin/bin/../../lib/gcc/pic32c/8.3.1/thumb/v8-m.base/nofp/libgcc.a(_aeabi_uldivmod.o)
 .debug_info    0x000708df      0x4e9 /Applications/microchip/xc32/v4.10/bin/bin/../../lib/gcc/pic32c/8.3.1/thumb/v8-m.base/nofp/libgcc.a(_muldi3.o)
 .debug_info    0x00070dc8      0x8e8 /Applications/microchip/xc32/v4.10/bin/bin/../../lib/gcc/pic32c/8.3.1/thumb/v8-m.base/nofp/libgcc.a(_udivmoddi4.o)
 .debug_info    0x000716b0      0x31b /Applications/microchip/xc32/v4.10/bin/bin/../../lib/gcc/pic32c/8.3.1/thumb/v8-m.base/nofp/libgcc.a(bpabi.o)
 .debug_info    0x000719cb       0x26 /Applications/microchip/xc32/v4.10/bin/bin/../../lib/gcc/pic32c/8.3.1/thumb/v8-m.base/nofp/libgcc.a(_dvmd_tls.o)
 .debug_info    0x000719f1       0x26 /Applications/microchip/xc32/v4.10/bin/bin/../../lib/gcc/pic32c/8.3.1/thumb/v8-m.base/nofp/libgcc.a(_clzsi2.o)
 .debug_info    0x00071a17      0xa7e /Applications/microchip/xc32/v4.10/bin/bin/../../lib/gcc/pic32c/8.3.1/thumb/v8-m.base/nofp/libgcc.a(_divdi3.o)
 .debug_info    0x00072495      0x295 /Applications/microchip/xc32/v4.10/bin/bin/../../lib/gcc/pic32c/8.3.1/../../../../pic32c/lib/thumb/v8-m.base/nofp/libpic32c.a(close.o)
 .debug_info    0x0007272a      0x295 /Applications/microchip/xc32/v4.10/bin/bin/../../lib/gcc/pic32c/8.3.1/../../../../pic32c/lib/thumb/v8-m.base/nofp/libpic32c.a(lseek.o)
 .debug_info    0x000729bf      0x294 /Applications/microchip/xc32/v4.10/bin/bin/../../lib/gcc/pic32c/8.3.1/../../../../pic32c/lib/thumb/v8-m.base/nofp/libpic32c.a(sbrk.o)

.debug_abbrev   0x00000000     0xc746
 .debug_abbrev  0x00000000      0x5f2 build/default/debug/_ext/1360937237/azure_iot_pnp_pic32cmls60-curiosity.o
 .debug_abbrev  0x000005f2      0x676 build/default/debug/_ext/1360937237/main.o
 .debug_abbrev  0x00000c68      0x1ea build/default/debug/_ext/1360937237/pic32cmls60-curiosity-buttons.o
 .debug_abbrev  0x00000e52      0x13d build/default/debug/_ext/1360937237/pic32cmls60-curiosity-led.o
 .debug_abbrev  0x00000f8f      0x37e build/default/debug/_ext/1360937237/pic32cmls60-curiosity-commands.o
 .debug_abbrev  0x0000130d      0x4a5 build/default/debug/_ext/1414040249/az_json_reader.o
 .debug_abbrev  0x000017b2      0x37d build/default/debug/_ext/1414040249/az_json_token.o
 .debug_abbrev  0x00001b2f      0x4e6 build/default/debug/_ext/1414040249/az_json_writer.o
 .debug_abbrev  0x00002015      0x24c build/default/debug/_ext/1414040249/az_log.o
 .debug_abbrev  0x00002261       0xe9 build/default/debug/_ext/1414040249/az_precondition.o
 .debug_abbrev  0x0000234a      0x4a7 build/default/debug/_ext/1414040249/az_span.o
 .debug_abbrev  0x000027f1      0x28b build/default/debug/_ext/1292534426/az_iot_common.o
 .debug_abbrev  0x00002a7c      0x24e build/default/debug/_ext/1292534426/az_iot_hub_client.o
 .debug_abbrev  0x00002cca      0x253 build/default/debug/_ext/1292534426/az_iot_hub_client_commands.o
 .debug_abbrev  0x00002f1d      0x23d build/default/debug/_ext/1292534426/az_iot_hub_client_methods.o
 .debug_abbrev  0x0000315a      0x401 build/default/debug/_ext/1292534426/az_iot_hub_client_properties.o
 .debug_abbrev  0x0000355b      0x1b8 build/default/debug/_ext/1292534426/az_iot_hub_client_telemetry.o
 .debug_abbrev  0x00003713      0x2b9 build/default/debug/_ext/1292534426/az_iot_hub_client_twin.o
 .debug_abbrev  0x000039cc      0x4b9 build/default/debug/_ext/1292534426/az_iot_provisioning_client.o
 .debug_abbrev  0x00003e85       0xa8 build/default/debug/_ext/1434821282/bsp.o
 .debug_abbrev  0x00003f2d      0x17b build/default/debug/_ext/60163342/plib_adc.o
 .debug_abbrev  0x000040a8      0x1ca build/default/debug/_ext/60167341/plib_eic.o
 .debug_abbrev  0x00004272      0x1ec build/default/debug/_ext/1865468468/plib_nvic.o
 .debug_abbrev  0x0000445e      0x29c build/default/debug/_ext/504274921/plib_sercom3_usart.o
 .debug_abbrev  0x000046fa      0x478 build/default/debug/_ext/504274921/plib_sercom2_usart.o
 .debug_abbrev  0x00004b72      0x108 build/default/debug/_ext/1827571544/plib_systick.o
 .debug_abbrev  0x00004c7a       0xd7 build/default/debug/_ext/163028504/xc32_monitor.o
 .debug_abbrev  0x00004d51      0x113 build/default/debug/_ext/1171490990/initialization.o
 .debug_abbrev  0x00004e64       0xb5 build/default/debug/_ext/1171490990/interrupts.o
 .debug_abbrev  0x00004f19       0x3e build/default/debug/_ext/1171490990/exceptions.o
 .debug_abbrev  0x00004f57      0x110 build/default/debug/_ext/1171490990/startup_xc32.o
 .debug_abbrev  0x00005067       0x4f build/default/debug/_ext/1171490990/libc_syscalls.o
 .debug_abbrev  0x000050b6       0x2e /Applications/microchip/xc32/v4.10/bin/bin/../../lib/gcc/pic32c/8.3.1/../../../../pic32c/lib/thumb/v8-m.base/nofp/libpic32c.a(data_init.o)
 .debug_abbrev  0x000050e4       0xe9 /Applications/microchip/xc32/v4.10/bin/bin/../../lib/gcc/pic32c/8.3.1/../../../../pic32c/lib/thumb/v8-m.base/nofp/libg-musl.a(isxdigit.o)
 .debug_abbrev  0x000051cd      0x117 /Applications/microchip/xc32/v4.10/bin/bin/../../lib/gcc/pic32c/8.3.1/../../../../pic32c/lib/thumb/v8-m.base/nofp/libg-musl.a(__libc_start_main.o)
 .debug_abbrev  0x000052e4      0x105 /Applications/microchip/xc32/v4.10/bin/bin/../../lib/gcc/pic32c/8.3.1/../../../../pic32c/lib/thumb/v8-m.base/nofp/libg-musl.a(exit.o)
 .debug_abbrev  0x000053e9       0xb8 /Applications/microchip/xc32/v4.10/bin/bin/../../lib/gcc/pic32c/8.3.1/../../../../pic32c/lib/thumb/v8-m.base/nofp/libg-musl.a(libc.o)
 .debug_abbrev  0x000054a1      0x3fa /Applications/microchip/xc32/v4.10/bin/bin/../../lib/gcc/pic32c/8.3.1/../../../../pic32c/lib/thumb/v8-m.base/nofp/libg-musl.a(malloc.o)
 .debug_abbrev  0x0000589b       0xa5 /Applications/microchip/xc32/v4.10/bin/bin/../../lib/gcc/pic32c/8.3.1/../../../../pic32c/lib/thumb/v8-m.base/nofp/libg-musl.a(expand_heap.o)
 .debug_abbrev  0x00005940      0x120 /Applications/microchip/xc32/v4.10/bin/bin/../../lib/gcc/pic32c/8.3.1/../../../../pic32c/lib/thumb/v8-m.base/nofp/libg-musl.a(__fmt_d.o)
 .debug_abbrev  0x00005a60      0x1a2 /Applications/microchip/xc32/v4.10/bin/bin/../../lib/gcc/pic32c/8.3.1/../../../../pic32c/lib/thumb/v8-m.base/nofp/libg-musl.a(__fmt_fp.o)
 .debug_abbrev  0x00005c02      0x120 /Applications/microchip/xc32/v4.10/bin/bin/../../lib/gcc/pic32c/8.3.1/../../../../pic32c/lib/thumb/v8-m.base/nofp/libg-musl.a(__fmt_o.o)
 .debug_abbrev  0x00005d22      0x11d /Applications/microchip/xc32/v4.10/bin/bin/../../lib/gcc/pic32c/8.3.1/../../../../pic32c/lib/thumb/v8-m.base/nofp/libg-musl.a(__fmt_s.o)
 .debug_abbrev  0x00005e3f      0x174 /Applications/microchip/xc32/v4.10/bin/bin/../../lib/gcc/pic32c/8.3.1/../../../../pic32c/lib/thumb/v8-m.base/nofp/libg-musl.a(__fmt_u.o)
 .debug_abbrev  0x00005fb3      0x10f /Applications/microchip/xc32/v4.10/bin/bin/../../lib/gcc/pic32c/8.3.1/../../../../pic32c/lib/thumb/v8-m.base/nofp/libg-musl.a(__fmt_x.o)
 .debug_abbrev  0x000060c2      0x2be /Applications/microchip/xc32/v4.10/bin/bin/../../lib/gcc/pic32c/8.3.1/../../../../pic32c/lib/thumb/v8-m.base/nofp/libg-musl.a(__printf_core.o)
 .debug_abbrev  0x00006380      0x1b3 /Applications/microchip/xc32/v4.10/bin/bin/../../lib/gcc/pic32c/8.3.1/../../../../pic32c/lib/thumb/v8-m.base/nofp/libg-musl.a(fflush.o)
 .debug_abbrev  0x00006533      0x10c /Applications/microchip/xc32/v4.10/bin/bin/../../lib/gcc/pic32c/8.3.1/../../../../pic32c/lib/thumb/v8-m.base/nofp/libg-musl.a(fwrite.o)
 .debug_abbrev  0x0000663f      0x106 /Applications/microchip/xc32/v4.10/bin/bin/../../lib/gcc/pic32c/8.3.1/../../../../pic32c/lib/thumb/v8-m.base/nofp/libg-musl.a(putc.o)
 .debug_abbrev  0x00006745       0xfb /Applications/microchip/xc32/v4.10/bin/bin/../../lib/gcc/pic32c/8.3.1/../../../../pic32c/lib/thumb/v8-m.base/nofp/libg-musl.a(sscanf.o)
 .debug_abbrev  0x00006840      0x175 /Applications/microchip/xc32/v4.10/bin/bin/../../lib/gcc/pic32c/8.3.1/../../../../pic32c/lib/thumb/v8-m.base/nofp/libg-musl.a(stdin.o)
 .debug_abbrev  0x000069b5      0x118 /Applications/microchip/xc32/v4.10/bin/bin/../../lib/gcc/pic32c/8.3.1/../../../../pic32c/lib/thumb/v8-m.base/nofp/libg-musl.a(stdout.o)
 .debug_abbrev  0x00006acd      0x185 /Applications/microchip/xc32/v4.10/bin/bin/../../lib/gcc/pic32c/8.3.1/../../../../pic32c/lib/thumb/v8-m.base/nofp/libg-musl.a(vsscanf.o)
 .debug_abbrev  0x00006c52      0x151 /Applications/microchip/xc32/v4.10/bin/bin/../../lib/gcc/pic32c/8.3.1/../../../../pic32c/lib/thumb/v8-m.base/nofp/libg-musl.a(puts.o)
 .debug_abbrev  0x00006da3       0x9d /Applications/microchip/xc32/v4.10/bin/bin/../../lib/gcc/pic32c/8.3.1/../../../../pic32c/lib/thumb/v8-m.base/nofp/libg-musl.a(setbuf.o)
 .debug_abbrev  0x00006e40       0xbb /Applications/microchip/xc32/v4.10/bin/bin/../../lib/gcc/pic32c/8.3.1/../../../../pic32c/lib/thumb/v8-m.base/nofp/libg-musl.a(atoi.o)
 .debug_abbrev  0x00006efb       0x80 /Applications/microchip/xc32/v4.10/bin/bin/../../lib/gcc/pic32c/8.3.1/../../../../pic32c/lib/thumb/v8-m.base/nofp/libg-musl.a(div.o)
 .debug_abbrev  0x00006f7b       0x8b /Applications/microchip/xc32/v4.10/bin/bin/../../lib/gcc/pic32c/8.3.1/../../../../pic32c/lib/thumb/v8-m.base/nofp/libg-musl.a(memcmp.o)
 .debug_abbrev  0x00007006       0x9c /Applications/microchip/xc32/v4.10/bin/bin/../../lib/gcc/pic32c/8.3.1/../../../../pic32c/lib/thumb/v8-m.base/nofp/libg-musl.a(memcpy.o)
 .debug_abbrev  0x000070a2       0xa3 /Applications/microchip/xc32/v4.10/bin/bin/../../lib/gcc/pic32c/8.3.1/../../../../pic32c/lib/thumb/v8-m.base/nofp/libg-musl.a(memmove.o)
 .debug_abbrev  0x00007145       0x97 /Applications/microchip/xc32/v4.10/bin/bin/../../lib/gcc/pic32c/8.3.1/../../../../pic32c/lib/thumb/v8-m.base/nofp/libg-musl.a(memset.o)
 .debug_abbrev  0x000071dc       0x86 /Applications/microchip/xc32/v4.10/bin/bin/../../lib/gcc/pic32c/8.3.1/../../../../pic32c/lib/thumb/v8-m.base/nofp/libg-musl.a(strlen.o)
 .debug_abbrev  0x00007262       0x8e /Applications/microchip/xc32/v4.10/bin/bin/../../lib/gcc/pic32c/8.3.1/../../../../pic32c/lib/thumb/v8-m.base/nofp/libg-musl.a(strcpy.o)
 .debug_abbrev  0x000072f0       0xbe /Applications/microchip/xc32/v4.10/bin/bin/../../lib/gcc/pic32c/8.3.1/../../../../pic32c/lib/thumb/v8-m.base/nofp/libg-musl.a(strlcat.o)
 .debug_abbrev  0x000073ae       0xb4 /Applications/microchip/xc32/v4.10/bin/bin/../../lib/gcc/pic32c/8.3.1/../../../../pic32c/lib/thumb/v8-m.base/nofp/libg-musl.a(strlcpy.o)
 .debug_abbrev  0x00007462       0xb1 /Applications/microchip/xc32/v4.10/bin/bin/../../lib/gcc/pic32c/8.3.1/../../../../pic32c/lib/thumb/v8-m.base/nofp/libg-musl.a(strnlen.o)
 .debug_abbrev  0x00007513       0xd0 /Applications/microchip/xc32/v4.10/bin/bin/../../lib/gcc/pic32c/8.3.1/../../../../pic32c/lib/thumb/v8-m.base/nofp/libg-musl.a(localtime.o)
 .debug_abbrev  0x000075e3      0x279 /Applications/microchip/xc32/v4.10/bin/bin/../../lib/gcc/pic32c/8.3.1/../../../../pic32c/lib/thumb/v8-m.base/nofp/libg-musl.a(strftime.o)
 .debug_abbrev  0x0000785c       0xc9 /Applications/microchip/xc32/v4.10/bin/bin/../../lib/gcc/pic32c/8.3.1/../../../../pic32c/lib/thumb/v8-m.base/nofp/libg-musl.a(time.o)
 .debug_abbrev  0x00007925       0xe9 /Applications/microchip/xc32/v4.10/bin/bin/../../lib/gcc/pic32c/8.3.1/../../../../pic32c/lib/thumb/v8-m.base/nofp/libg-musl.a(tolower.o)
 .debug_abbrev  0x00007a0e       0xe9 /Applications/microchip/xc32/v4.10/bin/bin/../../lib/gcc/pic32c/8.3.1/../../../../pic32c/lib/thumb/v8-m.base/nofp/libg-musl.a(toupper.o)
 .debug_abbrev  0x00007af7       0x57 /Applications/microchip/xc32/v4.10/bin/bin/../../lib/gcc/pic32c/8.3.1/../../../../pic32c/lib/thumb/v8-m.base/nofp/libg-musl.a(__environ.o)
 .debug_abbrev  0x00007b4e       0x2e /Applications/microchip/xc32/v4.10/bin/bin/../../lib/gcc/pic32c/8.3.1/../../../../pic32c/lib/thumb/v8-m.base/nofp/libg-musl.a(__errno_location.o)
 .debug_abbrev  0x00007b7c       0x7f /Applications/microchip/xc32/v4.10/bin/bin/../../lib/gcc/pic32c/8.3.1/../../../../pic32c/lib/thumb/v8-m.base/nofp/libg-musl.a(_Exit.o)
 .debug_abbrev  0x00007bfb      0x119 /Applications/microchip/xc32/v4.10/bin/bin/../../lib/gcc/pic32c/8.3.1/../../../../pic32c/lib/thumb/v8-m.base/nofp/libg-musl.a(langinfo.o)
 .debug_abbrev  0x00007d14       0xab /Applications/microchip/xc32/v4.10/bin/bin/../../lib/gcc/pic32c/8.3.1/../../../../pic32c/lib/thumb/v8-m.base/nofp/libg-musl.a(c_locale.o)
 .debug_abbrev  0x00007dbf      0x12a /Applications/microchip/xc32/v4.10/bin/bin/../../lib/gcc/pic32c/8.3.1/../../../../pic32c/lib/thumb/v8-m.base/nofp/libg-musl.a(__string_read.o)
 .debug_abbrev  0x00007ee9      0x12a /Applications/microchip/xc32/v4.10/bin/bin/../../lib/gcc/pic32c/8.3.1/../../../../pic32c/lib/thumb/v8-m.base/nofp/libg-musl.a(fputs.o)
 .debug_abbrev  0x00008013      0x15b /Applications/microchip/xc32/v4.10/bin/bin/../../lib/gcc/pic32c/8.3.1/../../../../pic32c/lib/thumb/v8-m.base/nofp/libg-musl.a(__out.o)
 .debug_abbrev  0x0000816e       0xbd /Applications/microchip/xc32/v4.10/bin/bin/../../lib/gcc/pic32c/8.3.1/../../../../pic32c/lib/thumb/v8-m.base/nofp/libg-musl.a(__pop_float.o)
 .debug_abbrev  0x0000822b       0xbd /Applications/microchip/xc32/v4.10/bin/bin/../../lib/gcc/pic32c/8.3.1/../../../../pic32c/lib/thumb/v8-m.base/nofp/libg-musl.a(__pop_int.o)
 .debug_abbrev  0x000082e8       0xbd /Applications/microchip/xc32/v4.10/bin/bin/../../lib/gcc/pic32c/8.3.1/../../../../pic32c/lib/thumb/v8-m.base/nofp/libg-musl.a(__pop_ptr.o)
 .debug_abbrev  0x000083a5      0x150 /Applications/microchip/xc32/v4.10/bin/bin/../../lib/gcc/pic32c/8.3.1/../../../../pic32c/lib/thumb/v8-m.base/nofp/libg-musl.a(__stdio_read.o)
 .debug_abbrev  0x000084f5       0xdc /Applications/microchip/xc32/v4.10/bin/bin/../../lib/gcc/pic32c/8.3.1/../../../../pic32c/lib/thumb/v8-m.base/nofp/libg-musl.a(__towrite_rw.o)
 .debug_abbrev  0x000085d1      0x119 /Applications/microchip/xc32/v4.10/bin/bin/../../lib/gcc/pic32c/8.3.1/../../../../pic32c/lib/thumb/v8-m.base/nofp/libg-musl.a(setvbuf.o)
 .debug_abbrev  0x000086ea      0x16f /Applications/microchip/xc32/v4.10/bin/bin/../../lib/gcc/pic32c/8.3.1/../../../../pic32c/lib/thumb/v8-m.base/nofp/libg-musl.a(vfscanf.o)
 .debug_abbrev  0x00008859       0xfb /Applications/microchip/xc32/v4.10/bin/bin/../../lib/gcc/pic32c/8.3.1/../../../../pic32c/lib/thumb/v8-m.base/nofp/libg-musl.a(snprintf.o)
 .debug_abbrev  0x00008954       0x53 /Applications/microchip/xc32/v4.10/bin/bin/../../lib/gcc/pic32c/8.3.1/../../../../pic32c/lib/thumb/v8-m.base/nofp/libg-musl.a(abs.o)
 .debug_abbrev  0x000089a7      0x19b /Applications/microchip/xc32/v4.10/bin/bin/../../lib/gcc/pic32c/8.3.1/../../../../pic32c/lib/thumb/v8-m.base/nofp/libg-musl.a(strtol.o)
 .debug_abbrev  0x00008b42       0x92 /Applications/microchip/xc32/v4.10/bin/bin/../../lib/gcc/pic32c/8.3.1/../../../../pic32c/lib/thumb/v8-m.base/nofp/libg-musl.a(memchr.o)
 .debug_abbrev  0x00008bd4       0x63 /Applications/microchip/xc32/v4.10/bin/bin/../../lib/gcc/pic32c/8.3.1/../../../../pic32c/lib/thumb/v8-m.base/nofp/libg-musl.a(stpcpy.o)
 .debug_abbrev  0x00008c37       0xed /Applications/microchip/xc32/v4.10/bin/bin/../../lib/gcc/pic32c/8.3.1/../../../../pic32c/lib/thumb/v8-m.base/nofp/libg-musl.a(__tm_to_secs.o)
 .debug_abbrev  0x00008d24       0x77 /Applications/microchip/xc32/v4.10/bin/bin/../../lib/gcc/pic32c/8.3.1/../../../../pic32c/lib/thumb/v8-m.base/nofp/libg-musl.a(__year_to_secs.o)
 .debug_abbrev  0x00008d9b      0x289 /Applications/microchip/xc32/v4.10/bin/bin/../../lib/gcc/pic32c/8.3.1/../../../../pic32c/lib/thumb/v8-m.base/nofp/libg-musl.a(__tz.o)
 .debug_abbrev  0x00009024      0x140 /Applications/microchip/xc32/v4.10/bin/bin/../../lib/gcc/pic32c/8.3.1/../../../../pic32c/lib/thumb/v8-m.base/nofp/libg-musl.a(clock_gettime.o)
 .debug_abbrev  0x00009164       0xa3 /Applications/microchip/xc32/v4.10/bin/bin/../../lib/gcc/pic32c/8.3.1/../../../../pic32c/lib/thumb/v8-m.base/nofp/libg-musl.a(gettimeofday.o)
 .debug_abbrev  0x00009207       0xd2 /Applications/microchip/xc32/v4.10/bin/bin/../../lib/gcc/pic32c/8.3.1/../../../../pic32c/lib/thumb/v8-m.base/nofp/libg-musl.a(gmtime_r.o)
 .debug_abbrev  0x000092d9       0xd8 /Applications/microchip/xc32/v4.10/bin/bin/../../lib/gcc/pic32c/8.3.1/../../../../pic32c/lib/thumb/v8-m.base/nofp/libg-musl.a(readv.o)
 .debug_abbrev  0x000093b1      0x1de /Applications/microchip/xc32/v4.10/bin/bin/../../lib/gcc/pic32c/8.3.1/../../../../pic32c/lib/thumb/v8-m.base/nofp/libg-musl.a(intscan.o)
 .debug_abbrev  0x0000958f       0x66 /Applications/microchip/xc32/v4.10/bin/bin/../../lib/gcc/pic32c/8.3.1/../../../../pic32c/lib/thumb/v8-m.base/nofp/libg-musl.a(syscall_ret.o)
 .debug_abbrev  0x000095f5      0x14a /Applications/microchip/xc32/v4.10/bin/bin/../../lib/gcc/pic32c/8.3.1/../../../../pic32c/lib/thumb/v8-m.base/nofp/libg-musl.a(shgetc.o)
 .debug_abbrev  0x0000973f      0x125 /Applications/microchip/xc32/v4.10/bin/bin/../../lib/gcc/pic32c/8.3.1/../../../../pic32c/lib/thumb/v8-m.base/nofp/libg-musl.a(__uflow.o)
 .debug_abbrev  0x00009864       0x5a /Applications/microchip/xc32/v4.10/bin/bin/../../lib/gcc/pic32c/8.3.1/../../../../pic32c/lib/thumb/v8-m.base/nofp/libg-musl.a(__init_stdio.o)
 .debug_abbrev  0x000098be       0xed /Applications/microchip/xc32/v4.10/bin/bin/../../lib/gcc/pic32c/8.3.1/../../../../pic32c/lib/thumb/v8-m.base/nofp/libg-musl.a(__putc.o)
 .debug_abbrev  0x000099ab      0x194 /Applications/microchip/xc32/v4.10/bin/bin/../../lib/gcc/pic32c/8.3.1/../../../../pic32c/lib/thumb/v8-m.base/nofp/libg-musl.a(__scan_d.o)
 .debug_abbrev  0x00009b3f      0x1eb /Applications/microchip/xc32/v4.10/bin/bin/../../lib/gcc/pic32c/8.3.1/../../../../pic32c/lib/thumb/v8-m.base/nofp/libg-musl.a(__scan_fp.o)
 .debug_abbrev  0x00009d2a      0x1a7 /Applications/microchip/xc32/v4.10/bin/bin/../../lib/gcc/pic32c/8.3.1/../../../../pic32c/lib/thumb/v8-m.base/nofp/libg-musl.a(__scan_i.o)
 .debug_abbrev  0x00009ed1      0x15b /Applications/microchip/xc32/v4.10/bin/bin/../../lib/gcc/pic32c/8.3.1/../../../../pic32c/lib/thumb/v8-m.base/nofp/libg-musl.a(__scan_o.o)
 .debug_abbrev  0x0000a02c      0x183 /Applications/microchip/xc32/v4.10/bin/bin/../../lib/gcc/pic32c/8.3.1/../../../../pic32c/lib/thumb/v8-m.base/nofp/libg-musl.a(__scan_s.o)
 .debug_abbrev  0x0000a1af      0x120 /Applications/microchip/xc32/v4.10/bin/bin/../../lib/gcc/pic32c/8.3.1/../../../../pic32c/lib/thumb/v8-m.base/nofp/libg-musl.a(__scan_u.o)
 .debug_abbrev  0x0000a2cf      0x17a /Applications/microchip/xc32/v4.10/bin/bin/../../lib/gcc/pic32c/8.3.1/../../../../pic32c/lib/thumb/v8-m.base/nofp/libg-musl.a(__scan_x.o)
 .debug_abbrev  0x0000a449      0x322 /Applications/microchip/xc32/v4.10/bin/bin/../../lib/gcc/pic32c/8.3.1/../../../../pic32c/lib/thumb/v8-m.base/nofp/libg-musl.a(__scanf_core.o)
 .debug_abbrev  0x0000a76b      0x151 /Applications/microchip/xc32/v4.10/bin/bin/../../lib/gcc/pic32c/8.3.1/../../../../pic32c/lib/thumb/v8-m.base/nofp/libg-musl.a(__stderr.o)
 .debug_abbrev  0x0000a8bc      0x11f /Applications/microchip/xc32/v4.10/bin/bin/../../lib/gcc/pic32c/8.3.1/../../../../pic32c/lib/thumb/v8-m.base/nofp/libg-musl.a(__stdio_close.o)
 .debug_abbrev  0x0000a9db      0x157 /Applications/microchip/xc32/v4.10/bin/bin/../../lib/gcc/pic32c/8.3.1/../../../../pic32c/lib/thumb/v8-m.base/nofp/libg-musl.a(__stdio_exit.o)
 .debug_abbrev  0x0000ab32      0x1a1 /Applications/microchip/xc32/v4.10/bin/bin/../../lib/gcc/pic32c/8.3.1/../../../../pic32c/lib/thumb/v8-m.base/nofp/libg-musl.a(__stdio_write.o)
 .debug_abbrev  0x0000acd3      0x151 /Applications/microchip/xc32/v4.10/bin/bin/../../lib/gcc/pic32c/8.3.1/../../../../pic32c/lib/thumb/v8-m.base/nofp/libg-musl.a(__stdout.o)
 .debug_abbrev  0x0000ae24       0xf8 /Applications/microchip/xc32/v4.10/bin/bin/../../lib/gcc/pic32c/8.3.1/../../../../pic32c/lib/thumb/v8-m.base/nofp/libg-musl.a(__towrite.o)
 .debug_abbrev  0x0000af1c      0x168 /Applications/microchip/xc32/v4.10/bin/bin/../../lib/gcc/pic32c/8.3.1/../../../../pic32c/lib/thumb/v8-m.base/nofp/libg-musl.a(vsnprintf.o)
 .debug_abbrev  0x0000b084      0x19b /Applications/microchip/xc32/v4.10/bin/bin/../../lib/gcc/pic32c/8.3.1/../../../../pic32c/lib/thumb/v8-m.base/nofp/libg-musl.a(strtod.o)
 .debug_abbrev  0x0000b21f       0xa2 /Applications/microchip/xc32/v4.10/bin/bin/../../lib/gcc/pic32c/8.3.1/../../../../pic32c/lib/thumb/v8-m.base/nofp/libg-musl.a(__month_to_secs.o)
 .debug_abbrev  0x0000b2c1       0xbc /Applications/microchip/xc32/v4.10/bin/bin/../../lib/gcc/pic32c/8.3.1/../../../../pic32c/lib/thumb/v8-m.base/nofp/libg-musl.a(__secs_to_tm.o)
 .debug_abbrev  0x0000b37d       0xd8 /Applications/microchip/xc32/v4.10/bin/bin/../../lib/gcc/pic32c/8.3.1/../../../../pic32c/lib/thumb/v8-m.base/nofp/libg-musl.a(writev.o)
 .debug_abbrev  0x0000b455      0x29d /Applications/microchip/xc32/v4.10/bin/bin/../../lib/gcc/pic32c/8.3.1/../../../../pic32c/lib/thumb/v8-m.base/nofp/libg-musl.a(floatscan.o)
 .debug_abbrev  0x0000b6f2      0x125 /Applications/microchip/xc32/v4.10/bin/bin/../../lib/gcc/pic32c/8.3.1/../../../../pic32c/lib/thumb/v8-m.base/nofp/libg-musl.a(__overflow.o)
 .debug_abbrev  0x0000b817      0x12c /Applications/microchip/xc32/v4.10/bin/bin/../../lib/gcc/pic32c/8.3.1/../../../../pic32c/lib/thumb/v8-m.base/nofp/libg-musl.a(__toread.o)
 .debug_abbrev  0x0000b943       0xc1 /Applications/microchip/xc32/v4.10/bin/bin/../../lib/gcc/pic32c/8.3.1/../../../../pic32c/lib/thumb/v8-m.base/nofp/libg-musl.a(__fclose.o)
 .debug_abbrev  0x0000ba04      0x14c /Applications/microchip/xc32/v4.10/bin/bin/../../lib/gcc/pic32c/8.3.1/../../../../pic32c/lib/thumb/v8-m.base/nofp/libg-musl.a(__fwrite.o)
 .debug_abbrev  0x0000bb50       0xbd /Applications/microchip/xc32/v4.10/bin/bin/../../lib/gcc/pic32c/8.3.1/../../../../pic32c/lib/thumb/v8-m.base/nofp/libg-musl.a(__push_float.o)
 .debug_abbrev  0x0000bc0d       0xbd /Applications/microchip/xc32/v4.10/bin/bin/../../lib/gcc/pic32c/8.3.1/../../../../pic32c/lib/thumb/v8-m.base/nofp/libg-musl.a(__push_int.o)
 .debug_abbrev  0x0000bcca      0x16f /Applications/microchip/xc32/v4.10/bin/bin/../../lib/gcc/pic32c/8.3.1/../../../../pic32c/lib/thumb/v8-m.base/nofp/libg-musl.a(vfprintf.o)
 .debug_abbrev  0x0000be39      0x194 /Applications/microchip/xc32/v4.10/bin/bin/../../lib/gcc/pic32c/8.3.1/../../../../pic32c/lib/thumb/v8-m.base/nofp/libg-musl.a(__fmt_a.o)
 .debug_abbrev  0x0000bfcd      0x113 /Applications/microchip/xc32/v4.10/bin/bin/../../lib/gcc/pic32c/8.3.1/../../../../pic32c/lib/thumb/v8-m.base/nofp/libc-musl.a(fprintf.o)
 .debug_abbrev  0x0000c0e0      0x112 /Applications/microchip/xc32/v4.10/bin/bin/../../lib/gcc/pic32c/8.3.1/../../../../pic32c/lib/thumb/v8-m.base/nofp/libc-musl.a(printf.o)
 .debug_abbrev  0x0000c1f2       0x14 /Applications/microchip/xc32/v4.10/bin/bin/../../lib/gcc/pic32c/8.3.1/thumb/v8-m.base/nofp/libgcc.a(_thumb1_case_uhi.o)
 .debug_abbrev  0x0000c206       0x14 /Applications/microchip/xc32/v4.10/bin/bin/../../lib/gcc/pic32c/8.3.1/thumb/v8-m.base/nofp/libgcc.a(_lshrdi3.o)
 .debug_abbrev  0x0000c21a       0x14 /Applications/microchip/xc32/v4.10/bin/bin/../../lib/gcc/pic32c/8.3.1/thumb/v8-m.base/nofp/libgcc.a(_ashldi3.o)
 .debug_abbrev  0x0000c22e       0x14 /Applications/microchip/xc32/v4.10/bin/bin/../../lib/gcc/pic32c/8.3.1/thumb/v8-m.base/nofp/libgcc.a(_aeabi_ldivmod.o)
 .debug_abbrev  0x0000c242       0x14 /Applications/microchip/xc32/v4.10/bin/bin/../../lib/gcc/pic32c/8.3.1/thumb/v8-m.base/nofp/libgcc.a(_aeabi_uldivmod.o)
 .debug_abbrev  0x0000c256       0xef /Applications/microchip/xc32/v4.10/bin/bin/../../lib/gcc/pic32c/8.3.1/thumb/v8-m.base/nofp/libgcc.a(_muldi3.o)
 .debug_abbrev  0x0000c345      0x128 /Applications/microchip/xc32/v4.10/bin/bin/../../lib/gcc/pic32c/8.3.1/thumb/v8-m.base/nofp/libgcc.a(_udivmoddi4.o)
 .debug_abbrev  0x0000c46d       0xaa /Applications/microchip/xc32/v4.10/bin/bin/../../lib/gcc/pic32c/8.3.1/thumb/v8-m.base/nofp/libgcc.a(bpabi.o)
 .debug_abbrev  0x0000c517       0x14 /Applications/microchip/xc32/v4.10/bin/bin/../../lib/gcc/pic32c/8.3.1/thumb/v8-m.base/nofp/libgcc.a(_dvmd_tls.o)
 .debug_abbrev  0x0000c52b       0x14 /Applications/microchip/xc32/v4.10/bin/bin/../../lib/gcc/pic32c/8.3.1/thumb/v8-m.base/nofp/libgcc.a(_clzsi2.o)
 .debug_abbrev  0x0000c53f      0x17d /Applications/microchip/xc32/v4.10/bin/bin/../../lib/gcc/pic32c/8.3.1/thumb/v8-m.base/nofp/libgcc.a(_divdi3.o)
 .debug_abbrev  0x0000c6bc       0x2e /Applications/microchip/xc32/v4.10/bin/bin/../../lib/gcc/pic32c/8.3.1/../../../../pic32c/lib/thumb/v8-m.base/nofp/libpic32c.a(close.o)
 .debug_abbrev  0x0000c6ea       0x2e /Applications/microchip/xc32/v4.10/bin/bin/../../lib/gcc/pic32c/8.3.1/../../../../pic32c/lib/thumb/v8-m.base/nofp/libpic32c.a(lseek.o)
 .debug_abbrev  0x0000c718       0x2e /Applications/microchip/xc32/v4.10/bin/bin/../../lib/gcc/pic32c/8.3.1/../../../../pic32c/lib/thumb/v8-m.base/nofp/libpic32c.a(sbrk.o)

.debug_loc      0x00000000    0x371dc
 .debug_loc     0x00000000     0x1c1f build/default/debug/_ext/1360937237/azure_iot_pnp_pic32cmls60-curiosity.o
 .debug_loc     0x00001c1f    0x12162 build/default/debug/_ext/1360937237/main.o
 .debug_loc     0x00013d81       0xc2 build/default/debug/_ext/1360937237/pic32cmls60-curiosity-buttons.o
 .debug_loc     0x00013e43       0x32 build/default/debug/_ext/1360937237/pic32cmls60-curiosity-led.o
 .debug_loc     0x00013e75      0x867 build/default/debug/_ext/1360937237/pic32cmls60-curiosity-commands.o
 .debug_loc     0x000146dc     0x2091 build/default/debug/_ext/1414040249/az_json_reader.o
 .debug_loc     0x0001676d     0x174b build/default/debug/_ext/1414040249/az_json_token.o
 .debug_loc     0x00017eb8     0x2f02 build/default/debug/_ext/1414040249/az_json_writer.o
 .debug_loc     0x0001adba      0x305 build/default/debug/_ext/1414040249/az_log.o
 .debug_loc     0x0001b0bf     0x4426 build/default/debug/_ext/1414040249/az_span.o
 .debug_loc     0x0001f4e5      0xf3d build/default/debug/_ext/1292534426/az_iot_common.o
 .debug_loc     0x00020422      0x858 build/default/debug/_ext/1292534426/az_iot_hub_client.o
 .debug_loc     0x00020c7a      0x2e6 build/default/debug/_ext/1292534426/az_iot_hub_client_commands.o
 .debug_loc     0x00020f60      0x7ab build/default/debug/_ext/1292534426/az_iot_hub_client_methods.o
 .debug_loc     0x0002170b     0x1075 build/default/debug/_ext/1292534426/az_iot_hub_client_properties.o
 .debug_loc     0x00022780      0x2ad build/default/debug/_ext/1292534426/az_iot_hub_client_telemetry.o
 .debug_loc     0x00022a2d      0xbfe build/default/debug/_ext/1292534426/az_iot_hub_client_twin.o
 .debug_loc     0x0002362b     0x2280 build/default/debug/_ext/1292534426/az_iot_provisioning_client.o
 .debug_loc     0x000258ab      0x119 build/default/debug/_ext/60163342/plib_adc.o
 .debug_loc     0x000259c4      0x123 build/default/debug/_ext/60167341/plib_eic.o
 .debug_loc     0x00025ae7      0x1e2 build/default/debug/_ext/1865468468/plib_nvic.o
 .debug_loc     0x00025cc9      0x43b build/default/debug/_ext/504274921/plib_sercom3_usart.o
 .debug_loc     0x00026104      0xe8d build/default/debug/_ext/504274921/plib_sercom2_usart.o
 .debug_loc     0x00026f91      0x2d3 build/default/debug/_ext/1827571544/plib_systick.o
 .debug_loc     0x00027264      0x108 build/default/debug/_ext/163028504/xc32_monitor.o
 .debug_loc     0x0002736c       0x45 build/default/debug/_ext/1171490990/initialization.o
 .debug_loc     0x000273b1       0x20 build/default/debug/_ext/1171490990/startup_xc32.o
 .debug_loc     0x000273d1       0x14 /Applications/microchip/xc32/v4.10/bin/bin/../../lib/gcc/pic32c/8.3.1/../../../../pic32c/lib/thumb/v8-m.base/nofp/libpic32c.a(data_init.o)
 .debug_loc     0x000273e5       0x9c /Applications/microchip/xc32/v4.10/bin/bin/../../lib/gcc/pic32c/8.3.1/../../../../pic32c/lib/thumb/v8-m.base/nofp/libg-musl.a(isxdigit.o)
 .debug_loc     0x00027481       0x5e /Applications/microchip/xc32/v4.10/bin/bin/../../lib/gcc/pic32c/8.3.1/../../../../pic32c/lib/thumb/v8-m.base/nofp/libg-musl.a(__libc_start_main.o)
 .debug_loc     0x000274df       0xa0 /Applications/microchip/xc32/v4.10/bin/bin/../../lib/gcc/pic32c/8.3.1/../../../../pic32c/lib/thumb/v8-m.base/nofp/libg-musl.a(exit.o)
 .debug_loc     0x0002757f      0xd36 /Applications/microchip/xc32/v4.10/bin/bin/../../lib/gcc/pic32c/8.3.1/../../../../pic32c/lib/thumb/v8-m.base/nofp/libg-musl.a(malloc.o)
 .debug_loc     0x000282b5       0x7c /Applications/microchip/xc32/v4.10/bin/bin/../../lib/gcc/pic32c/8.3.1/../../../../pic32c/lib/thumb/v8-m.base/nofp/libg-musl.a(expand_heap.o)
 .debug_loc     0x00028331      0x2a6 /Applications/microchip/xc32/v4.10/bin/bin/../../lib/gcc/pic32c/8.3.1/../../../../pic32c/lib/thumb/v8-m.base/nofp/libg-musl.a(__fmt_d.o)
 .debug_loc     0x000285d7      0xd9d /Applications/microchip/xc32/v4.10/bin/bin/../../lib/gcc/pic32c/8.3.1/../../../../pic32c/lib/thumb/v8-m.base/nofp/libg-musl.a(__fmt_fp.o)
 .debug_loc     0x00029374      0x12d /Applications/microchip/xc32/v4.10/bin/bin/../../lib/gcc/pic32c/8.3.1/../../../../pic32c/lib/thumb/v8-m.base/nofp/libg-musl.a(__fmt_o.o)
 .debug_loc     0x000294a1      0x144 /Applications/microchip/xc32/v4.10/bin/bin/../../lib/gcc/pic32c/8.3.1/../../../../pic32c/lib/thumb/v8-m.base/nofp/libg-musl.a(__fmt_s.o)
 .debug_loc     0x000295e5      0x2e3 /Applications/microchip/xc32/v4.10/bin/bin/../../lib/gcc/pic32c/8.3.1/../../../../pic32c/lib/thumb/v8-m.base/nofp/libg-musl.a(__fmt_u.o)
 .debug_loc     0x000298c8      0x391 /Applications/microchip/xc32/v4.10/bin/bin/../../lib/gcc/pic32c/8.3.1/../../../../pic32c/lib/thumb/v8-m.base/nofp/libg-musl.a(__fmt_x.o)
 .debug_loc     0x00029c59      0x6b8 /Applications/microchip/xc32/v4.10/bin/bin/../../lib/gcc/pic32c/8.3.1/../../../../pic32c/lib/thumb/v8-m.base/nofp/libg-musl.a(__printf_core.o)
 .debug_loc     0x0002a311       0xcc /Applications/microchip/xc32/v4.10/bin/bin/../../lib/gcc/pic32c/8.3.1/../../../../pic32c/lib/thumb/v8-m.base/nofp/libg-musl.a(fflush.o)
 .debug_loc     0x0002a3dd      0x1c5 /Applications/microchip/xc32/v4.10/bin/bin/../../lib/gcc/pic32c/8.3.1/../../../../pic32c/lib/thumb/v8-m.base/nofp/libg-musl.a(fwrite.o)
 .debug_loc     0x0002a5a2      0x13b /Applications/microchip/xc32/v4.10/bin/bin/../../lib/gcc/pic32c/8.3.1/../../../../pic32c/lib/thumb/v8-m.base/nofp/libg-musl.a(putc.o)
 .debug_loc     0x0002a6dd       0x66 /Applications/microchip/xc32/v4.10/bin/bin/../../lib/gcc/pic32c/8.3.1/../../../../pic32c/lib/thumb/v8-m.base/nofp/libg-musl.a(sscanf.o)
 .debug_loc     0x0002a743       0x45 /Applications/microchip/xc32/v4.10/bin/bin/../../lib/gcc/pic32c/8.3.1/../../../../pic32c/lib/thumb/v8-m.base/nofp/libg-musl.a(stdin.o)
 .debug_loc     0x0002a788       0x40 /Applications/microchip/xc32/v4.10/bin/bin/../../lib/gcc/pic32c/8.3.1/../../../../pic32c/lib/thumb/v8-m.base/nofp/libg-musl.a(stdout.o)
 .debug_loc     0x0002a7c8      0x142 /Applications/microchip/xc32/v4.10/bin/bin/../../lib/gcc/pic32c/8.3.1/../../../../pic32c/lib/thumb/v8-m.base/nofp/libg-musl.a(vsscanf.o)
 .debug_loc     0x0002a90a       0x6a /Applications/microchip/xc32/v4.10/bin/bin/../../lib/gcc/pic32c/8.3.1/../../../../pic32c/lib/thumb/v8-m.base/nofp/libg-musl.a(puts.o)
 .debug_loc     0x0002a974       0x6a /Applications/microchip/xc32/v4.10/bin/bin/../../lib/gcc/pic32c/8.3.1/../../../../pic32c/lib/thumb/v8-m.base/nofp/libg-musl.a(setbuf.o)
 .debug_loc     0x0002a9de       0xdc /Applications/microchip/xc32/v4.10/bin/bin/../../lib/gcc/pic32c/8.3.1/../../../../pic32c/lib/thumb/v8-m.base/nofp/libg-musl.a(atoi.o)
 .debug_loc     0x0002aaba       0x4a /Applications/microchip/xc32/v4.10/bin/bin/../../lib/gcc/pic32c/8.3.1/../../../../pic32c/lib/thumb/v8-m.base/nofp/libg-musl.a(div.o)
 .debug_loc     0x0002ab04      0x184 /Applications/microchip/xc32/v4.10/bin/bin/../../lib/gcc/pic32c/8.3.1/../../../../pic32c/lib/thumb/v8-m.base/nofp/libg-musl.a(memcmp.o)
 .debug_loc     0x0002ac88      0x109 /Applications/microchip/xc32/v4.10/bin/bin/../../lib/gcc/pic32c/8.3.1/../../../../pic32c/lib/thumb/v8-m.base/nofp/libg-musl.a(memcpy.o)
 .debug_loc     0x0002ad91      0x104 /Applications/microchip/xc32/v4.10/bin/bin/../../lib/gcc/pic32c/8.3.1/../../../../pic32c/lib/thumb/v8-m.base/nofp/libg-musl.a(memmove.o)
 .debug_loc     0x0002ae95       0x80 /Applications/microchip/xc32/v4.10/bin/bin/../../lib/gcc/pic32c/8.3.1/../../../../pic32c/lib/thumb/v8-m.base/nofp/libg-musl.a(memset.o)
 .debug_loc     0x0002af15       0x54 /Applications/microchip/xc32/v4.10/bin/bin/../../lib/gcc/pic32c/8.3.1/../../../../pic32c/lib/thumb/v8-m.base/nofp/libg-musl.a(strlen.o)
 .debug_loc     0x0002af69       0x74 /Applications/microchip/xc32/v4.10/bin/bin/../../lib/gcc/pic32c/8.3.1/../../../../pic32c/lib/thumb/v8-m.base/nofp/libg-musl.a(strcpy.o)
 .debug_loc     0x0002afdd      0x119 /Applications/microchip/xc32/v4.10/bin/bin/../../lib/gcc/pic32c/8.3.1/../../../../pic32c/lib/thumb/v8-m.base/nofp/libg-musl.a(strlcat.o)
 .debug_loc     0x0002b0f6      0x186 /Applications/microchip/xc32/v4.10/bin/bin/../../lib/gcc/pic32c/8.3.1/../../../../pic32c/lib/thumb/v8-m.base/nofp/libg-musl.a(strlcpy.o)
 .debug_loc     0x0002b27c       0xa6 /Applications/microchip/xc32/v4.10/bin/bin/../../lib/gcc/pic32c/8.3.1/../../../../pic32c/lib/thumb/v8-m.base/nofp/libg-musl.a(strnlen.o)
 .debug_loc     0x0002b322       0x45 /Applications/microchip/xc32/v4.10/bin/bin/../../lib/gcc/pic32c/8.3.1/../../../../pic32c/lib/thumb/v8-m.base/nofp/libg-musl.a(localtime.o)
 .debug_loc     0x0002b367     0x100c /Applications/microchip/xc32/v4.10/bin/bin/../../lib/gcc/pic32c/8.3.1/../../../../pic32c/lib/thumb/v8-m.base/nofp/libg-musl.a(strftime.o)
 .debug_loc     0x0002c373       0x52 /Applications/microchip/xc32/v4.10/bin/bin/../../lib/gcc/pic32c/8.3.1/../../../../pic32c/lib/thumb/v8-m.base/nofp/libg-musl.a(time.o)
 .debug_loc     0x0002c3c5       0x8f /Applications/microchip/xc32/v4.10/bin/bin/../../lib/gcc/pic32c/8.3.1/../../../../pic32c/lib/thumb/v8-m.base/nofp/libg-musl.a(tolower.o)
 .debug_loc     0x0002c454       0x8f /Applications/microchip/xc32/v4.10/bin/bin/../../lib/gcc/pic32c/8.3.1/../../../../pic32c/lib/thumb/v8-m.base/nofp/libg-musl.a(toupper.o)
 .debug_loc     0x0002c4e3       0x45 /Applications/microchip/xc32/v4.10/bin/bin/../../lib/gcc/pic32c/8.3.1/../../../../pic32c/lib/thumb/v8-m.base/nofp/libg-musl.a(_Exit.o)
 .debug_loc     0x0002c528      0x251 /Applications/microchip/xc32/v4.10/bin/bin/../../lib/gcc/pic32c/8.3.1/../../../../pic32c/lib/thumb/v8-m.base/nofp/libg-musl.a(langinfo.o)
 .debug_loc     0x0002c779       0xf1 /Applications/microchip/xc32/v4.10/bin/bin/../../lib/gcc/pic32c/8.3.1/../../../../pic32c/lib/thumb/v8-m.base/nofp/libg-musl.a(__string_read.o)
 .debug_loc     0x0002c86a       0xb3 /Applications/microchip/xc32/v4.10/bin/bin/../../lib/gcc/pic32c/8.3.1/../../../../pic32c/lib/thumb/v8-m.base/nofp/libg-musl.a(fputs.o)
 .debug_loc     0x0002c91d      0x1e6 /Applications/microchip/xc32/v4.10/bin/bin/../../lib/gcc/pic32c/8.3.1/../../../../pic32c/lib/thumb/v8-m.base/nofp/libg-musl.a(__out.o)
 .debug_loc     0x0002cb03       0x6f /Applications/microchip/xc32/v4.10/bin/bin/../../lib/gcc/pic32c/8.3.1/../../../../pic32c/lib/thumb/v8-m.base/nofp/libg-musl.a(__pop_float.o)
 .debug_loc     0x0002cb72      0x281 /Applications/microchip/xc32/v4.10/bin/bin/../../lib/gcc/pic32c/8.3.1/../../../../pic32c/lib/thumb/v8-m.base/nofp/libg-musl.a(__pop_int.o)
 .debug_loc     0x0002cdf3      0x1fe /Applications/microchip/xc32/v4.10/bin/bin/../../lib/gcc/pic32c/8.3.1/../../../../pic32c/lib/thumb/v8-m.base/nofp/libg-musl.a(__pop_ptr.o)
 .debug_loc     0x0002cff1      0x107 /Applications/microchip/xc32/v4.10/bin/bin/../../lib/gcc/pic32c/8.3.1/../../../../pic32c/lib/thumb/v8-m.base/nofp/libg-musl.a(__stdio_read.o)
 .debug_loc     0x0002d0f8       0x42 /Applications/microchip/xc32/v4.10/bin/bin/../../lib/gcc/pic32c/8.3.1/../../../../pic32c/lib/thumb/v8-m.base/nofp/libg-musl.a(__towrite_rw.o)
 .debug_loc     0x0002d13a       0xf8 /Applications/microchip/xc32/v4.10/bin/bin/../../lib/gcc/pic32c/8.3.1/../../../../pic32c/lib/thumb/v8-m.base/nofp/libg-musl.a(setvbuf.o)
 .debug_loc     0x0002d232       0xd0 /Applications/microchip/xc32/v4.10/bin/bin/../../lib/gcc/pic32c/8.3.1/../../../../pic32c/lib/thumb/v8-m.base/nofp/libg-musl.a(vfscanf.o)
 .debug_loc     0x0002d302       0x8b /Applications/microchip/xc32/v4.10/bin/bin/../../lib/gcc/pic32c/8.3.1/../../../../pic32c/lib/thumb/v8-m.base/nofp/libg-musl.a(snprintf.o)
 .debug_loc     0x0002d38d       0x25 /Applications/microchip/xc32/v4.10/bin/bin/../../lib/gcc/pic32c/8.3.1/../../../../pic32c/lib/thumb/v8-m.base/nofp/libg-musl.a(abs.o)
 .debug_loc     0x0002d3b2      0x48b /Applications/microchip/xc32/v4.10/bin/bin/../../lib/gcc/pic32c/8.3.1/../../../../pic32c/lib/thumb/v8-m.base/nofp/libg-musl.a(strtol.o)
 .debug_loc     0x0002d83d       0xa8 /Applications/microchip/xc32/v4.10/bin/bin/../../lib/gcc/pic32c/8.3.1/../../../../pic32c/lib/thumb/v8-m.base/nofp/libg-musl.a(memchr.o)
 .debug_loc     0x0002d8e5       0x90 /Applications/microchip/xc32/v4.10/bin/bin/../../lib/gcc/pic32c/8.3.1/../../../../pic32c/lib/thumb/v8-m.base/nofp/libg-musl.a(stpcpy.o)
 .debug_loc     0x0002d975       0xc2 /Applications/microchip/xc32/v4.10/bin/bin/../../lib/gcc/pic32c/8.3.1/../../../../pic32c/lib/thumb/v8-m.base/nofp/libg-musl.a(__tm_to_secs.o)
 .debug_loc     0x0002da37      0x25d /Applications/microchip/xc32/v4.10/bin/bin/../../lib/gcc/pic32c/8.3.1/../../../../pic32c/lib/thumb/v8-m.base/nofp/libg-musl.a(__year_to_secs.o)
 .debug_loc     0x0002dc94      0x6b2 /Applications/microchip/xc32/v4.10/bin/bin/../../lib/gcc/pic32c/8.3.1/../../../../pic32c/lib/thumb/v8-m.base/nofp/libg-musl.a(__tz.o)
 .debug_loc     0x0002e346       0xfb /Applications/microchip/xc32/v4.10/bin/bin/../../lib/gcc/pic32c/8.3.1/../../../../pic32c/lib/thumb/v8-m.base/nofp/libg-musl.a(clock_gettime.o)
 .debug_loc     0x0002e441       0x25 /Applications/microchip/xc32/v4.10/bin/bin/../../lib/gcc/pic32c/8.3.1/../../../../pic32c/lib/thumb/v8-m.base/nofp/libg-musl.a(gettimeofday.o)
 .debug_loc     0x0002e466       0x91 /Applications/microchip/xc32/v4.10/bin/bin/../../lib/gcc/pic32c/8.3.1/../../../../pic32c/lib/thumb/v8-m.base/nofp/libg-musl.a(gmtime_r.o)
 .debug_loc     0x0002e4f7      0x130 /Applications/microchip/xc32/v4.10/bin/bin/../../lib/gcc/pic32c/8.3.1/../../../../pic32c/lib/thumb/v8-m.base/nofp/libg-musl.a(readv.o)
 .debug_loc     0x0002e627      0x751 /Applications/microchip/xc32/v4.10/bin/bin/../../lib/gcc/pic32c/8.3.1/../../../../pic32c/lib/thumb/v8-m.base/nofp/libg-musl.a(intscan.o)
 .debug_loc     0x0002ed78       0x46 /Applications/microchip/xc32/v4.10/bin/bin/../../lib/gcc/pic32c/8.3.1/../../../../pic32c/lib/thumb/v8-m.base/nofp/libg-musl.a(syscall_ret.o)
 .debug_loc     0x0002edbe       0xad /Applications/microchip/xc32/v4.10/bin/bin/../../lib/gcc/pic32c/8.3.1/../../../../pic32c/lib/thumb/v8-m.base/nofp/libg-musl.a(shgetc.o)
 .debug_loc     0x0002ee6b       0x5f /Applications/microchip/xc32/v4.10/bin/bin/../../lib/gcc/pic32c/8.3.1/../../../../pic32c/lib/thumb/v8-m.base/nofp/libg-musl.a(__uflow.o)
 .debug_loc     0x0002eeca       0x20 /Applications/microchip/xc32/v4.10/bin/bin/../../lib/gcc/pic32c/8.3.1/../../../../pic32c/lib/thumb/v8-m.base/nofp/libg-musl.a(__init_stdio.o)
 .debug_loc     0x0002eeea       0xbe /Applications/microchip/xc32/v4.10/bin/bin/../../lib/gcc/pic32c/8.3.1/../../../../pic32c/lib/thumb/v8-m.base/nofp/libg-musl.a(__putc.o)
 .debug_loc     0x0002efa8      0x2cb /Applications/microchip/xc32/v4.10/bin/bin/../../lib/gcc/pic32c/8.3.1/../../../../pic32c/lib/thumb/v8-m.base/nofp/libg-musl.a(__scan_d.o)
 .debug_loc     0x0002f273      0x747 /Applications/microchip/xc32/v4.10/bin/bin/../../lib/gcc/pic32c/8.3.1/../../../../pic32c/lib/thumb/v8-m.base/nofp/libg-musl.a(__scan_fp.o)
 .debug_loc     0x0002f9ba      0x2ee /Applications/microchip/xc32/v4.10/bin/bin/../../lib/gcc/pic32c/8.3.1/../../../../pic32c/lib/thumb/v8-m.base/nofp/libg-musl.a(__scan_i.o)
 .debug_loc     0x0002fca8      0x1dd /Applications/microchip/xc32/v4.10/bin/bin/../../lib/gcc/pic32c/8.3.1/../../../../pic32c/lib/thumb/v8-m.base/nofp/libg-musl.a(__scan_o.o)
 .debug_loc     0x0002fe85      0x1a6 /Applications/microchip/xc32/v4.10/bin/bin/../../lib/gcc/pic32c/8.3.1/../../../../pic32c/lib/thumb/v8-m.base/nofp/libg-musl.a(__scan_s.o)
 .debug_loc     0x0003002b       0xe3 /Applications/microchip/xc32/v4.10/bin/bin/../../lib/gcc/pic32c/8.3.1/../../../../pic32c/lib/thumb/v8-m.base/nofp/libg-musl.a(__scan_u.o)
 .debug_loc     0x0003010e      0x21d /Applications/microchip/xc32/v4.10/bin/bin/../../lib/gcc/pic32c/8.3.1/../../../../pic32c/lib/thumb/v8-m.base/nofp/libg-musl.a(__scan_x.o)
 .debug_loc     0x0003032b      0xc2c /Applications/microchip/xc32/v4.10/bin/bin/../../lib/gcc/pic32c/8.3.1/../../../../pic32c/lib/thumb/v8-m.base/nofp/libg-musl.a(__scanf_core.o)
 .debug_loc     0x00030f57       0x45 /Applications/microchip/xc32/v4.10/bin/bin/../../lib/gcc/pic32c/8.3.1/../../../../pic32c/lib/thumb/v8-m.base/nofp/libg-musl.a(__stderr.o)
 .debug_loc     0x00030f9c      0x1d8 /Applications/microchip/xc32/v4.10/bin/bin/../../lib/gcc/pic32c/8.3.1/../../../../pic32c/lib/thumb/v8-m.base/nofp/libg-musl.a(__stdio_close.o)
 .debug_loc     0x00031174       0x45 /Applications/microchip/xc32/v4.10/bin/bin/../../lib/gcc/pic32c/8.3.1/../../../../pic32c/lib/thumb/v8-m.base/nofp/libg-musl.a(__stdio_exit.o)
 .debug_loc     0x000311b9      0x364 /Applications/microchip/xc32/v4.10/bin/bin/../../lib/gcc/pic32c/8.3.1/../../../../pic32c/lib/thumb/v8-m.base/nofp/libg-musl.a(__stdio_write.o)
 .debug_loc     0x0003151d       0x45 /Applications/microchip/xc32/v4.10/bin/bin/../../lib/gcc/pic32c/8.3.1/../../../../pic32c/lib/thumb/v8-m.base/nofp/libg-musl.a(__stdout.o)
 .debug_loc     0x00031562       0x8c /Applications/microchip/xc32/v4.10/bin/bin/../../lib/gcc/pic32c/8.3.1/../../../../pic32c/lib/thumb/v8-m.base/nofp/libg-musl.a(__towrite.o)
 .debug_loc     0x000315ee      0x10c /Applications/microchip/xc32/v4.10/bin/bin/../../lib/gcc/pic32c/8.3.1/../../../../pic32c/lib/thumb/v8-m.base/nofp/libg-musl.a(vsnprintf.o)
 .debug_loc     0x000316fa      0x245 /Applications/microchip/xc32/v4.10/bin/bin/../../lib/gcc/pic32c/8.3.1/../../../../pic32c/lib/thumb/v8-m.base/nofp/libg-musl.a(strtod.o)
 .debug_loc     0x0003193f       0x3a /Applications/microchip/xc32/v4.10/bin/bin/../../lib/gcc/pic32c/8.3.1/../../../../pic32c/lib/thumb/v8-m.base/nofp/libg-musl.a(__month_to_secs.o)
 .debug_loc     0x00031979      0x2af /Applications/microchip/xc32/v4.10/bin/bin/../../lib/gcc/pic32c/8.3.1/../../../../pic32c/lib/thumb/v8-m.base/nofp/libg-musl.a(__secs_to_tm.o)
 .debug_loc     0x00031c28      0x130 /Applications/microchip/xc32/v4.10/bin/bin/../../lib/gcc/pic32c/8.3.1/../../../../pic32c/lib/thumb/v8-m.base/nofp/libg-musl.a(writev.o)
 .debug_loc     0x00031d58     0x221d /Applications/microchip/xc32/v4.10/bin/bin/../../lib/gcc/pic32c/8.3.1/../../../../pic32c/lib/thumb/v8-m.base/nofp/libg-musl.a(floatscan.o)
 .debug_loc     0x00033f75       0xbb /Applications/microchip/xc32/v4.10/bin/bin/../../lib/gcc/pic32c/8.3.1/../../../../pic32c/lib/thumb/v8-m.base/nofp/libg-musl.a(__overflow.o)
 .debug_loc     0x00034030       0x7f /Applications/microchip/xc32/v4.10/bin/bin/../../lib/gcc/pic32c/8.3.1/../../../../pic32c/lib/thumb/v8-m.base/nofp/libg-musl.a(__toread.o)
 .debug_loc     0x000340af       0x77 /Applications/microchip/xc32/v4.10/bin/bin/../../lib/gcc/pic32c/8.3.1/../../../../pic32c/lib/thumb/v8-m.base/nofp/libg-musl.a(__fclose.o)
 .debug_loc     0x00034126      0x175 /Applications/microchip/xc32/v4.10/bin/bin/../../lib/gcc/pic32c/8.3.1/../../../../pic32c/lib/thumb/v8-m.base/nofp/libg-musl.a(__fwrite.o)
 .debug_loc     0x0003429b      0x15a /Applications/microchip/xc32/v4.10/bin/bin/../../lib/gcc/pic32c/8.3.1/../../../../pic32c/lib/thumb/v8-m.base/nofp/libg-musl.a(__push_float.o)
 .debug_loc     0x000343f5      0x2ae /Applications/microchip/xc32/v4.10/bin/bin/../../lib/gcc/pic32c/8.3.1/../../../../pic32c/lib/thumb/v8-m.base/nofp/libg-musl.a(__push_int.o)
 .debug_loc     0x000346a3       0xd0 /Applications/microchip/xc32/v4.10/bin/bin/../../lib/gcc/pic32c/8.3.1/../../../../pic32c/lib/thumb/v8-m.base/nofp/libg-musl.a(vfprintf.o)
 .debug_loc     0x00034773      0xd74 /Applications/microchip/xc32/v4.10/bin/bin/../../lib/gcc/pic32c/8.3.1/../../../../pic32c/lib/thumb/v8-m.base/nofp/libg-musl.a(__fmt_a.o)
 .debug_loc     0x000354e7       0x66 /Applications/microchip/xc32/v4.10/bin/bin/../../lib/gcc/pic32c/8.3.1/../../../../pic32c/lib/thumb/v8-m.base/nofp/libc-musl.a(fprintf.o)
 .debug_loc     0x0003554d       0x41 /Applications/microchip/xc32/v4.10/bin/bin/../../lib/gcc/pic32c/8.3.1/../../../../pic32c/lib/thumb/v8-m.base/nofp/libc-musl.a(printf.o)
 .debug_loc     0x0003558e      0x177 /Applications/microchip/xc32/v4.10/bin/bin/../../lib/gcc/pic32c/8.3.1/thumb/v8-m.base/nofp/libgcc.a(_muldi3.o)
 .debug_loc     0x00035705      0xe11 /Applications/microchip/xc32/v4.10/bin/bin/../../lib/gcc/pic32c/8.3.1/thumb/v8-m.base/nofp/libgcc.a(_udivmoddi4.o)
 .debug_loc     0x00036516       0x9d /Applications/microchip/xc32/v4.10/bin/bin/../../lib/gcc/pic32c/8.3.1/thumb/v8-m.base/nofp/libgcc.a(bpabi.o)
 .debug_loc     0x000365b3      0xc29 /Applications/microchip/xc32/v4.10/bin/bin/../../lib/gcc/pic32c/8.3.1/thumb/v8-m.base/nofp/libgcc.a(_divdi3.o)

.debug_aranges  0x00000000     0x2150
 .debug_aranges
                0x00000000       0x58 build/default/debug/_ext/1360937237/azure_iot_pnp_pic32cmls60-curiosity.o
 .debug_aranges
                0x00000058      0x668 build/default/debug/_ext/1360937237/main.o
 .debug_aranges
                0x000006c0       0x38 build/default/debug/_ext/1360937237/pic32cmls60-curiosity-buttons.o
 .debug_aranges
                0x000006f8       0x28 build/default/debug/_ext/1360937237/pic32cmls60-curiosity-led.o
 .debug_aranges
                0x00000720       0x80 build/default/debug/_ext/1360937237/pic32cmls60-curiosity-commands.o
 .debug_aranges
                0x000007a0       0xa0 build/default/debug/_ext/1414040249/az_json_reader.o
 .debug_aranges
                0x00000840       0x80 build/default/debug/_ext/1414040249/az_json_token.o
 .debug_aranges
                0x000008c0       0xc8 build/default/debug/_ext/1414040249/az_json_writer.o
 .debug_aranges
                0x00000988       0x38 build/default/debug/_ext/1414040249/az_log.o
 .debug_aranges
                0x000009c0       0x30 build/default/debug/_ext/1414040249/az_precondition.o
 .debug_aranges
                0x000009f0       0xf8 build/default/debug/_ext/1414040249/az_span.o
 .debug_aranges
                0x00000ae8       0x58 build/default/debug/_ext/1292534426/az_iot_common.o
 .debug_aranges
                0x00000b40       0x38 build/default/debug/_ext/1292534426/az_iot_hub_client.o
 .debug_aranges
                0x00000b78       0x28 build/default/debug/_ext/1292534426/az_iot_hub_client_commands.o
 .debug_aranges
                0x00000ba0       0x28 build/default/debug/_ext/1292534426/az_iot_hub_client_methods.o
 .debug_aranges
                0x00000bc8       0x70 build/default/debug/_ext/1292534426/az_iot_hub_client_properties.o
 .debug_aranges
                0x00000c38       0x20 build/default/debug/_ext/1292534426/az_iot_hub_client_telemetry.o
 .debug_aranges
                0x00000c58       0x30 build/default/debug/_ext/1292534426/az_iot_hub_client_twin.o
 .debug_aranges
                0x00000c88       0x58 build/default/debug/_ext/1292534426/az_iot_provisioning_client.o
 .debug_aranges
                0x00000ce0       0x20 build/default/debug/_ext/1434821282/bsp.o
 .debug_aranges
                0x00000d00       0x80 build/default/debug/_ext/60163342/plib_adc.o
 .debug_aranges
                0x00000d80       0x48 build/default/debug/_ext/60167341/plib_eic.o
 .debug_aranges
                0x00000dc8       0x38 build/default/debug/_ext/1865468468/plib_nvic.o
 .debug_aranges
                0x00000e00       0x68 build/default/debug/_ext/504274921/plib_sercom3_usart.o
 .debug_aranges
                0x00000e68       0xc0 build/default/debug/_ext/504274921/plib_sercom2_usart.o
 .debug_aranges
                0x00000f28       0x70 build/default/debug/_ext/1827571544/plib_systick.o
 .debug_aranges
                0x00000f98       0x28 build/default/debug/_ext/163028504/xc32_monitor.o
 .debug_aranges
                0x00000fc0       0x20 build/default/debug/_ext/1171490990/initialization.o
 .debug_aranges
                0x00000fe0       0x20 build/default/debug/_ext/1171490990/interrupts.o
 .debug_aranges
                0x00001000       0x28 build/default/debug/_ext/1171490990/exceptions.o
 .debug_aranges
                0x00001028       0x28 build/default/debug/_ext/1171490990/startup_xc32.o
 .debug_aranges
                0x00001050       0x20 build/default/debug/_ext/1171490990/libc_syscalls.o
 .debug_aranges
                0x00001070       0x20 /Applications/microchip/xc32/v4.10/bin/bin/../../lib/gcc/pic32c/8.3.1/../../../../pic32c/lib/thumb/v8-m.base/nofp/libpic32c.a(data_init.o)
 .debug_aranges
                0x00001090       0x28 /Applications/microchip/xc32/v4.10/bin/bin/../../lib/gcc/pic32c/8.3.1/../../../../pic32c/lib/thumb/v8-m.base/nofp/libg-musl.a(isxdigit.o)
 .debug_aranges
                0x000010b8       0x28 /Applications/microchip/xc32/v4.10/bin/bin/../../lib/gcc/pic32c/8.3.1/../../../../pic32c/lib/thumb/v8-m.base/nofp/libg-musl.a(__libc_start_main.o)
 .debug_aranges
                0x000010e0       0x30 /Applications/microchip/xc32/v4.10/bin/bin/../../lib/gcc/pic32c/8.3.1/../../../../pic32c/lib/thumb/v8-m.base/nofp/libg-musl.a(exit.o)
 .debug_aranges
                0x00001110       0x18 /Applications/microchip/xc32/v4.10/bin/bin/../../lib/gcc/pic32c/8.3.1/../../../../pic32c/lib/thumb/v8-m.base/nofp/libg-musl.a(libc.o)
 .debug_aranges
                0x00001128       0x70 /Applications/microchip/xc32/v4.10/bin/bin/../../lib/gcc/pic32c/8.3.1/../../../../pic32c/lib/thumb/v8-m.base/nofp/libg-musl.a(malloc.o)
 .debug_aranges
                0x00001198       0x20 /Applications/microchip/xc32/v4.10/bin/bin/../../lib/gcc/pic32c/8.3.1/../../../../pic32c/lib/thumb/v8-m.base/nofp/libg-musl.a(expand_heap.o)
 .debug_aranges
                0x000011b8       0x20 /Applications/microchip/xc32/v4.10/bin/bin/../../lib/gcc/pic32c/8.3.1/../../../../pic32c/lib/thumb/v8-m.base/nofp/libg-musl.a(__fmt_d.o)
 .debug_aranges
                0x000011d8       0x20 /Applications/microchip/xc32/v4.10/bin/bin/../../lib/gcc/pic32c/8.3.1/../../../../pic32c/lib/thumb/v8-m.base/nofp/libg-musl.a(__fmt_fp.o)
 .debug_aranges
                0x000011f8       0x20 /Applications/microchip/xc32/v4.10/bin/bin/../../lib/gcc/pic32c/8.3.1/../../../../pic32c/lib/thumb/v8-m.base/nofp/libg-musl.a(__fmt_o.o)
 .debug_aranges
                0x00001218       0x20 /Applications/microchip/xc32/v4.10/bin/bin/../../lib/gcc/pic32c/8.3.1/../../../../pic32c/lib/thumb/v8-m.base/nofp/libg-musl.a(__fmt_s.o)
 .debug_aranges
                0x00001238       0x28 /Applications/microchip/xc32/v4.10/bin/bin/../../lib/gcc/pic32c/8.3.1/../../../../pic32c/lib/thumb/v8-m.base/nofp/libg-musl.a(__fmt_u.o)
 .debug_aranges
                0x00001260       0x20 /Applications/microchip/xc32/v4.10/bin/bin/../../lib/gcc/pic32c/8.3.1/../../../../pic32c/lib/thumb/v8-m.base/nofp/libg-musl.a(__fmt_x.o)
 .debug_aranges
                0x00001280       0x50 /Applications/microchip/xc32/v4.10/bin/bin/../../lib/gcc/pic32c/8.3.1/../../../../pic32c/lib/thumb/v8-m.base/nofp/libg-musl.a(__printf_core.o)
 .debug_aranges
                0x000012d0       0x30 /Applications/microchip/xc32/v4.10/bin/bin/../../lib/gcc/pic32c/8.3.1/../../../../pic32c/lib/thumb/v8-m.base/nofp/libg-musl.a(fflush.o)
 .debug_aranges
                0x00001300       0x28 /Applications/microchip/xc32/v4.10/bin/bin/../../lib/gcc/pic32c/8.3.1/../../../../pic32c/lib/thumb/v8-m.base/nofp/libg-musl.a(fwrite.o)
 .debug_aranges
                0x00001328       0x30 /Applications/microchip/xc32/v4.10/bin/bin/../../lib/gcc/pic32c/8.3.1/../../../../pic32c/lib/thumb/v8-m.base/nofp/libg-musl.a(putc.o)
 .debug_aranges
                0x00001358       0x20 /Applications/microchip/xc32/v4.10/bin/bin/../../lib/gcc/pic32c/8.3.1/../../../../pic32c/lib/thumb/v8-m.base/nofp/libg-musl.a(sscanf.o)
 .debug_aranges
                0x00001378       0x28 /Applications/microchip/xc32/v4.10/bin/bin/../../lib/gcc/pic32c/8.3.1/../../../../pic32c/lib/thumb/v8-m.base/nofp/libg-musl.a(stdin.o)
 .debug_aranges
                0x000013a0       0x30 /Applications/microchip/xc32/v4.10/bin/bin/../../lib/gcc/pic32c/8.3.1/../../../../pic32c/lib/thumb/v8-m.base/nofp/libg-musl.a(stdout.o)
 .debug_aranges
                0x000013d0       0x28 /Applications/microchip/xc32/v4.10/bin/bin/../../lib/gcc/pic32c/8.3.1/../../../../pic32c/lib/thumb/v8-m.base/nofp/libg-musl.a(vsscanf.o)
 .debug_aranges
                0x000013f8       0x20 /Applications/microchip/xc32/v4.10/bin/bin/../../lib/gcc/pic32c/8.3.1/../../../../pic32c/lib/thumb/v8-m.base/nofp/libg-musl.a(puts.o)
 .debug_aranges
                0x00001418       0x20 /Applications/microchip/xc32/v4.10/bin/bin/../../lib/gcc/pic32c/8.3.1/../../../../pic32c/lib/thumb/v8-m.base/nofp/libg-musl.a(setbuf.o)
 .debug_aranges
                0x00001438       0x20 /Applications/microchip/xc32/v4.10/bin/bin/../../lib/gcc/pic32c/8.3.1/../../../../pic32c/lib/thumb/v8-m.base/nofp/libg-musl.a(atoi.o)
 .debug_aranges
                0x00001458       0x20 /Applications/microchip/xc32/v4.10/bin/bin/../../lib/gcc/pic32c/8.3.1/../../../../pic32c/lib/thumb/v8-m.base/nofp/libg-musl.a(div.o)
 .debug_aranges
                0x00001478       0x20 /Applications/microchip/xc32/v4.10/bin/bin/../../lib/gcc/pic32c/8.3.1/../../../../pic32c/lib/thumb/v8-m.base/nofp/libg-musl.a(memcmp.o)
 .debug_aranges
                0x00001498       0x20 /Applications/microchip/xc32/v4.10/bin/bin/../../lib/gcc/pic32c/8.3.1/../../../../pic32c/lib/thumb/v8-m.base/nofp/libg-musl.a(memcpy.o)
 .debug_aranges
                0x000014b8       0x20 /Applications/microchip/xc32/v4.10/bin/bin/../../lib/gcc/pic32c/8.3.1/../../../../pic32c/lib/thumb/v8-m.base/nofp/libg-musl.a(memmove.o)
 .debug_aranges
                0x000014d8       0x20 /Applications/microchip/xc32/v4.10/bin/bin/../../lib/gcc/pic32c/8.3.1/../../../../pic32c/lib/thumb/v8-m.base/nofp/libg-musl.a(memset.o)
 .debug_aranges
                0x000014f8       0x20 /Applications/microchip/xc32/v4.10/bin/bin/../../lib/gcc/pic32c/8.3.1/../../../../pic32c/lib/thumb/v8-m.base/nofp/libg-musl.a(strlen.o)
 .debug_aranges
                0x00001518       0x20 /Applications/microchip/xc32/v4.10/bin/bin/../../lib/gcc/pic32c/8.3.1/../../../../pic32c/lib/thumb/v8-m.base/nofp/libg-musl.a(strcpy.o)
 .debug_aranges
                0x00001538       0x20 /Applications/microchip/xc32/v4.10/bin/bin/../../lib/gcc/pic32c/8.3.1/../../../../pic32c/lib/thumb/v8-m.base/nofp/libg-musl.a(strlcat.o)
 .debug_aranges
                0x00001558       0x20 /Applications/microchip/xc32/v4.10/bin/bin/../../lib/gcc/pic32c/8.3.1/../../../../pic32c/lib/thumb/v8-m.base/nofp/libg-musl.a(strlcpy.o)
 .debug_aranges
                0x00001578       0x20 /Applications/microchip/xc32/v4.10/bin/bin/../../lib/gcc/pic32c/8.3.1/../../../../pic32c/lib/thumb/v8-m.base/nofp/libg-musl.a(strnlen.o)
 .debug_aranges
                0x00001598       0x20 /Applications/microchip/xc32/v4.10/bin/bin/../../lib/gcc/pic32c/8.3.1/../../../../pic32c/lib/thumb/v8-m.base/nofp/libg-musl.a(localtime.o)
 .debug_aranges
                0x000015b8       0x40 /Applications/microchip/xc32/v4.10/bin/bin/../../lib/gcc/pic32c/8.3.1/../../../../pic32c/lib/thumb/v8-m.base/nofp/libg-musl.a(strftime.o)
 .debug_aranges
                0x000015f8       0x20 /Applications/microchip/xc32/v4.10/bin/bin/../../lib/gcc/pic32c/8.3.1/../../../../pic32c/lib/thumb/v8-m.base/nofp/libg-musl.a(time.o)
 .debug_aranges
                0x00001618       0x28 /Applications/microchip/xc32/v4.10/bin/bin/../../lib/gcc/pic32c/8.3.1/../../../../pic32c/lib/thumb/v8-m.base/nofp/libg-musl.a(tolower.o)
 .debug_aranges
                0x00001640       0x28 /Applications/microchip/xc32/v4.10/bin/bin/../../lib/gcc/pic32c/8.3.1/../../../../pic32c/lib/thumb/v8-m.base/nofp/libg-musl.a(toupper.o)
 .debug_aranges
                0x00001668       0x18 /Applications/microchip/xc32/v4.10/bin/bin/../../lib/gcc/pic32c/8.3.1/../../../../pic32c/lib/thumb/v8-m.base/nofp/libg-musl.a(__environ.o)
 .debug_aranges
                0x00001680       0x18 /Applications/microchip/xc32/v4.10/bin/bin/../../lib/gcc/pic32c/8.3.1/../../../../pic32c/lib/thumb/v8-m.base/nofp/libg-musl.a(__errno_location.o)
 .debug_aranges
                0x00001698       0x20 /Applications/microchip/xc32/v4.10/bin/bin/../../lib/gcc/pic32c/8.3.1/../../../../pic32c/lib/thumb/v8-m.base/nofp/libg-musl.a(_Exit.o)
 .debug_aranges
                0x000016b8       0x28 /Applications/microchip/xc32/v4.10/bin/bin/../../lib/gcc/pic32c/8.3.1/../../../../pic32c/lib/thumb/v8-m.base/nofp/libg-musl.a(langinfo.o)
 .debug_aranges
                0x000016e0       0x18 /Applications/microchip/xc32/v4.10/bin/bin/../../lib/gcc/pic32c/8.3.1/../../../../pic32c/lib/thumb/v8-m.base/nofp/libg-musl.a(c_locale.o)
 .debug_aranges
                0x000016f8       0x20 /Applications/microchip/xc32/v4.10/bin/bin/../../lib/gcc/pic32c/8.3.1/../../../../pic32c/lib/thumb/v8-m.base/nofp/libg-musl.a(__string_read.o)
 .debug_aranges
                0x00001718       0x20 /Applications/microchip/xc32/v4.10/bin/bin/../../lib/gcc/pic32c/8.3.1/../../../../pic32c/lib/thumb/v8-m.base/nofp/libg-musl.a(fputs.o)
 .debug_aranges
                0x00001738       0x28 /Applications/microchip/xc32/v4.10/bin/bin/../../lib/gcc/pic32c/8.3.1/../../../../pic32c/lib/thumb/v8-m.base/nofp/libg-musl.a(__out.o)
 .debug_aranges
                0x00001760       0x20 /Applications/microchip/xc32/v4.10/bin/bin/../../lib/gcc/pic32c/8.3.1/../../../../pic32c/lib/thumb/v8-m.base/nofp/libg-musl.a(__pop_float.o)
 .debug_aranges
                0x00001780       0x20 /Applications/microchip/xc32/v4.10/bin/bin/../../lib/gcc/pic32c/8.3.1/../../../../pic32c/lib/thumb/v8-m.base/nofp/libg-musl.a(__pop_int.o)
 .debug_aranges
                0x000017a0       0x20 /Applications/microchip/xc32/v4.10/bin/bin/../../lib/gcc/pic32c/8.3.1/../../../../pic32c/lib/thumb/v8-m.base/nofp/libg-musl.a(__pop_ptr.o)
 .debug_aranges
                0x000017c0       0x20 /Applications/microchip/xc32/v4.10/bin/bin/../../lib/gcc/pic32c/8.3.1/../../../../pic32c/lib/thumb/v8-m.base/nofp/libg-musl.a(__stdio_read.o)
 .debug_aranges
                0x000017e0       0x20 /Applications/microchip/xc32/v4.10/bin/bin/../../lib/gcc/pic32c/8.3.1/../../../../pic32c/lib/thumb/v8-m.base/nofp/libg-musl.a(__towrite_rw.o)
 .debug_aranges
                0x00001800       0x28 /Applications/microchip/xc32/v4.10/bin/bin/../../lib/gcc/pic32c/8.3.1/../../../../pic32c/lib/thumb/v8-m.base/nofp/libg-musl.a(setvbuf.o)
 .debug_aranges
                0x00001828       0x28 /Applications/microchip/xc32/v4.10/bin/bin/../../lib/gcc/pic32c/8.3.1/../../../../pic32c/lib/thumb/v8-m.base/nofp/libg-musl.a(vfscanf.o)
 .debug_aranges
                0x00001850       0x20 /Applications/microchip/xc32/v4.10/bin/bin/../../lib/gcc/pic32c/8.3.1/../../../../pic32c/lib/thumb/v8-m.base/nofp/libg-musl.a(snprintf.o)
 .debug_aranges
                0x00001870       0x20 /Applications/microchip/xc32/v4.10/bin/bin/../../lib/gcc/pic32c/8.3.1/../../../../pic32c/lib/thumb/v8-m.base/nofp/libg-musl.a(abs.o)
 .debug_aranges
                0x00001890       0x50 /Applications/microchip/xc32/v4.10/bin/bin/../../lib/gcc/pic32c/8.3.1/../../../../pic32c/lib/thumb/v8-m.base/nofp/libg-musl.a(strtol.o)
 .debug_aranges
                0x000018e0       0x20 /Applications/microchip/xc32/v4.10/bin/bin/../../lib/gcc/pic32c/8.3.1/../../../../pic32c/lib/thumb/v8-m.base/nofp/libg-musl.a(memchr.o)
 .debug_aranges
                0x00001900       0x20 /Applications/microchip/xc32/v4.10/bin/bin/../../lib/gcc/pic32c/8.3.1/../../../../pic32c/lib/thumb/v8-m.base/nofp/libg-musl.a(stpcpy.o)
 .debug_aranges
                0x00001920       0x20 /Applications/microchip/xc32/v4.10/bin/bin/../../lib/gcc/pic32c/8.3.1/../../../../pic32c/lib/thumb/v8-m.base/nofp/libg-musl.a(__tm_to_secs.o)
 .debug_aranges
                0x00001940       0x20 /Applications/microchip/xc32/v4.10/bin/bin/../../lib/gcc/pic32c/8.3.1/../../../../pic32c/lib/thumb/v8-m.base/nofp/libg-musl.a(__year_to_secs.o)
 .debug_aranges
                0x00001960       0x60 /Applications/microchip/xc32/v4.10/bin/bin/../../lib/gcc/pic32c/8.3.1/../../../../pic32c/lib/thumb/v8-m.base/nofp/libg-musl.a(__tz.o)
 .debug_aranges
                0x000019c0       0x20 /Applications/microchip/xc32/v4.10/bin/bin/../../lib/gcc/pic32c/8.3.1/../../../../pic32c/lib/thumb/v8-m.base/nofp/libg-musl.a(clock_gettime.o)
 .debug_aranges
                0x000019e0       0x20 /Applications/microchip/xc32/v4.10/bin/bin/../../lib/gcc/pic32c/8.3.1/../../../../pic32c/lib/thumb/v8-m.base/nofp/libg-musl.a(gettimeofday.o)
 .debug_aranges
                0x00001a00       0x20 /Applications/microchip/xc32/v4.10/bin/bin/../../lib/gcc/pic32c/8.3.1/../../../../pic32c/lib/thumb/v8-m.base/nofp/libg-musl.a(gmtime_r.o)
 .debug_aranges
                0x00001a20       0x20 /Applications/microchip/xc32/v4.10/bin/bin/../../lib/gcc/pic32c/8.3.1/../../../../pic32c/lib/thumb/v8-m.base/nofp/libg-musl.a(readv.o)
 .debug_aranges
                0x00001a40       0x20 /Applications/microchip/xc32/v4.10/bin/bin/../../lib/gcc/pic32c/8.3.1/../../../../pic32c/lib/thumb/v8-m.base/nofp/libg-musl.a(intscan.o)
 .debug_aranges
                0x00001a60       0x20 /Applications/microchip/xc32/v4.10/bin/bin/../../lib/gcc/pic32c/8.3.1/../../../../pic32c/lib/thumb/v8-m.base/nofp/libg-musl.a(syscall_ret.o)
 .debug_aranges
                0x00001a80       0x28 /Applications/microchip/xc32/v4.10/bin/bin/../../lib/gcc/pic32c/8.3.1/../../../../pic32c/lib/thumb/v8-m.base/nofp/libg-musl.a(shgetc.o)
 .debug_aranges
                0x00001aa8       0x20 /Applications/microchip/xc32/v4.10/bin/bin/../../lib/gcc/pic32c/8.3.1/../../../../pic32c/lib/thumb/v8-m.base/nofp/libg-musl.a(__uflow.o)
 .debug_aranges
                0x00001ac8       0x28 /Applications/microchip/xc32/v4.10/bin/bin/../../lib/gcc/pic32c/8.3.1/../../../../pic32c/lib/thumb/v8-m.base/nofp/libg-musl.a(__init_stdio.o)
 .debug_aranges
                0x00001af0       0x20 /Applications/microchip/xc32/v4.10/bin/bin/../../lib/gcc/pic32c/8.3.1/../../../../pic32c/lib/thumb/v8-m.base/nofp/libg-musl.a(__putc.o)
 .debug_aranges
                0x00001b10       0x30 /Applications/microchip/xc32/v4.10/bin/bin/../../lib/gcc/pic32c/8.3.1/../../../../pic32c/lib/thumb/v8-m.base/nofp/libg-musl.a(__scan_d.o)
 .debug_aranges
                0x00001b40       0x20 /Applications/microchip/xc32/v4.10/bin/bin/../../lib/gcc/pic32c/8.3.1/../../../../pic32c/lib/thumb/v8-m.base/nofp/libg-musl.a(__scan_fp.o)
 .debug_aranges
                0x00001b60       0x20 /Applications/microchip/xc32/v4.10/bin/bin/../../lib/gcc/pic32c/8.3.1/../../../../pic32c/lib/thumb/v8-m.base/nofp/libg-musl.a(__scan_i.o)
 .debug_aranges
                0x00001b80       0x20 /Applications/microchip/xc32/v4.10/bin/bin/../../lib/gcc/pic32c/8.3.1/../../../../pic32c/lib/thumb/v8-m.base/nofp/libg-musl.a(__scan_o.o)
 .debug_aranges
                0x00001ba0       0x20 /Applications/microchip/xc32/v4.10/bin/bin/../../lib/gcc/pic32c/8.3.1/../../../../pic32c/lib/thumb/v8-m.base/nofp/libg-musl.a(__scan_s.o)
 .debug_aranges
                0x00001bc0       0x20 /Applications/microchip/xc32/v4.10/bin/bin/../../lib/gcc/pic32c/8.3.1/../../../../pic32c/lib/thumb/v8-m.base/nofp/libg-musl.a(__scan_u.o)
 .debug_aranges
                0x00001be0       0x20 /Applications/microchip/xc32/v4.10/bin/bin/../../lib/gcc/pic32c/8.3.1/../../../../pic32c/lib/thumb/v8-m.base/nofp/libg-musl.a(__scan_x.o)
 .debug_aranges
                0x00001c00       0x48 /Applications/microchip/xc32/v4.10/bin/bin/../../lib/gcc/pic32c/8.3.1/../../../../pic32c/lib/thumb/v8-m.base/nofp/libg-musl.a(__scanf_core.o)
 .debug_aranges
                0x00001c48       0x30 /Applications/microchip/xc32/v4.10/bin/bin/../../lib/gcc/pic32c/8.3.1/../../../../pic32c/lib/thumb/v8-m.base/nofp/libg-musl.a(__stderr.o)
 .debug_aranges
                0x00001c78       0x28 /Applications/microchip/xc32/v4.10/bin/bin/../../lib/gcc/pic32c/8.3.1/../../../../pic32c/lib/thumb/v8-m.base/nofp/libg-musl.a(__stdio_close.o)
 .debug_aranges
                0x00001ca0       0x30 /Applications/microchip/xc32/v4.10/bin/bin/../../lib/gcc/pic32c/8.3.1/../../../../pic32c/lib/thumb/v8-m.base/nofp/libg-musl.a(__stdio_exit.o)
 .debug_aranges
                0x00001cd0       0x28 /Applications/microchip/xc32/v4.10/bin/bin/../../lib/gcc/pic32c/8.3.1/../../../../pic32c/lib/thumb/v8-m.base/nofp/libg-musl.a(__stdio_write.o)
 .debug_aranges
                0x00001cf8       0x30 /Applications/microchip/xc32/v4.10/bin/bin/../../lib/gcc/pic32c/8.3.1/../../../../pic32c/lib/thumb/v8-m.base/nofp/libg-musl.a(__stdout.o)
 .debug_aranges
                0x00001d28       0x28 /Applications/microchip/xc32/v4.10/bin/bin/../../lib/gcc/pic32c/8.3.1/../../../../pic32c/lib/thumb/v8-m.base/nofp/libg-musl.a(__towrite.o)
 .debug_aranges
                0x00001d50       0x20 /Applications/microchip/xc32/v4.10/bin/bin/../../lib/gcc/pic32c/8.3.1/../../../../pic32c/lib/thumb/v8-m.base/nofp/libg-musl.a(vsnprintf.o)
 .debug_aranges
                0x00001d70       0x38 /Applications/microchip/xc32/v4.10/bin/bin/../../lib/gcc/pic32c/8.3.1/../../../../pic32c/lib/thumb/v8-m.base/nofp/libg-musl.a(strtod.o)
 .debug_aranges
                0x00001da8       0x20 /Applications/microchip/xc32/v4.10/bin/bin/../../lib/gcc/pic32c/8.3.1/../../../../pic32c/lib/thumb/v8-m.base/nofp/libg-musl.a(__month_to_secs.o)
 .debug_aranges
                0x00001dc8       0x20 /Applications/microchip/xc32/v4.10/bin/bin/../../lib/gcc/pic32c/8.3.1/../../../../pic32c/lib/thumb/v8-m.base/nofp/libg-musl.a(__secs_to_tm.o)
 .debug_aranges
                0x00001de8       0x20 /Applications/microchip/xc32/v4.10/bin/bin/../../lib/gcc/pic32c/8.3.1/../../../../pic32c/lib/thumb/v8-m.base/nofp/libg-musl.a(writev.o)
 .debug_aranges
                0x00001e08       0x30 /Applications/microchip/xc32/v4.10/bin/bin/../../lib/gcc/pic32c/8.3.1/../../../../pic32c/lib/thumb/v8-m.base/nofp/libg-musl.a(floatscan.o)
 .debug_aranges
                0x00001e38       0x20 /Applications/microchip/xc32/v4.10/bin/bin/../../lib/gcc/pic32c/8.3.1/../../../../pic32c/lib/thumb/v8-m.base/nofp/libg-musl.a(__overflow.o)
 .debug_aranges
                0x00001e58       0x28 /Applications/microchip/xc32/v4.10/bin/bin/../../lib/gcc/pic32c/8.3.1/../../../../pic32c/lib/thumb/v8-m.base/nofp/libg-musl.a(__toread.o)
 .debug_aranges
                0x00001e80       0x20 /Applications/microchip/xc32/v4.10/bin/bin/../../lib/gcc/pic32c/8.3.1/../../../../pic32c/lib/thumb/v8-m.base/nofp/libg-musl.a(__fclose.o)
 .debug_aranges
                0x00001ea0       0x28 /Applications/microchip/xc32/v4.10/bin/bin/../../lib/gcc/pic32c/8.3.1/../../../../pic32c/lib/thumb/v8-m.base/nofp/libg-musl.a(__fwrite.o)
 .debug_aranges
                0x00001ec8       0x20 /Applications/microchip/xc32/v4.10/bin/bin/../../lib/gcc/pic32c/8.3.1/../../../../pic32c/lib/thumb/v8-m.base/nofp/libg-musl.a(__push_float.o)
 .debug_aranges
                0x00001ee8       0x20 /Applications/microchip/xc32/v4.10/bin/bin/../../lib/gcc/pic32c/8.3.1/../../../../pic32c/lib/thumb/v8-m.base/nofp/libg-musl.a(__push_int.o)
 .debug_aranges
                0x00001f08       0x28 /Applications/microchip/xc32/v4.10/bin/bin/../../lib/gcc/pic32c/8.3.1/../../../../pic32c/lib/thumb/v8-m.base/nofp/libg-musl.a(vfprintf.o)
 .debug_aranges
                0x00001f30       0x20 /Applications/microchip/xc32/v4.10/bin/bin/../../lib/gcc/pic32c/8.3.1/../../../../pic32c/lib/thumb/v8-m.base/nofp/libg-musl.a(__fmt_a.o)
 .debug_aranges
                0x00001f50       0x20 /Applications/microchip/xc32/v4.10/bin/bin/../../lib/gcc/pic32c/8.3.1/../../../../pic32c/lib/thumb/v8-m.base/nofp/libc-musl.a(fprintf.o)
 .debug_aranges
                0x00001f70       0x20 /Applications/microchip/xc32/v4.10/bin/bin/../../lib/gcc/pic32c/8.3.1/../../../../pic32c/lib/thumb/v8-m.base/nofp/libc-musl.a(printf.o)
 .debug_aranges
                0x00001f90       0x20 /Applications/microchip/xc32/v4.10/bin/bin/../../lib/gcc/pic32c/8.3.1/thumb/v8-m.base/nofp/libgcc.a(_thumb1_case_uhi.o)
 .debug_aranges
                0x00001fb0       0x20 /Applications/microchip/xc32/v4.10/bin/bin/../../lib/gcc/pic32c/8.3.1/thumb/v8-m.base/nofp/libgcc.a(_lshrdi3.o)
 .debug_aranges
                0x00001fd0       0x20 /Applications/microchip/xc32/v4.10/bin/bin/../../lib/gcc/pic32c/8.3.1/thumb/v8-m.base/nofp/libgcc.a(_ashldi3.o)
 .debug_aranges
                0x00001ff0       0x20 /Applications/microchip/xc32/v4.10/bin/bin/../../lib/gcc/pic32c/8.3.1/thumb/v8-m.base/nofp/libgcc.a(_aeabi_ldivmod.o)
 .debug_aranges
                0x00002010       0x20 /Applications/microchip/xc32/v4.10/bin/bin/../../lib/gcc/pic32c/8.3.1/thumb/v8-m.base/nofp/libgcc.a(_aeabi_uldivmod.o)
 .debug_aranges
                0x00002030       0x20 /Applications/microchip/xc32/v4.10/bin/bin/../../lib/gcc/pic32c/8.3.1/thumb/v8-m.base/nofp/libgcc.a(_muldi3.o)
 .debug_aranges
                0x00002050       0x20 /Applications/microchip/xc32/v4.10/bin/bin/../../lib/gcc/pic32c/8.3.1/thumb/v8-m.base/nofp/libgcc.a(_udivmoddi4.o)
 .debug_aranges
                0x00002070       0x20 /Applications/microchip/xc32/v4.10/bin/bin/../../lib/gcc/pic32c/8.3.1/thumb/v8-m.base/nofp/libgcc.a(bpabi.o)
 .debug_aranges
                0x00002090       0x20 /Applications/microchip/xc32/v4.10/bin/bin/../../lib/gcc/pic32c/8.3.1/thumb/v8-m.base/nofp/libgcc.a(_dvmd_tls.o)
 .debug_aranges
                0x000020b0       0x20 /Applications/microchip/xc32/v4.10/bin/bin/../../lib/gcc/pic32c/8.3.1/thumb/v8-m.base/nofp/libgcc.a(_clzsi2.o)
 .debug_aranges
                0x000020d0       0x20 /Applications/microchip/xc32/v4.10/bin/bin/../../lib/gcc/pic32c/8.3.1/thumb/v8-m.base/nofp/libgcc.a(_divdi3.o)
 .debug_aranges
                0x000020f0       0x20 /Applications/microchip/xc32/v4.10/bin/bin/../../lib/gcc/pic32c/8.3.1/../../../../pic32c/lib/thumb/v8-m.base/nofp/libpic32c.a(close.o)
 .debug_aranges
                0x00002110       0x20 /Applications/microchip/xc32/v4.10/bin/bin/../../lib/gcc/pic32c/8.3.1/../../../../pic32c/lib/thumb/v8-m.base/nofp/libpic32c.a(lseek.o)
 .debug_aranges
                0x00002130       0x20 /Applications/microchip/xc32/v4.10/bin/bin/../../lib/gcc/pic32c/8.3.1/../../../../pic32c/lib/thumb/v8-m.base/nofp/libpic32c.a(sbrk.o)

.debug_ranges   0x00000000     0x53b8
 .debug_ranges  0x00000000      0x3f8 build/default/debug/_ext/1360937237/azure_iot_pnp_pic32cmls60-curiosity.o
 .debug_ranges  0x000003f8      0xaa0 build/default/debug/_ext/1360937237/main.o
 .debug_ranges  0x00000e98       0x28 build/default/debug/_ext/1360937237/pic32cmls60-curiosity-buttons.o
 .debug_ranges  0x00000ec0       0x18 build/default/debug/_ext/1360937237/pic32cmls60-curiosity-led.o
 .debug_ranges  0x00000ed8       0x90 build/default/debug/_ext/1360937237/pic32cmls60-curiosity-commands.o
 .debug_ranges  0x00000f68      0x5c0 build/default/debug/_ext/1414040249/az_json_reader.o
 .debug_ranges  0x00001528      0x3c8 build/default/debug/_ext/1414040249/az_json_token.o
 .debug_ranges  0x000018f0      0x918 build/default/debug/_ext/1414040249/az_json_writer.o
 .debug_ranges  0x00002208       0x80 build/default/debug/_ext/1414040249/az_log.o
 .debug_ranges  0x00002288       0x20 build/default/debug/_ext/1414040249/az_precondition.o
 .debug_ranges  0x000022a8      0x950 build/default/debug/_ext/1414040249/az_span.o
 .debug_ranges  0x00002bf8      0x1d0 build/default/debug/_ext/1292534426/az_iot_common.o
 .debug_ranges  0x00002dc8       0xd0 build/default/debug/_ext/1292534426/az_iot_hub_client.o
 .debug_ranges  0x00002e98       0x58 build/default/debug/_ext/1292534426/az_iot_hub_client_commands.o
 .debug_ranges  0x00002ef0       0xf0 build/default/debug/_ext/1292534426/az_iot_hub_client_methods.o
 .debug_ranges  0x00002fe0      0x4e0 build/default/debug/_ext/1292534426/az_iot_hub_client_properties.o
 .debug_ranges  0x000034c0       0x30 build/default/debug/_ext/1292534426/az_iot_hub_client_telemetry.o
 .debug_ranges  0x000034f0      0x2f0 build/default/debug/_ext/1292534426/az_iot_hub_client_twin.o
 .debug_ranges  0x000037e0      0x9a8 build/default/debug/_ext/1292534426/az_iot_provisioning_client.o
 .debug_ranges  0x00004188       0x10 build/default/debug/_ext/1434821282/bsp.o
 .debug_ranges  0x00004198       0x70 build/default/debug/_ext/60163342/plib_adc.o
 .debug_ranges  0x00004208       0x38 build/default/debug/_ext/60167341/plib_eic.o
 .debug_ranges  0x00004240       0x28 build/default/debug/_ext/1865468468/plib_nvic.o
 .debug_ranges  0x00004268       0x58 build/default/debug/_ext/504274921/plib_sercom3_usart.o
 .debug_ranges  0x000042c0      0x1f0 build/default/debug/_ext/504274921/plib_sercom2_usart.o
 .debug_ranges  0x000044b0       0x60 build/default/debug/_ext/1827571544/plib_systick.o
 .debug_ranges  0x00004510       0x18 build/default/debug/_ext/163028504/xc32_monitor.o
 .debug_ranges  0x00004528       0x10 build/default/debug/_ext/1171490990/initialization.o
 .debug_ranges  0x00004538       0x10 build/default/debug/_ext/1171490990/interrupts.o
 .debug_ranges  0x00004548       0x18 build/default/debug/_ext/1171490990/exceptions.o
 .debug_ranges  0x00004560       0x18 build/default/debug/_ext/1171490990/startup_xc32.o
 .debug_ranges  0x00004578       0x10 build/default/debug/_ext/1171490990/libc_syscalls.o
 .debug_ranges  0x00004588       0x10 /Applications/microchip/xc32/v4.10/bin/bin/../../lib/gcc/pic32c/8.3.1/../../../../pic32c/lib/thumb/v8-m.base/nofp/libpic32c.a(data_init.o)
 .debug_ranges  0x00004598       0x18 /Applications/microchip/xc32/v4.10/bin/bin/../../lib/gcc/pic32c/8.3.1/../../../../pic32c/lib/thumb/v8-m.base/nofp/libg-musl.a(isxdigit.o)
 .debug_ranges  0x000045b0       0x38 /Applications/microchip/xc32/v4.10/bin/bin/../../lib/gcc/pic32c/8.3.1/../../../../pic32c/lib/thumb/v8-m.base/nofp/libg-musl.a(__libc_start_main.o)
 .debug_ranges  0x000045e8       0x20 /Applications/microchip/xc32/v4.10/bin/bin/../../lib/gcc/pic32c/8.3.1/../../../../pic32c/lib/thumb/v8-m.base/nofp/libg-musl.a(exit.o)
 .debug_ranges  0x00004608      0x1b0 /Applications/microchip/xc32/v4.10/bin/bin/../../lib/gcc/pic32c/8.3.1/../../../../pic32c/lib/thumb/v8-m.base/nofp/libg-musl.a(malloc.o)
 .debug_ranges  0x000047b8       0x10 /Applications/microchip/xc32/v4.10/bin/bin/../../lib/gcc/pic32c/8.3.1/../../../../pic32c/lib/thumb/v8-m.base/nofp/libg-musl.a(expand_heap.o)
 .debug_ranges  0x000047c8       0x10 /Applications/microchip/xc32/v4.10/bin/bin/../../lib/gcc/pic32c/8.3.1/../../../../pic32c/lib/thumb/v8-m.base/nofp/libg-musl.a(__fmt_d.o)
 .debug_ranges  0x000047d8       0x10 /Applications/microchip/xc32/v4.10/bin/bin/../../lib/gcc/pic32c/8.3.1/../../../../pic32c/lib/thumb/v8-m.base/nofp/libg-musl.a(__fmt_fp.o)
 .debug_ranges  0x000047e8       0x10 /Applications/microchip/xc32/v4.10/bin/bin/../../lib/gcc/pic32c/8.3.1/../../../../pic32c/lib/thumb/v8-m.base/nofp/libg-musl.a(__fmt_o.o)
 .debug_ranges  0x000047f8       0x10 /Applications/microchip/xc32/v4.10/bin/bin/../../lib/gcc/pic32c/8.3.1/../../../../pic32c/lib/thumb/v8-m.base/nofp/libg-musl.a(__fmt_s.o)
 .debug_ranges  0x00004808       0x18 /Applications/microchip/xc32/v4.10/bin/bin/../../lib/gcc/pic32c/8.3.1/../../../../pic32c/lib/thumb/v8-m.base/nofp/libg-musl.a(__fmt_u.o)
 .debug_ranges  0x00004820       0x10 /Applications/microchip/xc32/v4.10/bin/bin/../../lib/gcc/pic32c/8.3.1/../../../../pic32c/lib/thumb/v8-m.base/nofp/libg-musl.a(__fmt_x.o)
 .debug_ranges  0x00004830       0x58 /Applications/microchip/xc32/v4.10/bin/bin/../../lib/gcc/pic32c/8.3.1/../../../../pic32c/lib/thumb/v8-m.base/nofp/libg-musl.a(__printf_core.o)
 .debug_ranges  0x00004888       0x20 /Applications/microchip/xc32/v4.10/bin/bin/../../lib/gcc/pic32c/8.3.1/../../../../pic32c/lib/thumb/v8-m.base/nofp/libg-musl.a(fflush.o)
 .debug_ranges  0x000048a8       0x18 /Applications/microchip/xc32/v4.10/bin/bin/../../lib/gcc/pic32c/8.3.1/../../../../pic32c/lib/thumb/v8-m.base/nofp/libg-musl.a(fwrite.o)
 .debug_ranges  0x000048c0       0x20 /Applications/microchip/xc32/v4.10/bin/bin/../../lib/gcc/pic32c/8.3.1/../../../../pic32c/lib/thumb/v8-m.base/nofp/libg-musl.a(putc.o)
 .debug_ranges  0x000048e0       0x10 /Applications/microchip/xc32/v4.10/bin/bin/../../lib/gcc/pic32c/8.3.1/../../../../pic32c/lib/thumb/v8-m.base/nofp/libg-musl.a(sscanf.o)
 .debug_ranges  0x000048f0       0x18 /Applications/microchip/xc32/v4.10/bin/bin/../../lib/gcc/pic32c/8.3.1/../../../../pic32c/lib/thumb/v8-m.base/nofp/libg-musl.a(stdin.o)
 .debug_ranges  0x00004908       0x20 /Applications/microchip/xc32/v4.10/bin/bin/../../lib/gcc/pic32c/8.3.1/../../../../pic32c/lib/thumb/v8-m.base/nofp/libg-musl.a(stdout.o)
 .debug_ranges  0x00004928       0x18 /Applications/microchip/xc32/v4.10/bin/bin/../../lib/gcc/pic32c/8.3.1/../../../../pic32c/lib/thumb/v8-m.base/nofp/libg-musl.a(vsscanf.o)
 .debug_ranges  0x00004940       0x10 /Applications/microchip/xc32/v4.10/bin/bin/../../lib/gcc/pic32c/8.3.1/../../../../pic32c/lib/thumb/v8-m.base/nofp/libg-musl.a(puts.o)
 .debug_ranges  0x00004950       0x10 /Applications/microchip/xc32/v4.10/bin/bin/../../lib/gcc/pic32c/8.3.1/../../../../pic32c/lib/thumb/v8-m.base/nofp/libg-musl.a(setbuf.o)
 .debug_ranges  0x00004960       0x10 /Applications/microchip/xc32/v4.10/bin/bin/../../lib/gcc/pic32c/8.3.1/../../../../pic32c/lib/thumb/v8-m.base/nofp/libg-musl.a(atoi.o)
 .debug_ranges  0x00004970       0x10 /Applications/microchip/xc32/v4.10/bin/bin/../../lib/gcc/pic32c/8.3.1/../../../../pic32c/lib/thumb/v8-m.base/nofp/libg-musl.a(div.o)
 .debug_ranges  0x00004980       0x10 /Applications/microchip/xc32/v4.10/bin/bin/../../lib/gcc/pic32c/8.3.1/../../../../pic32c/lib/thumb/v8-m.base/nofp/libg-musl.a(memcmp.o)
 .debug_ranges  0x00004990       0x10 /Applications/microchip/xc32/v4.10/bin/bin/../../lib/gcc/pic32c/8.3.1/../../../../pic32c/lib/thumb/v8-m.base/nofp/libg-musl.a(memcpy.o)
 .debug_ranges  0x000049a0       0x10 /Applications/microchip/xc32/v4.10/bin/bin/../../lib/gcc/pic32c/8.3.1/../../../../pic32c/lib/thumb/v8-m.base/nofp/libg-musl.a(memmove.o)
 .debug_ranges  0x000049b0       0x10 /Applications/microchip/xc32/v4.10/bin/bin/../../lib/gcc/pic32c/8.3.1/../../../../pic32c/lib/thumb/v8-m.base/nofp/libg-musl.a(memset.o)
 .debug_ranges  0x000049c0       0x10 /Applications/microchip/xc32/v4.10/bin/bin/../../lib/gcc/pic32c/8.3.1/../../../../pic32c/lib/thumb/v8-m.base/nofp/libg-musl.a(strlen.o)
 .debug_ranges  0x000049d0       0x10 /Applications/microchip/xc32/v4.10/bin/bin/../../lib/gcc/pic32c/8.3.1/../../../../pic32c/lib/thumb/v8-m.base/nofp/libg-musl.a(strcpy.o)
 .debug_ranges  0x000049e0       0x10 /Applications/microchip/xc32/v4.10/bin/bin/../../lib/gcc/pic32c/8.3.1/../../../../pic32c/lib/thumb/v8-m.base/nofp/libg-musl.a(strlcat.o)
 .debug_ranges  0x000049f0       0x10 /Applications/microchip/xc32/v4.10/bin/bin/../../lib/gcc/pic32c/8.3.1/../../../../pic32c/lib/thumb/v8-m.base/nofp/libg-musl.a(strlcpy.o)
 .debug_ranges  0x00004a00       0x10 /Applications/microchip/xc32/v4.10/bin/bin/../../lib/gcc/pic32c/8.3.1/../../../../pic32c/lib/thumb/v8-m.base/nofp/libg-musl.a(strnlen.o)
 .debug_ranges  0x00004a10       0x10 /Applications/microchip/xc32/v4.10/bin/bin/../../lib/gcc/pic32c/8.3.1/../../../../pic32c/lib/thumb/v8-m.base/nofp/libg-musl.a(localtime.o)
 .debug_ranges  0x00004a20       0x78 /Applications/microchip/xc32/v4.10/bin/bin/../../lib/gcc/pic32c/8.3.1/../../../../pic32c/lib/thumb/v8-m.base/nofp/libg-musl.a(strftime.o)
 .debug_ranges  0x00004a98       0x10 /Applications/microchip/xc32/v4.10/bin/bin/../../lib/gcc/pic32c/8.3.1/../../../../pic32c/lib/thumb/v8-m.base/nofp/libg-musl.a(time.o)
 .debug_ranges  0x00004aa8       0x18 /Applications/microchip/xc32/v4.10/bin/bin/../../lib/gcc/pic32c/8.3.1/../../../../pic32c/lib/thumb/v8-m.base/nofp/libg-musl.a(tolower.o)
 .debug_ranges  0x00004ac0       0x18 /Applications/microchip/xc32/v4.10/bin/bin/../../lib/gcc/pic32c/8.3.1/../../../../pic32c/lib/thumb/v8-m.base/nofp/libg-musl.a(toupper.o)
 .debug_ranges  0x00004ad8       0x10 /Applications/microchip/xc32/v4.10/bin/bin/../../lib/gcc/pic32c/8.3.1/../../../../pic32c/lib/thumb/v8-m.base/nofp/libg-musl.a(_Exit.o)
 .debug_ranges  0x00004ae8       0x18 /Applications/microchip/xc32/v4.10/bin/bin/../../lib/gcc/pic32c/8.3.1/../../../../pic32c/lib/thumb/v8-m.base/nofp/libg-musl.a(langinfo.o)
 .debug_ranges  0x00004b00       0x10 /Applications/microchip/xc32/v4.10/bin/bin/../../lib/gcc/pic32c/8.3.1/../../../../pic32c/lib/thumb/v8-m.base/nofp/libg-musl.a(__string_read.o)
 .debug_ranges  0x00004b10       0x10 /Applications/microchip/xc32/v4.10/bin/bin/../../lib/gcc/pic32c/8.3.1/../../../../pic32c/lib/thumb/v8-m.base/nofp/libg-musl.a(fputs.o)
 .debug_ranges  0x00004b20       0x18 /Applications/microchip/xc32/v4.10/bin/bin/../../lib/gcc/pic32c/8.3.1/../../../../pic32c/lib/thumb/v8-m.base/nofp/libg-musl.a(__out.o)
 .debug_ranges  0x00004b38       0x10 /Applications/microchip/xc32/v4.10/bin/bin/../../lib/gcc/pic32c/8.3.1/../../../../pic32c/lib/thumb/v8-m.base/nofp/libg-musl.a(__pop_float.o)
 .debug_ranges  0x00004b48       0x10 /Applications/microchip/xc32/v4.10/bin/bin/../../lib/gcc/pic32c/8.3.1/../../../../pic32c/lib/thumb/v8-m.base/nofp/libg-musl.a(__pop_int.o)
 .debug_ranges  0x00004b58       0x10 /Applications/microchip/xc32/v4.10/bin/bin/../../lib/gcc/pic32c/8.3.1/../../../../pic32c/lib/thumb/v8-m.base/nofp/libg-musl.a(__pop_ptr.o)
 .debug_ranges  0x00004b68       0x10 /Applications/microchip/xc32/v4.10/bin/bin/../../lib/gcc/pic32c/8.3.1/../../../../pic32c/lib/thumb/v8-m.base/nofp/libg-musl.a(__stdio_read.o)
 .debug_ranges  0x00004b78       0x10 /Applications/microchip/xc32/v4.10/bin/bin/../../lib/gcc/pic32c/8.3.1/../../../../pic32c/lib/thumb/v8-m.base/nofp/libg-musl.a(__towrite_rw.o)
 .debug_ranges  0x00004b88       0x18 /Applications/microchip/xc32/v4.10/bin/bin/../../lib/gcc/pic32c/8.3.1/../../../../pic32c/lib/thumb/v8-m.base/nofp/libg-musl.a(setvbuf.o)
 .debug_ranges  0x00004ba0       0x18 /Applications/microchip/xc32/v4.10/bin/bin/../../lib/gcc/pic32c/8.3.1/../../../../pic32c/lib/thumb/v8-m.base/nofp/libg-musl.a(vfscanf.o)
 .debug_ranges  0x00004bb8       0x10 /Applications/microchip/xc32/v4.10/bin/bin/../../lib/gcc/pic32c/8.3.1/../../../../pic32c/lib/thumb/v8-m.base/nofp/libg-musl.a(snprintf.o)
 .debug_ranges  0x00004bc8       0x10 /Applications/microchip/xc32/v4.10/bin/bin/../../lib/gcc/pic32c/8.3.1/../../../../pic32c/lib/thumb/v8-m.base/nofp/libg-musl.a(abs.o)
 .debug_ranges  0x00004bd8       0x40 /Applications/microchip/xc32/v4.10/bin/bin/../../lib/gcc/pic32c/8.3.1/../../../../pic32c/lib/thumb/v8-m.base/nofp/libg-musl.a(strtol.o)
 .debug_ranges  0x00004c18       0x10 /Applications/microchip/xc32/v4.10/bin/bin/../../lib/gcc/pic32c/8.3.1/../../../../pic32c/lib/thumb/v8-m.base/nofp/libg-musl.a(memchr.o)
 .debug_ranges  0x00004c28       0x10 /Applications/microchip/xc32/v4.10/bin/bin/../../lib/gcc/pic32c/8.3.1/../../../../pic32c/lib/thumb/v8-m.base/nofp/libg-musl.a(stpcpy.o)
 .debug_ranges  0x00004c38       0x10 /Applications/microchip/xc32/v4.10/bin/bin/../../lib/gcc/pic32c/8.3.1/../../../../pic32c/lib/thumb/v8-m.base/nofp/libg-musl.a(__tm_to_secs.o)
 .debug_ranges  0x00004c48       0x28 /Applications/microchip/xc32/v4.10/bin/bin/../../lib/gcc/pic32c/8.3.1/../../../../pic32c/lib/thumb/v8-m.base/nofp/libg-musl.a(__year_to_secs.o)
 .debug_ranges  0x00004c70       0x88 /Applications/microchip/xc32/v4.10/bin/bin/../../lib/gcc/pic32c/8.3.1/../../../../pic32c/lib/thumb/v8-m.base/nofp/libg-musl.a(__tz.o)
 .debug_ranges  0x00004cf8       0x10 /Applications/microchip/xc32/v4.10/bin/bin/../../lib/gcc/pic32c/8.3.1/../../../../pic32c/lib/thumb/v8-m.base/nofp/libg-musl.a(clock_gettime.o)
 .debug_ranges  0x00004d08       0x10 /Applications/microchip/xc32/v4.10/bin/bin/../../lib/gcc/pic32c/8.3.1/../../../../pic32c/lib/thumb/v8-m.base/nofp/libg-musl.a(gettimeofday.o)
 .debug_ranges  0x00004d18       0x10 /Applications/microchip/xc32/v4.10/bin/bin/../../lib/gcc/pic32c/8.3.1/../../../../pic32c/lib/thumb/v8-m.base/nofp/libg-musl.a(gmtime_r.o)
 .debug_ranges  0x00004d28       0x10 /Applications/microchip/xc32/v4.10/bin/bin/../../lib/gcc/pic32c/8.3.1/../../../../pic32c/lib/thumb/v8-m.base/nofp/libg-musl.a(readv.o)
 .debug_ranges  0x00004d38       0x10 /Applications/microchip/xc32/v4.10/bin/bin/../../lib/gcc/pic32c/8.3.1/../../../../pic32c/lib/thumb/v8-m.base/nofp/libg-musl.a(intscan.o)
 .debug_ranges  0x00004d48       0x10 /Applications/microchip/xc32/v4.10/bin/bin/../../lib/gcc/pic32c/8.3.1/../../../../pic32c/lib/thumb/v8-m.base/nofp/libg-musl.a(syscall_ret.o)
 .debug_ranges  0x00004d58       0x18 /Applications/microchip/xc32/v4.10/bin/bin/../../lib/gcc/pic32c/8.3.1/../../../../pic32c/lib/thumb/v8-m.base/nofp/libg-musl.a(shgetc.o)
 .debug_ranges  0x00004d70       0x10 /Applications/microchip/xc32/v4.10/bin/bin/../../lib/gcc/pic32c/8.3.1/../../../../pic32c/lib/thumb/v8-m.base/nofp/libg-musl.a(__uflow.o)
 .debug_ranges  0x00004d80       0x18 /Applications/microchip/xc32/v4.10/bin/bin/../../lib/gcc/pic32c/8.3.1/../../../../pic32c/lib/thumb/v8-m.base/nofp/libg-musl.a(__init_stdio.o)
 .debug_ranges  0x00004d98       0x10 /Applications/microchip/xc32/v4.10/bin/bin/../../lib/gcc/pic32c/8.3.1/../../../../pic32c/lib/thumb/v8-m.base/nofp/libg-musl.a(__putc.o)
 .debug_ranges  0x00004da8       0x20 /Applications/microchip/xc32/v4.10/bin/bin/../../lib/gcc/pic32c/8.3.1/../../../../pic32c/lib/thumb/v8-m.base/nofp/libg-musl.a(__scan_d.o)
 .debug_ranges  0x00004dc8       0x30 /Applications/microchip/xc32/v4.10/bin/bin/../../lib/gcc/pic32c/8.3.1/../../../../pic32c/lib/thumb/v8-m.base/nofp/libg-musl.a(__scan_fp.o)
 .debug_ranges  0x00004df8       0x10 /Applications/microchip/xc32/v4.10/bin/bin/../../lib/gcc/pic32c/8.3.1/../../../../pic32c/lib/thumb/v8-m.base/nofp/libg-musl.a(__scan_i.o)
 .debug_ranges  0x00004e08       0x10 /Applications/microchip/xc32/v4.10/bin/bin/../../lib/gcc/pic32c/8.3.1/../../../../pic32c/lib/thumb/v8-m.base/nofp/libg-musl.a(__scan_o.o)
 .debug_ranges  0x00004e18       0x10 /Applications/microchip/xc32/v4.10/bin/bin/../../lib/gcc/pic32c/8.3.1/../../../../pic32c/lib/thumb/v8-m.base/nofp/libg-musl.a(__scan_s.o)
 .debug_ranges  0x00004e28       0x10 /Applications/microchip/xc32/v4.10/bin/bin/../../lib/gcc/pic32c/8.3.1/../../../../pic32c/lib/thumb/v8-m.base/nofp/libg-musl.a(__scan_u.o)
 .debug_ranges  0x00004e38       0x10 /Applications/microchip/xc32/v4.10/bin/bin/../../lib/gcc/pic32c/8.3.1/../../../../pic32c/lib/thumb/v8-m.base/nofp/libg-musl.a(__scan_x.o)
 .debug_ranges  0x00004e48       0x98 /Applications/microchip/xc32/v4.10/bin/bin/../../lib/gcc/pic32c/8.3.1/../../../../pic32c/lib/thumb/v8-m.base/nofp/libg-musl.a(__scanf_core.o)
 .debug_ranges  0x00004ee0       0x20 /Applications/microchip/xc32/v4.10/bin/bin/../../lib/gcc/pic32c/8.3.1/../../../../pic32c/lib/thumb/v8-m.base/nofp/libg-musl.a(__stderr.o)
 .debug_ranges  0x00004f00       0x18 /Applications/microchip/xc32/v4.10/bin/bin/../../lib/gcc/pic32c/8.3.1/../../../../pic32c/lib/thumb/v8-m.base/nofp/libg-musl.a(__stdio_close.o)
 .debug_ranges  0x00004f18       0x20 /Applications/microchip/xc32/v4.10/bin/bin/../../lib/gcc/pic32c/8.3.1/../../../../pic32c/lib/thumb/v8-m.base/nofp/libg-musl.a(__stdio_exit.o)
 .debug_ranges  0x00004f38       0x30 /Applications/microchip/xc32/v4.10/bin/bin/../../lib/gcc/pic32c/8.3.1/../../../../pic32c/lib/thumb/v8-m.base/nofp/libg-musl.a(__stdio_write.o)
 .debug_ranges  0x00004f68       0x20 /Applications/microchip/xc32/v4.10/bin/bin/../../lib/gcc/pic32c/8.3.1/../../../../pic32c/lib/thumb/v8-m.base/nofp/libg-musl.a(__stdout.o)
 .debug_ranges  0x00004f88       0x18 /Applications/microchip/xc32/v4.10/bin/bin/../../lib/gcc/pic32c/8.3.1/../../../../pic32c/lib/thumb/v8-m.base/nofp/libg-musl.a(__towrite.o)
 .debug_ranges  0x00004fa0       0x10 /Applications/microchip/xc32/v4.10/bin/bin/../../lib/gcc/pic32c/8.3.1/../../../../pic32c/lib/thumb/v8-m.base/nofp/libg-musl.a(vsnprintf.o)
 .debug_ranges  0x00004fb0       0x28 /Applications/microchip/xc32/v4.10/bin/bin/../../lib/gcc/pic32c/8.3.1/../../../../pic32c/lib/thumb/v8-m.base/nofp/libg-musl.a(strtod.o)
 .debug_ranges  0x00004fd8       0x10 /Applications/microchip/xc32/v4.10/bin/bin/../../lib/gcc/pic32c/8.3.1/../../../../pic32c/lib/thumb/v8-m.base/nofp/libg-musl.a(__month_to_secs.o)
 .debug_ranges  0x00004fe8       0x10 /Applications/microchip/xc32/v4.10/bin/bin/../../lib/gcc/pic32c/8.3.1/../../../../pic32c/lib/thumb/v8-m.base/nofp/libg-musl.a(__secs_to_tm.o)
 .debug_ranges  0x00004ff8       0x10 /Applications/microchip/xc32/v4.10/bin/bin/../../lib/gcc/pic32c/8.3.1/../../../../pic32c/lib/thumb/v8-m.base/nofp/libg-musl.a(writev.o)
 .debug_ranges  0x00005008      0x128 /Applications/microchip/xc32/v4.10/bin/bin/../../lib/gcc/pic32c/8.3.1/../../../../pic32c/lib/thumb/v8-m.base/nofp/libg-musl.a(floatscan.o)
 .debug_ranges  0x00005130       0x10 /Applications/microchip/xc32/v4.10/bin/bin/../../lib/gcc/pic32c/8.3.1/../../../../pic32c/lib/thumb/v8-m.base/nofp/libg-musl.a(__overflow.o)
 .debug_ranges  0x00005140       0x18 /Applications/microchip/xc32/v4.10/bin/bin/../../lib/gcc/pic32c/8.3.1/../../../../pic32c/lib/thumb/v8-m.base/nofp/libg-musl.a(__toread.o)
 .debug_ranges  0x00005158       0x10 /Applications/microchip/xc32/v4.10/bin/bin/../../lib/gcc/pic32c/8.3.1/../../../../pic32c/lib/thumb/v8-m.base/nofp/libg-musl.a(__fclose.o)
 .debug_ranges  0x00005168       0x18 /Applications/microchip/xc32/v4.10/bin/bin/../../lib/gcc/pic32c/8.3.1/../../../../pic32c/lib/thumb/v8-m.base/nofp/libg-musl.a(__fwrite.o)
 .debug_ranges  0x00005180       0x10 /Applications/microchip/xc32/v4.10/bin/bin/../../lib/gcc/pic32c/8.3.1/../../../../pic32c/lib/thumb/v8-m.base/nofp/libg-musl.a(__push_float.o)
 .debug_ranges  0x00005190       0x10 /Applications/microchip/xc32/v4.10/bin/bin/../../lib/gcc/pic32c/8.3.1/../../../../pic32c/lib/thumb/v8-m.base/nofp/libg-musl.a(__push_int.o)
 .debug_ranges  0x000051a0       0x18 /Applications/microchip/xc32/v4.10/bin/bin/../../lib/gcc/pic32c/8.3.1/../../../../pic32c/lib/thumb/v8-m.base/nofp/libg-musl.a(vfprintf.o)
 .debug_ranges  0x000051b8       0x10 /Applications/microchip/xc32/v4.10/bin/bin/../../lib/gcc/pic32c/8.3.1/../../../../pic32c/lib/thumb/v8-m.base/nofp/libg-musl.a(__fmt_a.o)
 .debug_ranges  0x000051c8       0x10 /Applications/microchip/xc32/v4.10/bin/bin/../../lib/gcc/pic32c/8.3.1/../../../../pic32c/lib/thumb/v8-m.base/nofp/libc-musl.a(fprintf.o)
 .debug_ranges  0x000051d8       0x10 /Applications/microchip/xc32/v4.10/bin/bin/../../lib/gcc/pic32c/8.3.1/../../../../pic32c/lib/thumb/v8-m.base/nofp/libc-musl.a(printf.o)
 .debug_ranges  0x000051e8       0x28 /Applications/microchip/xc32/v4.10/bin/bin/../../lib/gcc/pic32c/8.3.1/thumb/v8-m.base/nofp/libgcc.a(_muldi3.o)
 .debug_ranges  0x00005210       0xb0 /Applications/microchip/xc32/v4.10/bin/bin/../../lib/gcc/pic32c/8.3.1/thumb/v8-m.base/nofp/libgcc.a(_udivmoddi4.o)
 .debug_ranges  0x000052c0       0xc8 /Applications/microchip/xc32/v4.10/bin/bin/../../lib/gcc/pic32c/8.3.1/thumb/v8-m.base/nofp/libgcc.a(_divdi3.o)
 .debug_ranges  0x00005388       0x10 /Applications/microchip/xc32/v4.10/bin/bin/../../lib/gcc/pic32c/8.3.1/../../../../pic32c/lib/thumb/v8-m.base/nofp/libpic32c.a(close.o)
 .debug_ranges  0x00005398       0x10 /Applications/microchip/xc32/v4.10/bin/bin/../../lib/gcc/pic32c/8.3.1/../../../../pic32c/lib/thumb/v8-m.base/nofp/libpic32c.a(lseek.o)
 .debug_ranges  0x000053a8       0x10 /Applications/microchip/xc32/v4.10/bin/bin/../../lib/gcc/pic32c/8.3.1/../../../../pic32c/lib/thumb/v8-m.base/nofp/libpic32c.a(sbrk.o)

.debug_line     0x00000000    0x26396
 .debug_line    0x00000000     0x1824 build/default/debug/_ext/1360937237/azure_iot_pnp_pic32cmls60-curiosity.o
 .debug_line    0x00001824     0x7881 build/default/debug/_ext/1360937237/main.o
 .debug_line    0x000090a5      0x209 build/default/debug/_ext/1360937237/pic32cmls60-curiosity-buttons.o
 .debug_line    0x000092ae      0x177 build/default/debug/_ext/1360937237/pic32cmls60-curiosity-led.o
 .debug_line    0x00009425      0x776 build/default/debug/_ext/1360937237/pic32cmls60-curiosity-commands.o
 .debug_line    0x00009b9b     0x1458 build/default/debug/_ext/1414040249/az_json_reader.o
 .debug_line    0x0000aff3      0xe16 build/default/debug/_ext/1414040249/az_json_token.o
 .debug_line    0x0000be09     0x1900 build/default/debug/_ext/1414040249/az_json_writer.o
 .debug_line    0x0000d709      0x2ef build/default/debug/_ext/1414040249/az_log.o
 .debug_line    0x0000d9f8      0x169 build/default/debug/_ext/1414040249/az_precondition.o
 .debug_line    0x0000db61     0x1e12 build/default/debug/_ext/1414040249/az_span.o
 .debug_line    0x0000f973      0x8ab build/default/debug/_ext/1292534426/az_iot_common.o
 .debug_line    0x0001021e      0x670 build/default/debug/_ext/1292534426/az_iot_hub_client.o
 .debug_line    0x0001088e      0x2fe build/default/debug/_ext/1292534426/az_iot_hub_client_commands.o
 .debug_line    0x00010b8c      0x59f build/default/debug/_ext/1292534426/az_iot_hub_client_methods.o
 .debug_line    0x0001112b      0xb0b build/default/debug/_ext/1292534426/az_iot_hub_client_properties.o
 .debug_line    0x00011c36      0x2f2 build/default/debug/_ext/1292534426/az_iot_hub_client_telemetry.o
 .debug_line    0x00011f28      0x83b build/default/debug/_ext/1292534426/az_iot_hub_client_twin.o
 .debug_line    0x00012763     0x1309 build/default/debug/_ext/1292534426/az_iot_provisioning_client.o
 .debug_line    0x00013a6c       0xdc build/default/debug/_ext/1434821282/bsp.o
 .debug_line    0x00013b48      0x384 build/default/debug/_ext/60163342/plib_adc.o
 .debug_line    0x00013ecc      0x276 build/default/debug/_ext/60167341/plib_eic.o
 .debug_line    0x00014142      0x3d8 build/default/debug/_ext/1865468468/plib_nvic.o
 .debug_line    0x0001451a      0x4c2 build/default/debug/_ext/504274921/plib_sercom3_usart.o
 .debug_line    0x000149dc      0xc19 build/default/debug/_ext/504274921/plib_sercom2_usart.o
 .debug_line    0x000155f5      0x311 build/default/debug/_ext/1827571544/plib_systick.o
 .debug_line    0x00015906      0x12b build/default/debug/_ext/163028504/xc32_monitor.o
 .debug_line    0x00015a31      0x25f build/default/debug/_ext/1171490990/initialization.o
 .debug_line    0x00015c90       0xb8 build/default/debug/_ext/1171490990/interrupts.o
 .debug_line    0x00015d48       0x70 build/default/debug/_ext/1171490990/exceptions.o
 .debug_line    0x00015db8      0x152 build/default/debug/_ext/1171490990/startup_xc32.o
 .debug_line    0x00015f0a       0x5c build/default/debug/_ext/1171490990/libc_syscalls.o
 .debug_line    0x00015f66      0x12f /Applications/microchip/xc32/v4.10/bin/bin/../../lib/gcc/pic32c/8.3.1/../../../../pic32c/lib/thumb/v8-m.base/nofp/libpic32c.a(data_init.o)
 .debug_line    0x00016095      0x17f /Applications/microchip/xc32/v4.10/bin/bin/../../lib/gcc/pic32c/8.3.1/../../../../pic32c/lib/thumb/v8-m.base/nofp/libg-musl.a(isxdigit.o)
 .debug_line    0x00016214      0x1d3 /Applications/microchip/xc32/v4.10/bin/bin/../../lib/gcc/pic32c/8.3.1/../../../../pic32c/lib/thumb/v8-m.base/nofp/libg-musl.a(__libc_start_main.o)
 .debug_line    0x000163e7      0x193 /Applications/microchip/xc32/v4.10/bin/bin/../../lib/gcc/pic32c/8.3.1/../../../../pic32c/lib/thumb/v8-m.base/nofp/libg-musl.a(exit.o)
 .debug_line    0x0001657a       0xbf /Applications/microchip/xc32/v4.10/bin/bin/../../lib/gcc/pic32c/8.3.1/../../../../pic32c/lib/thumb/v8-m.base/nofp/libg-musl.a(libc.o)
 .debug_line    0x00016639      0xb25 /Applications/microchip/xc32/v4.10/bin/bin/../../lib/gcc/pic32c/8.3.1/../../../../pic32c/lib/thumb/v8-m.base/nofp/libg-musl.a(malloc.o)
 .debug_line    0x0001715e       0xf6 /Applications/microchip/xc32/v4.10/bin/bin/../../lib/gcc/pic32c/8.3.1/../../../../pic32c/lib/thumb/v8-m.base/nofp/libg-musl.a(expand_heap.o)
 .debug_line    0x00017254      0x21e /Applications/microchip/xc32/v4.10/bin/bin/../../lib/gcc/pic32c/8.3.1/../../../../pic32c/lib/thumb/v8-m.base/nofp/libg-musl.a(__fmt_d.o)
 .debug_line    0x00017472      0x6a8 /Applications/microchip/xc32/v4.10/bin/bin/../../lib/gcc/pic32c/8.3.1/../../../../pic32c/lib/thumb/v8-m.base/nofp/libg-musl.a(__fmt_fp.o)
 .debug_line    0x00017b1a      0x1d9 /Applications/microchip/xc32/v4.10/bin/bin/../../lib/gcc/pic32c/8.3.1/../../../../pic32c/lib/thumb/v8-m.base/nofp/libg-musl.a(__fmt_o.o)
 .debug_line    0x00017cf3      0x222 /Applications/microchip/xc32/v4.10/bin/bin/../../lib/gcc/pic32c/8.3.1/../../../../pic32c/lib/thumb/v8-m.base/nofp/libg-musl.a(__fmt_s.o)
 .debug_line    0x00017f15      0x256 /Applications/microchip/xc32/v4.10/bin/bin/../../lib/gcc/pic32c/8.3.1/../../../../pic32c/lib/thumb/v8-m.base/nofp/libg-musl.a(__fmt_u.o)
 .debug_line    0x0001816b      0x30a /Applications/microchip/xc32/v4.10/bin/bin/../../lib/gcc/pic32c/8.3.1/../../../../pic32c/lib/thumb/v8-m.base/nofp/libg-musl.a(__fmt_x.o)
 .debug_line    0x00018475      0x6e5 /Applications/microchip/xc32/v4.10/bin/bin/../../lib/gcc/pic32c/8.3.1/../../../../pic32c/lib/thumb/v8-m.base/nofp/libg-musl.a(__printf_core.o)
 .debug_line    0x00018b5a      0x1b4 /Applications/microchip/xc32/v4.10/bin/bin/../../lib/gcc/pic32c/8.3.1/../../../../pic32c/lib/thumb/v8-m.base/nofp/libg-musl.a(fflush.o)
 .debug_line    0x00018d0e      0x20f /Applications/microchip/xc32/v4.10/bin/bin/../../lib/gcc/pic32c/8.3.1/../../../../pic32c/lib/thumb/v8-m.base/nofp/libg-musl.a(fwrite.o)
 .debug_line    0x00018f1d      0x1b7 /Applications/microchip/xc32/v4.10/bin/bin/../../lib/gcc/pic32c/8.3.1/../../../../pic32c/lib/thumb/v8-m.base/nofp/libg-musl.a(putc.o)
 .debug_line    0x000190d4      0x169 /Applications/microchip/xc32/v4.10/bin/bin/../../lib/gcc/pic32c/8.3.1/../../../../pic32c/lib/thumb/v8-m.base/nofp/libg-musl.a(sscanf.o)
 .debug_line    0x0001923d      0x1ed /Applications/microchip/xc32/v4.10/bin/bin/../../lib/gcc/pic32c/8.3.1/../../../../pic32c/lib/thumb/v8-m.base/nofp/libg-musl.a(stdin.o)
 .debug_line    0x0001942a      0x1a5 /Applications/microchip/xc32/v4.10/bin/bin/../../lib/gcc/pic32c/8.3.1/../../../../pic32c/lib/thumb/v8-m.base/nofp/libg-musl.a(stdout.o)
 .debug_line    0x000195cf      0x214 /Applications/microchip/xc32/v4.10/bin/bin/../../lib/gcc/pic32c/8.3.1/../../../../pic32c/lib/thumb/v8-m.base/nofp/libg-musl.a(vsscanf.o)
 .debug_line    0x000197e3      0x1e4 /Applications/microchip/xc32/v4.10/bin/bin/../../lib/gcc/pic32c/8.3.1/../../../../pic32c/lib/thumb/v8-m.base/nofp/libg-musl.a(puts.o)
 .debug_line    0x000199c7      0x147 /Applications/microchip/xc32/v4.10/bin/bin/../../lib/gcc/pic32c/8.3.1/../../../../pic32c/lib/thumb/v8-m.base/nofp/libg-musl.a(setbuf.o)
 .debug_line    0x00019b0e      0x187 /Applications/microchip/xc32/v4.10/bin/bin/../../lib/gcc/pic32c/8.3.1/../../../../pic32c/lib/thumb/v8-m.base/nofp/libg-musl.a(atoi.o)
 .debug_line    0x00019c95      0x129 /Applications/microchip/xc32/v4.10/bin/bin/../../lib/gcc/pic32c/8.3.1/../../../../pic32c/lib/thumb/v8-m.base/nofp/libg-musl.a(div.o)
 .debug_line    0x00019dbe       0xeb /Applications/microchip/xc32/v4.10/bin/bin/../../lib/gcc/pic32c/8.3.1/../../../../pic32c/lib/thumb/v8-m.base/nofp/libg-musl.a(memcmp.o)
 .debug_line    0x00019ea9       0xf7 /Applications/microchip/xc32/v4.10/bin/bin/../../lib/gcc/pic32c/8.3.1/../../../../pic32c/lib/thumb/v8-m.base/nofp/libg-musl.a(memcpy.o)
 .debug_line    0x00019fa0      0x10b /Applications/microchip/xc32/v4.10/bin/bin/../../lib/gcc/pic32c/8.3.1/../../../../pic32c/lib/thumb/v8-m.base/nofp/libg-musl.a(memmove.o)
 .debug_line    0x0001a0ab       0xeb /Applications/microchip/xc32/v4.10/bin/bin/../../lib/gcc/pic32c/8.3.1/../../../../pic32c/lib/thumb/v8-m.base/nofp/libg-musl.a(memset.o)
 .debug_line    0x0001a196       0xf2 /Applications/microchip/xc32/v4.10/bin/bin/../../lib/gcc/pic32c/8.3.1/../../../../pic32c/lib/thumb/v8-m.base/nofp/libg-musl.a(strlen.o)
 .debug_line    0x0001a288       0xbc /Applications/microchip/xc32/v4.10/bin/bin/../../lib/gcc/pic32c/8.3.1/../../../../pic32c/lib/thumb/v8-m.base/nofp/libg-musl.a(strcpy.o)
 .debug_line    0x0001a344      0x171 /Applications/microchip/xc32/v4.10/bin/bin/../../lib/gcc/pic32c/8.3.1/../../../../pic32c/lib/thumb/v8-m.base/nofp/libg-musl.a(strlcat.o)
 .debug_line    0x0001a4b5      0x1d7 /Applications/microchip/xc32/v4.10/bin/bin/../../lib/gcc/pic32c/8.3.1/../../../../pic32c/lib/thumb/v8-m.base/nofp/libg-musl.a(strlcpy.o)
 .debug_line    0x0001a68c      0x161 /Applications/microchip/xc32/v4.10/bin/bin/../../lib/gcc/pic32c/8.3.1/../../../../pic32c/lib/thumb/v8-m.base/nofp/libg-musl.a(strnlen.o)
 .debug_line    0x0001a7ed      0x14c /Applications/microchip/xc32/v4.10/bin/bin/../../lib/gcc/pic32c/8.3.1/../../../../pic32c/lib/thumb/v8-m.base/nofp/libg-musl.a(localtime.o)
 .debug_line    0x0001a939      0x8b7 /Applications/microchip/xc32/v4.10/bin/bin/../../lib/gcc/pic32c/8.3.1/../../../../pic32c/lib/thumb/v8-m.base/nofp/libg-musl.a(strftime.o)
 .debug_line    0x0001b1f0       0xe4 /Applications/microchip/xc32/v4.10/bin/bin/../../lib/gcc/pic32c/8.3.1/../../../../pic32c/lib/thumb/v8-m.base/nofp/libg-musl.a(time.o)
 .debug_line    0x0001b2d4      0x170 /Applications/microchip/xc32/v4.10/bin/bin/../../lib/gcc/pic32c/8.3.1/../../../../pic32c/lib/thumb/v8-m.base/nofp/libg-musl.a(tolower.o)
 .debug_line    0x0001b444      0x170 /Applications/microchip/xc32/v4.10/bin/bin/../../lib/gcc/pic32c/8.3.1/../../../../pic32c/lib/thumb/v8-m.base/nofp/libg-musl.a(toupper.o)
 .debug_line    0x0001b5b4      0x10f /Applications/microchip/xc32/v4.10/bin/bin/../../lib/gcc/pic32c/8.3.1/../../../../pic32c/lib/thumb/v8-m.base/nofp/libg-musl.a(__environ.o)
 .debug_line    0x0001b6c3       0xa4 /Applications/microchip/xc32/v4.10/bin/bin/../../lib/gcc/pic32c/8.3.1/../../../../pic32c/lib/thumb/v8-m.base/nofp/libg-musl.a(__errno_location.o)
 .debug_line    0x0001b767       0xb2 /Applications/microchip/xc32/v4.10/bin/bin/../../lib/gcc/pic32c/8.3.1/../../../../pic32c/lib/thumb/v8-m.base/nofp/libg-musl.a(_Exit.o)
 .debug_line    0x0001b819      0x2f7 /Applications/microchip/xc32/v4.10/bin/bin/../../lib/gcc/pic32c/8.3.1/../../../../pic32c/lib/thumb/v8-m.base/nofp/libg-musl.a(langinfo.o)
 .debug_line    0x0001bb10      0x1b2 /Applications/microchip/xc32/v4.10/bin/bin/../../lib/gcc/pic32c/8.3.1/../../../../pic32c/lib/thumb/v8-m.base/nofp/libg-musl.a(c_locale.o)
 .debug_line    0x0001bcc2      0x298 /Applications/microchip/xc32/v4.10/bin/bin/../../lib/gcc/pic32c/8.3.1/../../../../pic32c/lib/thumb/v8-m.base/nofp/libg-musl.a(__string_read.o)
 .debug_line    0x0001bf5a      0x25e /Applications/microchip/xc32/v4.10/bin/bin/../../lib/gcc/pic32c/8.3.1/../../../../pic32c/lib/thumb/v8-m.base/nofp/libg-musl.a(fputs.o)
 .debug_line    0x0001c1b8      0x244 /Applications/microchip/xc32/v4.10/bin/bin/../../lib/gcc/pic32c/8.3.1/../../../../pic32c/lib/thumb/v8-m.base/nofp/libg-musl.a(__out.o)
 .debug_line    0x0001c3fc      0x17a /Applications/microchip/xc32/v4.10/bin/bin/../../lib/gcc/pic32c/8.3.1/../../../../pic32c/lib/thumb/v8-m.base/nofp/libg-musl.a(__pop_float.o)
 .debug_line    0x0001c576      0x20e /Applications/microchip/xc32/v4.10/bin/bin/../../lib/gcc/pic32c/8.3.1/../../../../pic32c/lib/thumb/v8-m.base/nofp/libg-musl.a(__pop_int.o)
 .debug_line    0x0001c784      0x1dc /Applications/microchip/xc32/v4.10/bin/bin/../../lib/gcc/pic32c/8.3.1/../../../../pic32c/lib/thumb/v8-m.base/nofp/libg-musl.a(__pop_ptr.o)
 .debug_line    0x0001c960      0x25e /Applications/microchip/xc32/v4.10/bin/bin/../../lib/gcc/pic32c/8.3.1/../../../../pic32c/lib/thumb/v8-m.base/nofp/libg-musl.a(__stdio_read.o)
 .debug_line    0x0001cbbe      0x209 /Applications/microchip/xc32/v4.10/bin/bin/../../lib/gcc/pic32c/8.3.1/../../../../pic32c/lib/thumb/v8-m.base/nofp/libg-musl.a(__towrite_rw.o)
 .debug_line    0x0001cdc7      0x240 /Applications/microchip/xc32/v4.10/bin/bin/../../lib/gcc/pic32c/8.3.1/../../../../pic32c/lib/thumb/v8-m.base/nofp/libg-musl.a(setvbuf.o)
 .debug_line    0x0001d007      0x217 /Applications/microchip/xc32/v4.10/bin/bin/../../lib/gcc/pic32c/8.3.1/../../../../pic32c/lib/thumb/v8-m.base/nofp/libg-musl.a(vfscanf.o)
 .debug_line    0x0001d21e      0x166 /Applications/microchip/xc32/v4.10/bin/bin/../../lib/gcc/pic32c/8.3.1/../../../../pic32c/lib/thumb/v8-m.base/nofp/libg-musl.a(snprintf.o)
 .debug_line    0x0001d384       0xad /Applications/microchip/xc32/v4.10/bin/bin/../../lib/gcc/pic32c/8.3.1/../../../../pic32c/lib/thumb/v8-m.base/nofp/libg-musl.a(abs.o)
 .debug_line    0x0001d431      0x2ec /Applications/microchip/xc32/v4.10/bin/bin/../../lib/gcc/pic32c/8.3.1/../../../../pic32c/lib/thumb/v8-m.base/nofp/libg-musl.a(strtol.o)
 .debug_line    0x0001d71d       0xfe /Applications/microchip/xc32/v4.10/bin/bin/../../lib/gcc/pic32c/8.3.1/../../../../pic32c/lib/thumb/v8-m.base/nofp/libg-musl.a(memchr.o)
 .debug_line    0x0001d81b       0xcb /Applications/microchip/xc32/v4.10/bin/bin/../../lib/gcc/pic32c/8.3.1/../../../../pic32c/lib/thumb/v8-m.base/nofp/libg-musl.a(stpcpy.o)
 .debug_line    0x0001d8e6      0x1df /Applications/microchip/xc32/v4.10/bin/bin/../../lib/gcc/pic32c/8.3.1/../../../../pic32c/lib/thumb/v8-m.base/nofp/libg-musl.a(__tm_to_secs.o)
 .debug_line    0x0001dac5      0x212 /Applications/microchip/xc32/v4.10/bin/bin/../../lib/gcc/pic32c/8.3.1/../../../../pic32c/lib/thumb/v8-m.base/nofp/libg-musl.a(__year_to_secs.o)
 .debug_line    0x0001dcd7      0x763 /Applications/microchip/xc32/v4.10/bin/bin/../../lib/gcc/pic32c/8.3.1/../../../../pic32c/lib/thumb/v8-m.base/nofp/libg-musl.a(__tz.o)
 .debug_line    0x0001e43a      0x20b /Applications/microchip/xc32/v4.10/bin/bin/../../lib/gcc/pic32c/8.3.1/../../../../pic32c/lib/thumb/v8-m.base/nofp/libg-musl.a(clock_gettime.o)
 .debug_line    0x0001e645       0xd7 /Applications/microchip/xc32/v4.10/bin/bin/../../lib/gcc/pic32c/8.3.1/../../../../pic32c/lib/thumb/v8-m.base/nofp/libg-musl.a(gettimeofday.o)
 .debug_line    0x0001e71c      0x284 /Applications/microchip/xc32/v4.10/bin/bin/../../lib/gcc/pic32c/8.3.1/../../../../pic32c/lib/thumb/v8-m.base/nofp/libg-musl.a(gmtime_r.o)
 .debug_line    0x0001e9a0      0x16c /Applications/microchip/xc32/v4.10/bin/bin/../../lib/gcc/pic32c/8.3.1/../../../../pic32c/lib/thumb/v8-m.base/nofp/libg-musl.a(readv.o)
 .debug_line    0x0001eb0c      0x4ed /Applications/microchip/xc32/v4.10/bin/bin/../../lib/gcc/pic32c/8.3.1/../../../../pic32c/lib/thumb/v8-m.base/nofp/libg-musl.a(intscan.o)
 .debug_line    0x0001eff9      0x14b /Applications/microchip/xc32/v4.10/bin/bin/../../lib/gcc/pic32c/8.3.1/../../../../pic32c/lib/thumb/v8-m.base/nofp/libg-musl.a(syscall_ret.o)
 .debug_line    0x0001f144      0x22e /Applications/microchip/xc32/v4.10/bin/bin/../../lib/gcc/pic32c/8.3.1/../../../../pic32c/lib/thumb/v8-m.base/nofp/libg-musl.a(shgetc.o)
 .debug_line    0x0001f372      0x1dd /Applications/microchip/xc32/v4.10/bin/bin/../../lib/gcc/pic32c/8.3.1/../../../../pic32c/lib/thumb/v8-m.base/nofp/libg-musl.a(__uflow.o)
 .debug_line    0x0001f54f       0xda /Applications/microchip/xc32/v4.10/bin/bin/../../lib/gcc/pic32c/8.3.1/../../../../pic32c/lib/thumb/v8-m.base/nofp/libg-musl.a(__init_stdio.o)
 .debug_line    0x0001f629      0x16f /Applications/microchip/xc32/v4.10/bin/bin/../../lib/gcc/pic32c/8.3.1/../../../../pic32c/lib/thumb/v8-m.base/nofp/libg-musl.a(__putc.o)
 .debug_line    0x0001f798      0x360 /Applications/microchip/xc32/v4.10/bin/bin/../../lib/gcc/pic32c/8.3.1/../../../../pic32c/lib/thumb/v8-m.base/nofp/libg-musl.a(__scan_d.o)
 .debug_line    0x0001faf8      0x4bd /Applications/microchip/xc32/v4.10/bin/bin/../../lib/gcc/pic32c/8.3.1/../../../../pic32c/lib/thumb/v8-m.base/nofp/libg-musl.a(__scan_fp.o)
 .debug_line    0x0001ffb5      0x3c1 /Applications/microchip/xc32/v4.10/bin/bin/../../lib/gcc/pic32c/8.3.1/../../../../pic32c/lib/thumb/v8-m.base/nofp/libg-musl.a(__scan_i.o)
 .debug_line    0x00020376      0x2ff /Applications/microchip/xc32/v4.10/bin/bin/../../lib/gcc/pic32c/8.3.1/../../../../pic32c/lib/thumb/v8-m.base/nofp/libg-musl.a(__scan_o.o)
 .debug_line    0x00020675      0x2fa /Applications/microchip/xc32/v4.10/bin/bin/../../lib/gcc/pic32c/8.3.1/../../../../pic32c/lib/thumb/v8-m.base/nofp/libg-musl.a(__scan_s.o)
 .debug_line    0x0002096f      0x1f3 /Applications/microchip/xc32/v4.10/bin/bin/../../lib/gcc/pic32c/8.3.1/../../../../pic32c/lib/thumb/v8-m.base/nofp/libg-musl.a(__scan_u.o)
 .debug_line    0x00020b62      0x342 /Applications/microchip/xc32/v4.10/bin/bin/../../lib/gcc/pic32c/8.3.1/../../../../pic32c/lib/thumb/v8-m.base/nofp/libg-musl.a(__scan_x.o)
 .debug_line    0x00020ea4      0x750 /Applications/microchip/xc32/v4.10/bin/bin/../../lib/gcc/pic32c/8.3.1/../../../../pic32c/lib/thumb/v8-m.base/nofp/libg-musl.a(__scanf_core.o)
 .debug_line    0x000215f4      0x1f8 /Applications/microchip/xc32/v4.10/bin/bin/../../lib/gcc/pic32c/8.3.1/../../../../pic32c/lib/thumb/v8-m.base/nofp/libg-musl.a(__stderr.o)
 .debug_line    0x000217ec      0x302 /Applications/microchip/xc32/v4.10/bin/bin/../../lib/gcc/pic32c/8.3.1/../../../../pic32c/lib/thumb/v8-m.base/nofp/libg-musl.a(__stdio_close.o)
 .debug_line    0x00021aee      0x18c /Applications/microchip/xc32/v4.10/bin/bin/../../lib/gcc/pic32c/8.3.1/../../../../pic32c/lib/thumb/v8-m.base/nofp/libg-musl.a(__stdio_exit.o)
 .debug_line    0x00021c7a      0x357 /Applications/microchip/xc32/v4.10/bin/bin/../../lib/gcc/pic32c/8.3.1/../../../../pic32c/lib/thumb/v8-m.base/nofp/libg-musl.a(__stdio_write.o)
 .debug_line    0x00021fd1      0x1f8 /Applications/microchip/xc32/v4.10/bin/bin/../../lib/gcc/pic32c/8.3.1/../../../../pic32c/lib/thumb/v8-m.base/nofp/libg-musl.a(__stdout.o)
 .debug_line    0x000221c9      0x194 /Applications/microchip/xc32/v4.10/bin/bin/../../lib/gcc/pic32c/8.3.1/../../../../pic32c/lib/thumb/v8-m.base/nofp/libg-musl.a(__towrite.o)
 .debug_line    0x0002235d      0x24b /Applications/microchip/xc32/v4.10/bin/bin/../../lib/gcc/pic32c/8.3.1/../../../../pic32c/lib/thumb/v8-m.base/nofp/libg-musl.a(vsnprintf.o)
 .debug_line    0x000225a8      0x285 /Applications/microchip/xc32/v4.10/bin/bin/../../lib/gcc/pic32c/8.3.1/../../../../pic32c/lib/thumb/v8-m.base/nofp/libg-musl.a(strtod.o)
 .debug_line    0x0002282d       0xd0 /Applications/microchip/xc32/v4.10/bin/bin/../../lib/gcc/pic32c/8.3.1/../../../../pic32c/lib/thumb/v8-m.base/nofp/libg-musl.a(__month_to_secs.o)
 .debug_line    0x000228fd      0x315 /Applications/microchip/xc32/v4.10/bin/bin/../../lib/gcc/pic32c/8.3.1/../../../../pic32c/lib/thumb/v8-m.base/nofp/libg-musl.a(__secs_to_tm.o)
 .debug_line    0x00022c12      0x16d /Applications/microchip/xc32/v4.10/bin/bin/../../lib/gcc/pic32c/8.3.1/../../../../pic32c/lib/thumb/v8-m.base/nofp/libg-musl.a(writev.o)
 .debug_line    0x00022d7f      0xfd5 /Applications/microchip/xc32/v4.10/bin/bin/../../lib/gcc/pic32c/8.3.1/../../../../pic32c/lib/thumb/v8-m.base/nofp/libg-musl.a(floatscan.o)
 .debug_line    0x00023d54      0x219 /Applications/microchip/xc32/v4.10/bin/bin/../../lib/gcc/pic32c/8.3.1/../../../../pic32c/lib/thumb/v8-m.base/nofp/libg-musl.a(__overflow.o)
 .debug_line    0x00023f6d      0x245 /Applications/microchip/xc32/v4.10/bin/bin/../../lib/gcc/pic32c/8.3.1/../../../../pic32c/lib/thumb/v8-m.base/nofp/libg-musl.a(__toread.o)
 .debug_line    0x000241b2      0x165 /Applications/microchip/xc32/v4.10/bin/bin/../../lib/gcc/pic32c/8.3.1/../../../../pic32c/lib/thumb/v8-m.base/nofp/libg-musl.a(__fclose.o)
 .debug_line    0x00024317      0x201 /Applications/microchip/xc32/v4.10/bin/bin/../../lib/gcc/pic32c/8.3.1/../../../../pic32c/lib/thumb/v8-m.base/nofp/libg-musl.a(__fwrite.o)
 .debug_line    0x00024518      0x1ab /Applications/microchip/xc32/v4.10/bin/bin/../../lib/gcc/pic32c/8.3.1/../../../../pic32c/lib/thumb/v8-m.base/nofp/libg-musl.a(__push_float.o)
 .debug_line    0x000246c3      0x1d6 /Applications/microchip/xc32/v4.10/bin/bin/../../lib/gcc/pic32c/8.3.1/../../../../pic32c/lib/thumb/v8-m.base/nofp/libg-musl.a(__push_int.o)
 .debug_line    0x00024899      0x218 /Applications/microchip/xc32/v4.10/bin/bin/../../lib/gcc/pic32c/8.3.1/../../../../pic32c/lib/thumb/v8-m.base/nofp/libg-musl.a(vfprintf.o)
 .debug_line    0x00024ab1      0x66d /Applications/microchip/xc32/v4.10/bin/bin/../../lib/gcc/pic32c/8.3.1/../../../../pic32c/lib/thumb/v8-m.base/nofp/libg-musl.a(__fmt_a.o)
 .debug_line    0x0002511e      0x165 /Applications/microchip/xc32/v4.10/bin/bin/../../lib/gcc/pic32c/8.3.1/../../../../pic32c/lib/thumb/v8-m.base/nofp/libc-musl.a(fprintf.o)
 .debug_line    0x00025283      0x172 /Applications/microchip/xc32/v4.10/bin/bin/../../lib/gcc/pic32c/8.3.1/../../../../pic32c/lib/thumb/v8-m.base/nofp/libc-musl.a(printf.o)
 .debug_line    0x000253f5       0xa7 /Applications/microchip/xc32/v4.10/bin/bin/../../lib/gcc/pic32c/8.3.1/thumb/v8-m.base/nofp/libgcc.a(_thumb1_case_uhi.o)
 .debug_line    0x0002549c       0xa9 /Applications/microchip/xc32/v4.10/bin/bin/../../lib/gcc/pic32c/8.3.1/thumb/v8-m.base/nofp/libgcc.a(_lshrdi3.o)
 .debug_line    0x00025545       0xa9 /Applications/microchip/xc32/v4.10/bin/bin/../../lib/gcc/pic32c/8.3.1/thumb/v8-m.base/nofp/libgcc.a(_ashldi3.o)
 .debug_line    0x000255ee       0xa9 /Applications/microchip/xc32/v4.10/bin/bin/../../lib/gcc/pic32c/8.3.1/thumb/v8-m.base/nofp/libgcc.a(_aeabi_ldivmod.o)
 .debug_line    0x00025697       0xa9 /Applications/microchip/xc32/v4.10/bin/bin/../../lib/gcc/pic32c/8.3.1/thumb/v8-m.base/nofp/libgcc.a(_aeabi_uldivmod.o)
 .debug_line    0x00025740       0xf4 /Applications/microchip/xc32/v4.10/bin/bin/../../lib/gcc/pic32c/8.3.1/thumb/v8-m.base/nofp/libgcc.a(_muldi3.o)
 .debug_line    0x00025834      0x3ea /Applications/microchip/xc32/v4.10/bin/bin/../../lib/gcc/pic32c/8.3.1/thumb/v8-m.base/nofp/libgcc.a(_udivmoddi4.o)
 .debug_line    0x00025c1e       0xc6 /Applications/microchip/xc32/v4.10/bin/bin/../../lib/gcc/pic32c/8.3.1/thumb/v8-m.base/nofp/libgcc.a(bpabi.o)
 .debug_line    0x00025ce4       0x9e /Applications/microchip/xc32/v4.10/bin/bin/../../lib/gcc/pic32c/8.3.1/thumb/v8-m.base/nofp/libgcc.a(_dvmd_tls.o)
 .debug_line    0x00025d82       0xb2 /Applications/microchip/xc32/v4.10/bin/bin/../../lib/gcc/pic32c/8.3.1/thumb/v8-m.base/nofp/libgcc.a(_clzsi2.o)
 .debug_line    0x00025e34      0x368 /Applications/microchip/xc32/v4.10/bin/bin/../../lib/gcc/pic32c/8.3.1/thumb/v8-m.base/nofp/libgcc.a(_divdi3.o)
 .debug_line    0x0002619c       0xa3 /Applications/microchip/xc32/v4.10/bin/bin/../../lib/gcc/pic32c/8.3.1/../../../../pic32c/lib/thumb/v8-m.base/nofp/libpic32c.a(close.o)
 .debug_line    0x0002623f       0xa0 /Applications/microchip/xc32/v4.10/bin/bin/../../lib/gcc/pic32c/8.3.1/../../../../pic32c/lib/thumb/v8-m.base/nofp/libpic32c.a(lseek.o)
 .debug_line    0x000262df       0xb7 /Applications/microchip/xc32/v4.10/bin/bin/../../lib/gcc/pic32c/8.3.1/../../../../pic32c/lib/thumb/v8-m.base/nofp/libpic32c.a(sbrk.o)

.debug_str      0x00000000     0x3362
 .debug_str     0x00000000      0x9e5 build/default/debug/_ext/1360937237/azure_iot_pnp_pic32cmls60-curiosity.o
 .debug_str     0x000009e5      0x6b7 build/default/debug/_ext/1360937237/main.o
 .debug_str     0x0000109c       0x27 build/default/debug/_ext/1360937237/pic32cmls60-curiosity-buttons.o
 .debug_str     0x000010c3        0x0 build/default/debug/_ext/1360937237/pic32cmls60-curiosity-led.o
 .debug_str     0x000010c3      0x228 build/default/debug/_ext/1360937237/pic32cmls60-curiosity-commands.o
 .debug_str     0x000012eb      0x18c build/default/debug/_ext/1414040249/az_json_reader.o
 .debug_str     0x00001477      0x1a3 build/default/debug/_ext/1414040249/az_json_token.o
 .debug_str     0x0000161a      0x25b build/default/debug/_ext/1414040249/az_json_writer.o
 .debug_str     0x00001875       0x5c build/default/debug/_ext/1414040249/az_log.o
 .debug_str     0x000018d1        0x0 build/default/debug/_ext/1414040249/az_precondition.o
 .debug_str     0x000018d1       0xe4 build/default/debug/_ext/1414040249/az_span.o
 .debug_str     0x000019b5      0x100 build/default/debug/_ext/1292534426/az_iot_common.o
 .debug_str     0x00001ab5       0xd8 build/default/debug/_ext/1292534426/az_iot_hub_client.o
 .debug_str     0x00001b8d       0xb8 build/default/debug/_ext/1292534426/az_iot_hub_client_commands.o
 .debug_str     0x00001c45       0xc6 build/default/debug/_ext/1292534426/az_iot_hub_client_methods.o
 .debug_str     0x00001d0b      0x2b4 build/default/debug/_ext/1292534426/az_iot_hub_client_properties.o
 .debug_str     0x00001fbf       0x72 build/default/debug/_ext/1292534426/az_iot_hub_client_telemetry.o
 .debug_str     0x00002031      0x173 build/default/debug/_ext/1292534426/az_iot_hub_client_twin.o
 .debug_str     0x000021a4      0x31d build/default/debug/_ext/1292534426/az_iot_provisioning_client.o
 .debug_str     0x000024c1        0x0 build/default/debug/_ext/1434821282/bsp.o
 .debug_str     0x000024c1        0xe build/default/debug/_ext/60163342/plib_adc.o
 .debug_str     0x000024cf        0x9 build/default/debug/_ext/60167341/plib_eic.o
 .debug_str     0x000024d8        0x0 build/default/debug/_ext/1865468468/plib_nvic.o
 .debug_str     0x000024d8      0x14d build/default/debug/_ext/504274921/plib_sercom3_usart.o
 .debug_str     0x00002625      0x1f2 build/default/debug/_ext/504274921/plib_sercom2_usart.o
 .debug_str     0x00002817       0x3c build/default/debug/_ext/1827571544/plib_systick.o
 .debug_str     0x00002853       0x14 build/default/debug/_ext/163028504/xc32_monitor.o
 .debug_str     0x00002867       0x87 build/default/debug/_ext/1171490990/initialization.o
 .debug_str     0x000028ee        0x0 build/default/debug/_ext/1171490990/interrupts.o
 .debug_str     0x000028ee        0x0 build/default/debug/_ext/1171490990/exceptions.o
 .debug_str     0x000028ee       0x2f build/default/debug/_ext/1171490990/startup_xc32.o
 .debug_str     0x0000291d        0x0 build/default/debug/_ext/1171490990/libc_syscalls.o
 .debug_str     0x0000291d        0x0 /Applications/microchip/xc32/v4.10/bin/bin/../../lib/gcc/pic32c/8.3.1/../../../../pic32c/lib/thumb/v8-m.base/nofp/libpic32c.a(data_init.o)
 .debug_str     0x0000291d        0x0 /Applications/microchip/xc32/v4.10/bin/bin/../../lib/gcc/pic32c/8.3.1/../../../../pic32c/lib/thumb/v8-m.base/nofp/libg-musl.a(isxdigit.o)
 .debug_str     0x0000291d        0x0 /Applications/microchip/xc32/v4.10/bin/bin/../../lib/gcc/pic32c/8.3.1/../../../../pic32c/lib/thumb/v8-m.base/nofp/libg-musl.a(__libc_start_main.o)
 .debug_str     0x0000291d        0x0 /Applications/microchip/xc32/v4.10/bin/bin/../../lib/gcc/pic32c/8.3.1/../../../../pic32c/lib/thumb/v8-m.base/nofp/libg-musl.a(exit.o)
 .debug_str     0x0000291d        0x0 /Applications/microchip/xc32/v4.10/bin/bin/../../lib/gcc/pic32c/8.3.1/../../../../pic32c/lib/thumb/v8-m.base/nofp/libg-musl.a(libc.o)
 .debug_str     0x0000291d       0x13 /Applications/microchip/xc32/v4.10/bin/bin/../../lib/gcc/pic32c/8.3.1/../../../../pic32c/lib/thumb/v8-m.base/nofp/libg-musl.a(malloc.o)
 .debug_str     0x00002930        0x0 /Applications/microchip/xc32/v4.10/bin/bin/../../lib/gcc/pic32c/8.3.1/../../../../pic32c/lib/thumb/v8-m.base/nofp/libg-musl.a(expand_heap.o)
 .debug_str     0x00002930        0x0 /Applications/microchip/xc32/v4.10/bin/bin/../../lib/gcc/pic32c/8.3.1/../../../../pic32c/lib/thumb/v8-m.base/nofp/libg-musl.a(__fmt_d.o)
 .debug_str     0x00002930        0x0 /Applications/microchip/xc32/v4.10/bin/bin/../../lib/gcc/pic32c/8.3.1/../../../../pic32c/lib/thumb/v8-m.base/nofp/libg-musl.a(__fmt_fp.o)
 .debug_str     0x00002930        0x0 /Applications/microchip/xc32/v4.10/bin/bin/../../lib/gcc/pic32c/8.3.1/../../../../pic32c/lib/thumb/v8-m.base/nofp/libg-musl.a(__fmt_o.o)
 .debug_str     0x00002930        0x0 /Applications/microchip/xc32/v4.10/bin/bin/../../lib/gcc/pic32c/8.3.1/../../../../pic32c/lib/thumb/v8-m.base/nofp/libg-musl.a(__fmt_s.o)
 .debug_str     0x00002930        0x6 /Applications/microchip/xc32/v4.10/bin/bin/../../lib/gcc/pic32c/8.3.1/../../../../pic32c/lib/thumb/v8-m.base/nofp/libg-musl.a(__fmt_u.o)
 .debug_str     0x00002936        0x0 /Applications/microchip/xc32/v4.10/bin/bin/../../lib/gcc/pic32c/8.3.1/../../../../pic32c/lib/thumb/v8-m.base/nofp/libg-musl.a(__fmt_x.o)
 .debug_str     0x00002936       0x20 /Applications/microchip/xc32/v4.10/bin/bin/../../lib/gcc/pic32c/8.3.1/../../../../pic32c/lib/thumb/v8-m.base/nofp/libg-musl.a(__printf_core.o)
 .debug_str     0x00002956        0x0 /Applications/microchip/xc32/v4.10/bin/bin/../../lib/gcc/pic32c/8.3.1/../../../../pic32c/lib/thumb/v8-m.base/nofp/libg-musl.a(fflush.o)
 .debug_str     0x00002956        0x0 /Applications/microchip/xc32/v4.10/bin/bin/../../lib/gcc/pic32c/8.3.1/../../../../pic32c/lib/thumb/v8-m.base/nofp/libg-musl.a(fwrite.o)
 .debug_str     0x00002956       0x16 /Applications/microchip/xc32/v4.10/bin/bin/../../lib/gcc/pic32c/8.3.1/../../../../pic32c/lib/thumb/v8-m.base/nofp/libg-musl.a(putc.o)
 .debug_str     0x0000296c        0x0 /Applications/microchip/xc32/v4.10/bin/bin/../../lib/gcc/pic32c/8.3.1/../../../../pic32c/lib/thumb/v8-m.base/nofp/libg-musl.a(sscanf.o)
 .debug_str     0x0000296c        0xf /Applications/microchip/xc32/v4.10/bin/bin/../../lib/gcc/pic32c/8.3.1/../../../../pic32c/lib/thumb/v8-m.base/nofp/libg-musl.a(stdin.o)
 .debug_str     0x0000297b       0x11 /Applications/microchip/xc32/v4.10/bin/bin/../../lib/gcc/pic32c/8.3.1/../../../../pic32c/lib/thumb/v8-m.base/nofp/libg-musl.a(stdout.o)
 .debug_str     0x0000298c        0xe /Applications/microchip/xc32/v4.10/bin/bin/../../lib/gcc/pic32c/8.3.1/../../../../pic32c/lib/thumb/v8-m.base/nofp/libg-musl.a(vsscanf.o)
 .debug_str     0x0000299a        0xe /Applications/microchip/xc32/v4.10/bin/bin/../../lib/gcc/pic32c/8.3.1/../../../../pic32c/lib/thumb/v8-m.base/nofp/libg-musl.a(puts.o)
 .debug_str     0x000029a8        0x0 /Applications/microchip/xc32/v4.10/bin/bin/../../lib/gcc/pic32c/8.3.1/../../../../pic32c/lib/thumb/v8-m.base/nofp/libg-musl.a(setbuf.o)
 .debug_str     0x000029a8        0x0 /Applications/microchip/xc32/v4.10/bin/bin/../../lib/gcc/pic32c/8.3.1/../../../../pic32c/lib/thumb/v8-m.base/nofp/libg-musl.a(atoi.o)
 .debug_str     0x000029a8        0x0 /Applications/microchip/xc32/v4.10/bin/bin/../../lib/gcc/pic32c/8.3.1/../../../../pic32c/lib/thumb/v8-m.base/nofp/libg-musl.a(div.o)
 .debug_str     0x000029a8        0x0 /Applications/microchip/xc32/v4.10/bin/bin/../../lib/gcc/pic32c/8.3.1/../../../../pic32c/lib/thumb/v8-m.base/nofp/libg-musl.a(memcmp.o)
 .debug_str     0x000029a8        0x0 /Applications/microchip/xc32/v4.10/bin/bin/../../lib/gcc/pic32c/8.3.1/../../../../pic32c/lib/thumb/v8-m.base/nofp/libg-musl.a(memcpy.o)
 .debug_str     0x000029a8        0x0 /Applications/microchip/xc32/v4.10/bin/bin/../../lib/gcc/pic32c/8.3.1/../../../../pic32c/lib/thumb/v8-m.base/nofp/libg-musl.a(memmove.o)
 .debug_str     0x000029a8        0x0 /Applications/microchip/xc32/v4.10/bin/bin/../../lib/gcc/pic32c/8.3.1/../../../../pic32c/lib/thumb/v8-m.base/nofp/libg-musl.a(memset.o)
 .debug_str     0x000029a8        0x0 /Applications/microchip/xc32/v4.10/bin/bin/../../lib/gcc/pic32c/8.3.1/../../../../pic32c/lib/thumb/v8-m.base/nofp/libg-musl.a(strlen.o)
 .debug_str     0x000029a8        0x9 /Applications/microchip/xc32/v4.10/bin/bin/../../lib/gcc/pic32c/8.3.1/../../../../pic32c/lib/thumb/v8-m.base/nofp/libg-musl.a(strcpy.o)
 .debug_str     0x000029b1        0x0 /Applications/microchip/xc32/v4.10/bin/bin/../../lib/gcc/pic32c/8.3.1/../../../../pic32c/lib/thumb/v8-m.base/nofp/libg-musl.a(strlcat.o)
 .debug_str     0x000029b1        0x0 /Applications/microchip/xc32/v4.10/bin/bin/../../lib/gcc/pic32c/8.3.1/../../../../pic32c/lib/thumb/v8-m.base/nofp/libg-musl.a(strlcpy.o)
 .debug_str     0x000029b1        0x0 /Applications/microchip/xc32/v4.10/bin/bin/../../lib/gcc/pic32c/8.3.1/../../../../pic32c/lib/thumb/v8-m.base/nofp/libg-musl.a(strnlen.o)
 .debug_str     0x000029b1        0xb /Applications/microchip/xc32/v4.10/bin/bin/../../lib/gcc/pic32c/8.3.1/../../../../pic32c/lib/thumb/v8-m.base/nofp/libg-musl.a(localtime.o)
 .debug_str     0x000029bc       0x35 /Applications/microchip/xc32/v4.10/bin/bin/../../lib/gcc/pic32c/8.3.1/../../../../pic32c/lib/thumb/v8-m.base/nofp/libg-musl.a(strftime.o)
 .debug_str     0x000029f1       0x10 /Applications/microchip/xc32/v4.10/bin/bin/../../lib/gcc/pic32c/8.3.1/../../../../pic32c/lib/thumb/v8-m.base/nofp/libg-musl.a(time.o)
 .debug_str     0x00002a01        0x0 /Applications/microchip/xc32/v4.10/bin/bin/../../lib/gcc/pic32c/8.3.1/../../../../pic32c/lib/thumb/v8-m.base/nofp/libg-musl.a(tolower.o)
 .debug_str     0x00002a01        0x0 /Applications/microchip/xc32/v4.10/bin/bin/../../lib/gcc/pic32c/8.3.1/../../../../pic32c/lib/thumb/v8-m.base/nofp/libg-musl.a(toupper.o)
 .debug_str     0x00002a01        0x0 /Applications/microchip/xc32/v4.10/bin/bin/../../lib/gcc/pic32c/8.3.1/../../../../pic32c/lib/thumb/v8-m.base/nofp/libg-musl.a(__environ.o)
 .debug_str     0x00002a01        0x0 /Applications/microchip/xc32/v4.10/bin/bin/../../lib/gcc/pic32c/8.3.1/../../../../pic32c/lib/thumb/v8-m.base/nofp/libg-musl.a(__errno_location.o)
 .debug_str     0x00002a01        0x0 /Applications/microchip/xc32/v4.10/bin/bin/../../lib/gcc/pic32c/8.3.1/../../../../pic32c/lib/thumb/v8-m.base/nofp/libg-musl.a(_Exit.o)
 .debug_str     0x00002a01        0x0 /Applications/microchip/xc32/v4.10/bin/bin/../../lib/gcc/pic32c/8.3.1/../../../../pic32c/lib/thumb/v8-m.base/nofp/libg-musl.a(langinfo.o)
 .debug_str     0x00002a01        0x0 /Applications/microchip/xc32/v4.10/bin/bin/../../lib/gcc/pic32c/8.3.1/../../../../pic32c/lib/thumb/v8-m.base/nofp/libg-musl.a(c_locale.o)
 .debug_str     0x00002a01        0x0 /Applications/microchip/xc32/v4.10/bin/bin/../../lib/gcc/pic32c/8.3.1/../../../../pic32c/lib/thumb/v8-m.base/nofp/libg-musl.a(__string_read.o)
 .debug_str     0x00002a01        0x0 /Applications/microchip/xc32/v4.10/bin/bin/../../lib/gcc/pic32c/8.3.1/../../../../pic32c/lib/thumb/v8-m.base/nofp/libg-musl.a(fputs.o)
 .debug_str     0x00002a01        0x0 /Applications/microchip/xc32/v4.10/bin/bin/../../lib/gcc/pic32c/8.3.1/../../../../pic32c/lib/thumb/v8-m.base/nofp/libg-musl.a(__out.o)
 .debug_str     0x00002a01        0x0 /Applications/microchip/xc32/v4.10/bin/bin/../../lib/gcc/pic32c/8.3.1/../../../../pic32c/lib/thumb/v8-m.base/nofp/libg-musl.a(__pop_float.o)
 .debug_str     0x00002a01        0x0 /Applications/microchip/xc32/v4.10/bin/bin/../../lib/gcc/pic32c/8.3.1/../../../../pic32c/lib/thumb/v8-m.base/nofp/libg-musl.a(__pop_int.o)
 .debug_str     0x00002a01        0x0 /Applications/microchip/xc32/v4.10/bin/bin/../../lib/gcc/pic32c/8.3.1/../../../../pic32c/lib/thumb/v8-m.base/nofp/libg-musl.a(__pop_ptr.o)
 .debug_str     0x00002a01        0x0 /Applications/microchip/xc32/v4.10/bin/bin/../../lib/gcc/pic32c/8.3.1/../../../../pic32c/lib/thumb/v8-m.base/nofp/libg-musl.a(__stdio_read.o)
 .debug_str     0x00002a01        0x0 /Applications/microchip/xc32/v4.10/bin/bin/../../lib/gcc/pic32c/8.3.1/../../../../pic32c/lib/thumb/v8-m.base/nofp/libg-musl.a(__towrite_rw.o)
 .debug_str     0x00002a01       0x10 /Applications/microchip/xc32/v4.10/bin/bin/../../lib/gcc/pic32c/8.3.1/../../../../pic32c/lib/thumb/v8-m.base/nofp/libg-musl.a(setvbuf.o)
 .debug_str     0x00002a11       0x1e /Applications/microchip/xc32/v4.10/bin/bin/../../lib/gcc/pic32c/8.3.1/../../../../pic32c/lib/thumb/v8-m.base/nofp/libg-musl.a(vfscanf.o)
 .debug_str     0x00002a2f        0xa /Applications/microchip/xc32/v4.10/bin/bin/../../lib/gcc/pic32c/8.3.1/../../../../pic32c/lib/thumb/v8-m.base/nofp/libg-musl.a(snprintf.o)
 .debug_str     0x00002a39        0x0 /Applications/microchip/xc32/v4.10/bin/bin/../../lib/gcc/pic32c/8.3.1/../../../../pic32c/lib/thumb/v8-m.base/nofp/libg-musl.a(abs.o)
 .debug_str     0x00002a39        0xf /Applications/microchip/xc32/v4.10/bin/bin/../../lib/gcc/pic32c/8.3.1/../../../../pic32c/lib/thumb/v8-m.base/nofp/libg-musl.a(strtol.o)
 .debug_str     0x00002a48        0x0 /Applications/microchip/xc32/v4.10/bin/bin/../../lib/gcc/pic32c/8.3.1/../../../../pic32c/lib/thumb/v8-m.base/nofp/libg-musl.a(memchr.o)
 .debug_str     0x00002a48        0x0 /Applications/microchip/xc32/v4.10/bin/bin/../../lib/gcc/pic32c/8.3.1/../../../../pic32c/lib/thumb/v8-m.base/nofp/libg-musl.a(stpcpy.o)
 .debug_str     0x00002a48       0x1f /Applications/microchip/xc32/v4.10/bin/bin/../../lib/gcc/pic32c/8.3.1/../../../../pic32c/lib/thumb/v8-m.base/nofp/libg-musl.a(__tm_to_secs.o)
 .debug_str     0x00002a67        0x0 /Applications/microchip/xc32/v4.10/bin/bin/../../lib/gcc/pic32c/8.3.1/../../../../pic32c/lib/thumb/v8-m.base/nofp/libg-musl.a(__year_to_secs.o)
 .debug_str     0x00002a67       0x1f /Applications/microchip/xc32/v4.10/bin/bin/../../lib/gcc/pic32c/8.3.1/../../../../pic32c/lib/thumb/v8-m.base/nofp/libg-musl.a(__tz.o)
 .debug_str     0x00002a86       0x1b /Applications/microchip/xc32/v4.10/bin/bin/../../lib/gcc/pic32c/8.3.1/../../../../pic32c/lib/thumb/v8-m.base/nofp/libg-musl.a(clock_gettime.o)
 .debug_str     0x00002aa1        0x0 /Applications/microchip/xc32/v4.10/bin/bin/../../lib/gcc/pic32c/8.3.1/../../../../pic32c/lib/thumb/v8-m.base/nofp/libg-musl.a(gettimeofday.o)
 .debug_str     0x00002aa1        0xd /Applications/microchip/xc32/v4.10/bin/bin/../../lib/gcc/pic32c/8.3.1/../../../../pic32c/lib/thumb/v8-m.base/nofp/libg-musl.a(gmtime_r.o)
 .debug_str     0x00002aae        0x0 /Applications/microchip/xc32/v4.10/bin/bin/../../lib/gcc/pic32c/8.3.1/../../../../pic32c/lib/thumb/v8-m.base/nofp/libg-musl.a(readv.o)
 .debug_str     0x00002aae        0x9 /Applications/microchip/xc32/v4.10/bin/bin/../../lib/gcc/pic32c/8.3.1/../../../../pic32c/lib/thumb/v8-m.base/nofp/libg-musl.a(intscan.o)
 .debug_str     0x00002ab7        0x0 /Applications/microchip/xc32/v4.10/bin/bin/../../lib/gcc/pic32c/8.3.1/../../../../pic32c/lib/thumb/v8-m.base/nofp/libg-musl.a(syscall_ret.o)
 .debug_str     0x00002ab7        0x0 /Applications/microchip/xc32/v4.10/bin/bin/../../lib/gcc/pic32c/8.3.1/../../../../pic32c/lib/thumb/v8-m.base/nofp/libg-musl.a(shgetc.o)
 .debug_str     0x00002ab7        0x9 /Applications/microchip/xc32/v4.10/bin/bin/../../lib/gcc/pic32c/8.3.1/../../../../pic32c/lib/thumb/v8-m.base/nofp/libg-musl.a(__uflow.o)
 .debug_str     0x00002ac0        0x0 /Applications/microchip/xc32/v4.10/bin/bin/../../lib/gcc/pic32c/8.3.1/../../../../pic32c/lib/thumb/v8-m.base/nofp/libg-musl.a(__init_stdio.o)
 .debug_str     0x00002ac0       0x1d /Applications/microchip/xc32/v4.10/bin/bin/../../lib/gcc/pic32c/8.3.1/../../../../pic32c/lib/thumb/v8-m.base/nofp/libg-musl.a(__putc.o)
 .debug_str     0x00002add       0x22 /Applications/microchip/xc32/v4.10/bin/bin/../../lib/gcc/pic32c/8.3.1/../../../../pic32c/lib/thumb/v8-m.base/nofp/libg-musl.a(__scan_d.o)
 .debug_str     0x00002aff       0x1b /Applications/microchip/xc32/v4.10/bin/bin/../../lib/gcc/pic32c/8.3.1/../../../../pic32c/lib/thumb/v8-m.base/nofp/libg-musl.a(__scan_fp.o)
 .debug_str     0x00002b1a       0x24 /Applications/microchip/xc32/v4.10/bin/bin/../../lib/gcc/pic32c/8.3.1/../../../../pic32c/lib/thumb/v8-m.base/nofp/libg-musl.a(__scan_i.o)
 .debug_str     0x00002b3e       0x1b /Applications/microchip/xc32/v4.10/bin/bin/../../lib/gcc/pic32c/8.3.1/../../../../pic32c/lib/thumb/v8-m.base/nofp/libg-musl.a(__scan_o.o)
 .debug_str     0x00002b59       0x12 /Applications/microchip/xc32/v4.10/bin/bin/../../lib/gcc/pic32c/8.3.1/../../../../pic32c/lib/thumb/v8-m.base/nofp/libg-musl.a(__scan_s.o)
 .debug_str     0x00002b6b       0x14 /Applications/microchip/xc32/v4.10/bin/bin/../../lib/gcc/pic32c/8.3.1/../../../../pic32c/lib/thumb/v8-m.base/nofp/libg-musl.a(__scan_u.o)
 .debug_str     0x00002b7f       0x24 /Applications/microchip/xc32/v4.10/bin/bin/../../lib/gcc/pic32c/8.3.1/../../../../pic32c/lib/thumb/v8-m.base/nofp/libg-musl.a(__scan_x.o)
 .debug_str     0x00002ba3       0x43 /Applications/microchip/xc32/v4.10/bin/bin/../../lib/gcc/pic32c/8.3.1/../../../../pic32c/lib/thumb/v8-m.base/nofp/libg-musl.a(__scanf_core.o)
 .debug_str     0x00002be6       0x11 /Applications/microchip/xc32/v4.10/bin/bin/../../lib/gcc/pic32c/8.3.1/../../../../pic32c/lib/thumb/v8-m.base/nofp/libg-musl.a(__stderr.o)
 .debug_str     0x00002bf7        0x0 /Applications/microchip/xc32/v4.10/bin/bin/../../lib/gcc/pic32c/8.3.1/../../../../pic32c/lib/thumb/v8-m.base/nofp/libg-musl.a(__stdio_close.o)
 .debug_str     0x00002bf7        0x0 /Applications/microchip/xc32/v4.10/bin/bin/../../lib/gcc/pic32c/8.3.1/../../../../pic32c/lib/thumb/v8-m.base/nofp/libg-musl.a(__stdio_exit.o)
 .debug_str     0x00002bf7        0xa /Applications/microchip/xc32/v4.10/bin/bin/../../lib/gcc/pic32c/8.3.1/../../../../pic32c/lib/thumb/v8-m.base/nofp/libg-musl.a(__stdio_write.o)
 .debug_str     0x00002c01       0x11 /Applications/microchip/xc32/v4.10/bin/bin/../../lib/gcc/pic32c/8.3.1/../../../../pic32c/lib/thumb/v8-m.base/nofp/libg-musl.a(__stdout.o)
 .debug_str     0x00002c12        0x0 /Applications/microchip/xc32/v4.10/bin/bin/../../lib/gcc/pic32c/8.3.1/../../../../pic32c/lib/thumb/v8-m.base/nofp/libg-musl.a(__towrite.o)
 .debug_str     0x00002c12        0x9 /Applications/microchip/xc32/v4.10/bin/bin/../../lib/gcc/pic32c/8.3.1/../../../../pic32c/lib/thumb/v8-m.base/nofp/libg-musl.a(vsnprintf.o)
 .debug_str     0x00002c1b        0xc /Applications/microchip/xc32/v4.10/bin/bin/../../lib/gcc/pic32c/8.3.1/../../../../pic32c/lib/thumb/v8-m.base/nofp/libg-musl.a(strtod.o)
 .debug_str     0x00002c27        0x0 /Applications/microchip/xc32/v4.10/bin/bin/../../lib/gcc/pic32c/8.3.1/../../../../pic32c/lib/thumb/v8-m.base/nofp/libg-musl.a(__month_to_secs.o)
 .debug_str     0x00002c27        0x0 /Applications/microchip/xc32/v4.10/bin/bin/../../lib/gcc/pic32c/8.3.1/../../../../pic32c/lib/thumb/v8-m.base/nofp/libg-musl.a(__secs_to_tm.o)
 .debug_str     0x00002c27        0x0 /Applications/microchip/xc32/v4.10/bin/bin/../../lib/gcc/pic32c/8.3.1/../../../../pic32c/lib/thumb/v8-m.base/nofp/libg-musl.a(writev.o)
 .debug_str     0x00002c27       0x13 /Applications/microchip/xc32/v4.10/bin/bin/../../lib/gcc/pic32c/8.3.1/../../../../pic32c/lib/thumb/v8-m.base/nofp/libg-musl.a(floatscan.o)
 .debug_str     0x00002c3a        0xa /Applications/microchip/xc32/v4.10/bin/bin/../../lib/gcc/pic32c/8.3.1/../../../../pic32c/lib/thumb/v8-m.base/nofp/libg-musl.a(__overflow.o)
 .debug_str     0x00002c44       0x14 /Applications/microchip/xc32/v4.10/bin/bin/../../lib/gcc/pic32c/8.3.1/../../../../pic32c/lib/thumb/v8-m.base/nofp/libg-musl.a(__toread.o)
 .debug_str     0x00002c58        0x0 /Applications/microchip/xc32/v4.10/bin/bin/../../lib/gcc/pic32c/8.3.1/../../../../pic32c/lib/thumb/v8-m.base/nofp/libg-musl.a(__fclose.o)
 .debug_str     0x00002c58       0x10 /Applications/microchip/xc32/v4.10/bin/bin/../../lib/gcc/pic32c/8.3.1/../../../../pic32c/lib/thumb/v8-m.base/nofp/libg-musl.a(__fwrite.o)
 .debug_str     0x00002c68        0x0 /Applications/microchip/xc32/v4.10/bin/bin/../../lib/gcc/pic32c/8.3.1/../../../../pic32c/lib/thumb/v8-m.base/nofp/libg-musl.a(__push_float.o)
 .debug_str     0x00002c68        0x0 /Applications/microchip/xc32/v4.10/bin/bin/../../lib/gcc/pic32c/8.3.1/../../../../pic32c/lib/thumb/v8-m.base/nofp/libg-musl.a(__push_int.o)
 .debug_str     0x00002c68       0x1e /Applications/microchip/xc32/v4.10/bin/bin/../../lib/gcc/pic32c/8.3.1/../../../../pic32c/lib/thumb/v8-m.base/nofp/libg-musl.a(vfprintf.o)
 .debug_str     0x00002c86        0x0 /Applications/microchip/xc32/v4.10/bin/bin/../../lib/gcc/pic32c/8.3.1/../../../../pic32c/lib/thumb/v8-m.base/nofp/libg-musl.a(__fmt_a.o)
 .debug_str     0x00002c86        0x9 /Applications/microchip/xc32/v4.10/bin/bin/../../lib/gcc/pic32c/8.3.1/../../../../pic32c/lib/thumb/v8-m.base/nofp/libc-musl.a(fprintf.o)
 .debug_str     0x00002c8f        0x9 /Applications/microchip/xc32/v4.10/bin/bin/../../lib/gcc/pic32c/8.3.1/../../../../pic32c/lib/thumb/v8-m.base/nofp/libc-musl.a(printf.o)
 .debug_str     0x00002c98       0xf7 /Applications/microchip/xc32/v4.10/bin/bin/../../lib/gcc/pic32c/8.3.1/thumb/v8-m.base/nofp/libgcc.a(_thumb1_case_uhi.o)
 .debug_str     0x00002d8f       0xf7 /Applications/microchip/xc32/v4.10/bin/bin/../../lib/gcc/pic32c/8.3.1/thumb/v8-m.base/nofp/libgcc.a(_lshrdi3.o)
 .debug_str     0x00002e86       0xf7 /Applications/microchip/xc32/v4.10/bin/bin/../../lib/gcc/pic32c/8.3.1/thumb/v8-m.base/nofp/libgcc.a(_ashldi3.o)
 .debug_str     0x00002f7d       0xf7 /Applications/microchip/xc32/v4.10/bin/bin/../../lib/gcc/pic32c/8.3.1/thumb/v8-m.base/nofp/libgcc.a(_aeabi_ldivmod.o)
 .debug_str     0x00003074       0xf7 /Applications/microchip/xc32/v4.10/bin/bin/../../lib/gcc/pic32c/8.3.1/thumb/v8-m.base/nofp/libgcc.a(_aeabi_uldivmod.o)
 .debug_str     0x0000316b        0x0 /Applications/microchip/xc32/v4.10/bin/bin/../../lib/gcc/pic32c/8.3.1/thumb/v8-m.base/nofp/libgcc.a(_muldi3.o)
 .debug_str     0x0000316b        0x0 /Applications/microchip/xc32/v4.10/bin/bin/../../lib/gcc/pic32c/8.3.1/thumb/v8-m.base/nofp/libgcc.a(_udivmoddi4.o)
 .debug_str     0x0000316b        0x9 /Applications/microchip/xc32/v4.10/bin/bin/../../lib/gcc/pic32c/8.3.1/thumb/v8-m.base/nofp/libgcc.a(bpabi.o)
 .debug_str     0x00003174       0xf7 /Applications/microchip/xc32/v4.10/bin/bin/../../lib/gcc/pic32c/8.3.1/thumb/v8-m.base/nofp/libgcc.a(_dvmd_tls.o)
 .debug_str     0x0000326b       0xf7 /Applications/microchip/xc32/v4.10/bin/bin/../../lib/gcc/pic32c/8.3.1/thumb/v8-m.base/nofp/libgcc.a(_clzsi2.o)
 .debug_str     0x00003362        0x0 /Applications/microchip/xc32/v4.10/bin/bin/../../lib/gcc/pic32c/8.3.1/thumb/v8-m.base/nofp/libgcc.a(_divdi3.o)
 .debug_str     0x00003362        0x0 /Applications/microchip/xc32/v4.10/bin/bin/../../lib/gcc/pic32c/8.3.1/../../../../pic32c/lib/thumb/v8-m.base/nofp/libpic32c.a(close.o)
 .debug_str     0x00003362        0x0 /Applications/microchip/xc32/v4.10/bin/bin/../../lib/gcc/pic32c/8.3.1/../../../../pic32c/lib/thumb/v8-m.base/nofp/libpic32c.a(lseek.o)
 .debug_str     0x00003362        0x0 /Applications/microchip/xc32/v4.10/bin/bin/../../lib/gcc/pic32c/8.3.1/../../../../pic32c/lib/thumb/v8-m.base/nofp/libpic32c.a(sbrk.o)

.debug_frame    0x00000000     0x4b14
 .debug_frame   0x00000000      0x130 build/default/debug/_ext/1360937237/azure_iot_pnp_pic32cmls60-curiosity.o
 .debug_frame   0x00000130     0x1724 build/default/debug/_ext/1360937237/main.o
 .debug_frame   0x00001854       0x70 build/default/debug/_ext/1360937237/pic32cmls60-curiosity-buttons.o
 .debug_frame   0x000018c4       0x30 build/default/debug/_ext/1360937237/pic32cmls60-curiosity-led.o
 .debug_frame   0x000018f4      0x198 build/default/debug/_ext/1360937237/pic32cmls60-curiosity-commands.o
 .debug_frame   0x00001a8c      0x22c build/default/debug/_ext/1414040249/az_json_reader.o
 .debug_frame   0x00001cb8      0x1bc build/default/debug/_ext/1414040249/az_json_token.o
 .debug_frame   0x00001e74      0x2e4 build/default/debug/_ext/1414040249/az_json_writer.o
 .debug_frame   0x00002158       0x68 build/default/debug/_ext/1414040249/az_log.o
 .debug_frame   0x000021c0       0x40 build/default/debug/_ext/1414040249/az_precondition.o
 .debug_frame   0x00002200      0x3d4 build/default/debug/_ext/1414040249/az_span.o
 .debug_frame   0x000025d4      0x110 build/default/debug/_ext/1292534426/az_iot_common.o
 .debug_frame   0x000026e4       0x9c build/default/debug/_ext/1292534426/az_iot_hub_client.o
 .debug_frame   0x00002780       0x4c build/default/debug/_ext/1292534426/az_iot_hub_client_commands.o
 .debug_frame   0x000027cc       0x50 build/default/debug/_ext/1292534426/az_iot_hub_client_methods.o
 .debug_frame   0x0000281c      0x14c build/default/debug/_ext/1292534426/az_iot_hub_client_properties.o
 .debug_frame   0x00002968       0x38 build/default/debug/_ext/1292534426/az_iot_hub_client_telemetry.o
 .debug_frame   0x000029a0       0x70 build/default/debug/_ext/1292534426/az_iot_hub_client_twin.o
 .debug_frame   0x00002a10      0x114 build/default/debug/_ext/1292534426/az_iot_provisioning_client.o
 .debug_frame   0x00002b24       0x20 build/default/debug/_ext/1434821282/bsp.o
 .debug_frame   0x00002b44       0xe0 build/default/debug/_ext/60163342/plib_adc.o
 .debug_frame   0x00002c24       0x98 build/default/debug/_ext/60167341/plib_eic.o
 .debug_frame   0x00002cbc       0x5c build/default/debug/_ext/1865468468/plib_nvic.o
 .debug_frame   0x00002d18       0xcc build/default/debug/_ext/504274921/plib_sercom3_usart.o
 .debug_frame   0x00002de4      0x1e0 build/default/debug/_ext/504274921/plib_sercom2_usart.o
 .debug_frame   0x00002fc4       0xd8 build/default/debug/_ext/1827571544/plib_systick.o
 .debug_frame   0x0000309c       0x3c build/default/debug/_ext/163028504/xc32_monitor.o
 .debug_frame   0x000030d8       0x28 build/default/debug/_ext/1171490990/initialization.o
 .debug_frame   0x00003100       0x20 build/default/debug/_ext/1171490990/interrupts.o
 .debug_frame   0x00003120       0x30 build/default/debug/_ext/1171490990/exceptions.o
 .debug_frame   0x00003150       0x38 build/default/debug/_ext/1171490990/startup_xc32.o
 .debug_frame   0x00003188       0x20 build/default/debug/_ext/1171490990/libc_syscalls.o
 .debug_frame   0x000031a8       0x34 /Applications/microchip/xc32/v4.10/bin/bin/../../lib/gcc/pic32c/8.3.1/../../../../pic32c/lib/thumb/v8-m.base/nofp/libpic32c.a(data_init.o)
 .debug_frame   0x000031dc       0x38 /Applications/microchip/xc32/v4.10/bin/bin/../../lib/gcc/pic32c/8.3.1/../../../../pic32c/lib/thumb/v8-m.base/nofp/libg-musl.a(isxdigit.o)
 .debug_frame   0x00003214       0x38 /Applications/microchip/xc32/v4.10/bin/bin/../../lib/gcc/pic32c/8.3.1/../../../../pic32c/lib/thumb/v8-m.base/nofp/libg-musl.a(__libc_start_main.o)
 .debug_frame   0x0000324c       0x50 /Applications/microchip/xc32/v4.10/bin/bin/../../lib/gcc/pic32c/8.3.1/../../../../pic32c/lib/thumb/v8-m.base/nofp/libg-musl.a(exit.o)
 .debug_frame   0x0000329c      0x140 /Applications/microchip/xc32/v4.10/bin/bin/../../lib/gcc/pic32c/8.3.1/../../../../pic32c/lib/thumb/v8-m.base/nofp/libg-musl.a(malloc.o)
 .debug_frame   0x000033dc       0x28 /Applications/microchip/xc32/v4.10/bin/bin/../../lib/gcc/pic32c/8.3.1/../../../../pic32c/lib/thumb/v8-m.base/nofp/libg-musl.a(expand_heap.o)
 .debug_frame   0x00003404       0x30 /Applications/microchip/xc32/v4.10/bin/bin/../../lib/gcc/pic32c/8.3.1/../../../../pic32c/lib/thumb/v8-m.base/nofp/libg-musl.a(__fmt_d.o)
 .debug_frame   0x00003434       0x34 /Applications/microchip/xc32/v4.10/bin/bin/../../lib/gcc/pic32c/8.3.1/../../../../pic32c/lib/thumb/v8-m.base/nofp/libg-musl.a(__fmt_fp.o)
 .debug_frame   0x00003468       0x30 /Applications/microchip/xc32/v4.10/bin/bin/../../lib/gcc/pic32c/8.3.1/../../../../pic32c/lib/thumb/v8-m.base/nofp/libg-musl.a(__fmt_o.o)
 .debug_frame   0x00003498       0x30 /Applications/microchip/xc32/v4.10/bin/bin/../../lib/gcc/pic32c/8.3.1/../../../../pic32c/lib/thumb/v8-m.base/nofp/libg-musl.a(__fmt_s.o)
 .debug_frame   0x000034c8       0x50 /Applications/microchip/xc32/v4.10/bin/bin/../../lib/gcc/pic32c/8.3.1/../../../../pic32c/lib/thumb/v8-m.base/nofp/libg-musl.a(__fmt_u.o)
 .debug_frame   0x00003518       0x30 /Applications/microchip/xc32/v4.10/bin/bin/../../lib/gcc/pic32c/8.3.1/../../../../pic32c/lib/thumb/v8-m.base/nofp/libg-musl.a(__fmt_x.o)
 .debug_frame   0x00003548       0xc0 /Applications/microchip/xc32/v4.10/bin/bin/../../lib/gcc/pic32c/8.3.1/../../../../pic32c/lib/thumb/v8-m.base/nofp/libg-musl.a(__printf_core.o)
 .debug_frame   0x00003608       0x48 /Applications/microchip/xc32/v4.10/bin/bin/../../lib/gcc/pic32c/8.3.1/../../../../pic32c/lib/thumb/v8-m.base/nofp/libg-musl.a(fflush.o)
 .debug_frame   0x00003650       0x44 /Applications/microchip/xc32/v4.10/bin/bin/../../lib/gcc/pic32c/8.3.1/../../../../pic32c/lib/thumb/v8-m.base/nofp/libg-musl.a(fwrite.o)
 .debug_frame   0x00003694       0x5c /Applications/microchip/xc32/v4.10/bin/bin/../../lib/gcc/pic32c/8.3.1/../../../../pic32c/lib/thumb/v8-m.base/nofp/libg-musl.a(putc.o)
 .debug_frame   0x000036f0       0x2c /Applications/microchip/xc32/v4.10/bin/bin/../../lib/gcc/pic32c/8.3.1/../../../../pic32c/lib/thumb/v8-m.base/nofp/libg-musl.a(sscanf.o)
 .debug_frame   0x0000371c       0x38 /Applications/microchip/xc32/v4.10/bin/bin/../../lib/gcc/pic32c/8.3.1/../../../../pic32c/lib/thumb/v8-m.base/nofp/libg-musl.a(stdin.o)
 .debug_frame   0x00003754       0x50 /Applications/microchip/xc32/v4.10/bin/bin/../../lib/gcc/pic32c/8.3.1/../../../../pic32c/lib/thumb/v8-m.base/nofp/libg-musl.a(stdout.o)
 .debug_frame   0x000037a4       0x48 /Applications/microchip/xc32/v4.10/bin/bin/../../lib/gcc/pic32c/8.3.1/../../../../pic32c/lib/thumb/v8-m.base/nofp/libg-musl.a(vsscanf.o)
 .debug_frame   0x000037ec       0x28 /Applications/microchip/xc32/v4.10/bin/bin/../../lib/gcc/pic32c/8.3.1/../../../../pic32c/lib/thumb/v8-m.base/nofp/libg-musl.a(puts.o)
 .debug_frame   0x00003814       0x28 /Applications/microchip/xc32/v4.10/bin/bin/../../lib/gcc/pic32c/8.3.1/../../../../pic32c/lib/thumb/v8-m.base/nofp/libg-musl.a(setbuf.o)
 .debug_frame   0x0000383c       0x28 /Applications/microchip/xc32/v4.10/bin/bin/../../lib/gcc/pic32c/8.3.1/../../../../pic32c/lib/thumb/v8-m.base/nofp/libg-musl.a(atoi.o)
 .debug_frame   0x00003864       0x20 /Applications/microchip/xc32/v4.10/bin/bin/../../lib/gcc/pic32c/8.3.1/../../../../pic32c/lib/thumb/v8-m.base/nofp/libg-musl.a(div.o)
 .debug_frame   0x00003884       0x2c /Applications/microchip/xc32/v4.10/bin/bin/../../lib/gcc/pic32c/8.3.1/../../../../pic32c/lib/thumb/v8-m.base/nofp/libg-musl.a(memcmp.o)
 .debug_frame   0x000038b0       0x28 /Applications/microchip/xc32/v4.10/bin/bin/../../lib/gcc/pic32c/8.3.1/../../../../pic32c/lib/thumb/v8-m.base/nofp/libg-musl.a(memcpy.o)
 .debug_frame   0x000038d8       0x28 /Applications/microchip/xc32/v4.10/bin/bin/../../lib/gcc/pic32c/8.3.1/../../../../pic32c/lib/thumb/v8-m.base/nofp/libg-musl.a(memmove.o)
 .debug_frame   0x00003900       0x20 /Applications/microchip/xc32/v4.10/bin/bin/../../lib/gcc/pic32c/8.3.1/../../../../pic32c/lib/thumb/v8-m.base/nofp/libg-musl.a(memset.o)
 .debug_frame   0x00003920       0x20 /Applications/microchip/xc32/v4.10/bin/bin/../../lib/gcc/pic32c/8.3.1/../../../../pic32c/lib/thumb/v8-m.base/nofp/libg-musl.a(strlen.o)
 .debug_frame   0x00003940       0x28 /Applications/microchip/xc32/v4.10/bin/bin/../../lib/gcc/pic32c/8.3.1/../../../../pic32c/lib/thumb/v8-m.base/nofp/libg-musl.a(strcpy.o)
 .debug_frame   0x00003968       0x30 /Applications/microchip/xc32/v4.10/bin/bin/../../lib/gcc/pic32c/8.3.1/../../../../pic32c/lib/thumb/v8-m.base/nofp/libg-musl.a(strlcat.o)
 .debug_frame   0x00003998       0x2c /Applications/microchip/xc32/v4.10/bin/bin/../../lib/gcc/pic32c/8.3.1/../../../../pic32c/lib/thumb/v8-m.base/nofp/libg-musl.a(strlcpy.o)
 .debug_frame   0x000039c4       0x2c /Applications/microchip/xc32/v4.10/bin/bin/../../lib/gcc/pic32c/8.3.1/../../../../pic32c/lib/thumb/v8-m.base/nofp/libg-musl.a(strnlen.o)
 .debug_frame   0x000039f0       0x28 /Applications/microchip/xc32/v4.10/bin/bin/../../lib/gcc/pic32c/8.3.1/../../../../pic32c/lib/thumb/v8-m.base/nofp/libg-musl.a(localtime.o)
 .debug_frame   0x00003a18       0x9c /Applications/microchip/xc32/v4.10/bin/bin/../../lib/gcc/pic32c/8.3.1/../../../../pic32c/lib/thumb/v8-m.base/nofp/libg-musl.a(strftime.o)
 .debug_frame   0x00003ab4       0x2c /Applications/microchip/xc32/v4.10/bin/bin/../../lib/gcc/pic32c/8.3.1/../../../../pic32c/lib/thumb/v8-m.base/nofp/libg-musl.a(time.o)
 .debug_frame   0x00003ae0       0x38 /Applications/microchip/xc32/v4.10/bin/bin/../../lib/gcc/pic32c/8.3.1/../../../../pic32c/lib/thumb/v8-m.base/nofp/libg-musl.a(tolower.o)
 .debug_frame   0x00003b18       0x38 /Applications/microchip/xc32/v4.10/bin/bin/../../lib/gcc/pic32c/8.3.1/../../../../pic32c/lib/thumb/v8-m.base/nofp/libg-musl.a(toupper.o)
 .debug_frame   0x00003b50       0x28 /Applications/microchip/xc32/v4.10/bin/bin/../../lib/gcc/pic32c/8.3.1/../../../../pic32c/lib/thumb/v8-m.base/nofp/libg-musl.a(_Exit.o)
 .debug_frame   0x00003b78       0x40 /Applications/microchip/xc32/v4.10/bin/bin/../../lib/gcc/pic32c/8.3.1/../../../../pic32c/lib/thumb/v8-m.base/nofp/libg-musl.a(langinfo.o)
 .debug_frame   0x00003bb8       0x34 /Applications/microchip/xc32/v4.10/bin/bin/../../lib/gcc/pic32c/8.3.1/../../../../pic32c/lib/thumb/v8-m.base/nofp/libg-musl.a(__string_read.o)
 .debug_frame   0x00003bec       0x2c /Applications/microchip/xc32/v4.10/bin/bin/../../lib/gcc/pic32c/8.3.1/../../../../pic32c/lib/thumb/v8-m.base/nofp/libg-musl.a(fputs.o)
 .debug_frame   0x00003c18       0x44 /Applications/microchip/xc32/v4.10/bin/bin/../../lib/gcc/pic32c/8.3.1/../../../../pic32c/lib/thumb/v8-m.base/nofp/libg-musl.a(__out.o)
 .debug_frame   0x00003c5c       0x20 /Applications/microchip/xc32/v4.10/bin/bin/../../lib/gcc/pic32c/8.3.1/../../../../pic32c/lib/thumb/v8-m.base/nofp/libg-musl.a(__pop_float.o)
 .debug_frame   0x00003c7c       0x2c /Applications/microchip/xc32/v4.10/bin/bin/../../lib/gcc/pic32c/8.3.1/../../../../pic32c/lib/thumb/v8-m.base/nofp/libg-musl.a(__pop_int.o)
 .debug_frame   0x00003ca8       0x28 /Applications/microchip/xc32/v4.10/bin/bin/../../lib/gcc/pic32c/8.3.1/../../../../pic32c/lib/thumb/v8-m.base/nofp/libg-musl.a(__pop_ptr.o)
 .debug_frame   0x00003cd0       0x34 /Applications/microchip/xc32/v4.10/bin/bin/../../lib/gcc/pic32c/8.3.1/../../../../pic32c/lib/thumb/v8-m.base/nofp/libg-musl.a(__stdio_read.o)
 .debug_frame   0x00003d04       0x20 /Applications/microchip/xc32/v4.10/bin/bin/../../lib/gcc/pic32c/8.3.1/../../../../pic32c/lib/thumb/v8-m.base/nofp/libg-musl.a(__towrite_rw.o)
 .debug_frame   0x00003d24       0x44 /Applications/microchip/xc32/v4.10/bin/bin/../../lib/gcc/pic32c/8.3.1/../../../../pic32c/lib/thumb/v8-m.base/nofp/libg-musl.a(setvbuf.o)
 .debug_frame   0x00003d68       0x44 /Applications/microchip/xc32/v4.10/bin/bin/../../lib/gcc/pic32c/8.3.1/../../../../pic32c/lib/thumb/v8-m.base/nofp/libg-musl.a(vfscanf.o)
 .debug_frame   0x00003dac       0x30 /Applications/microchip/xc32/v4.10/bin/bin/../../lib/gcc/pic32c/8.3.1/../../../../pic32c/lib/thumb/v8-m.base/nofp/libg-musl.a(snprintf.o)
 .debug_frame   0x00003ddc       0x20 /Applications/microchip/xc32/v4.10/bin/bin/../../lib/gcc/pic32c/8.3.1/../../../../pic32c/lib/thumb/v8-m.base/nofp/libg-musl.a(abs.o)
 .debug_frame   0x00003dfc       0xe0 /Applications/microchip/xc32/v4.10/bin/bin/../../lib/gcc/pic32c/8.3.1/../../../../pic32c/lib/thumb/v8-m.base/nofp/libg-musl.a(strtol.o)
 .debug_frame   0x00003edc       0x20 /Applications/microchip/xc32/v4.10/bin/bin/../../lib/gcc/pic32c/8.3.1/../../../../pic32c/lib/thumb/v8-m.base/nofp/libg-musl.a(memchr.o)
 .debug_frame   0x00003efc       0x20 /Applications/microchip/xc32/v4.10/bin/bin/../../lib/gcc/pic32c/8.3.1/../../../../pic32c/lib/thumb/v8-m.base/nofp/libg-musl.a(stpcpy.o)
 .debug_frame   0x00003f1c       0x34 /Applications/microchip/xc32/v4.10/bin/bin/../../lib/gcc/pic32c/8.3.1/../../../../pic32c/lib/thumb/v8-m.base/nofp/libg-musl.a(__tm_to_secs.o)
 .debug_frame   0x00003f50       0x34 /Applications/microchip/xc32/v4.10/bin/bin/../../lib/gcc/pic32c/8.3.1/../../../../pic32c/lib/thumb/v8-m.base/nofp/libg-musl.a(__year_to_secs.o)
 .debug_frame   0x00003f84      0x10c /Applications/microchip/xc32/v4.10/bin/bin/../../lib/gcc/pic32c/8.3.1/../../../../pic32c/lib/thumb/v8-m.base/nofp/libg-musl.a(__tz.o)
 .debug_frame   0x00004090       0x2c /Applications/microchip/xc32/v4.10/bin/bin/../../lib/gcc/pic32c/8.3.1/../../../../pic32c/lib/thumb/v8-m.base/nofp/libg-musl.a(clock_gettime.o)
 .debug_frame   0x000040bc       0x20 /Applications/microchip/xc32/v4.10/bin/bin/../../lib/gcc/pic32c/8.3.1/../../../../pic32c/lib/thumb/v8-m.base/nofp/libg-musl.a(gettimeofday.o)
 .debug_frame   0x000040dc       0x2c /Applications/microchip/xc32/v4.10/bin/bin/../../lib/gcc/pic32c/8.3.1/../../../../pic32c/lib/thumb/v8-m.base/nofp/libg-musl.a(gmtime_r.o)
 .debug_frame   0x00004108       0x34 /Applications/microchip/xc32/v4.10/bin/bin/../../lib/gcc/pic32c/8.3.1/../../../../pic32c/lib/thumb/v8-m.base/nofp/libg-musl.a(readv.o)
 .debug_frame   0x0000413c       0x30 /Applications/microchip/xc32/v4.10/bin/bin/../../lib/gcc/pic32c/8.3.1/../../../../pic32c/lib/thumb/v8-m.base/nofp/libg-musl.a(intscan.o)
 .debug_frame   0x0000416c       0x20 /Applications/microchip/xc32/v4.10/bin/bin/../../lib/gcc/pic32c/8.3.1/../../../../pic32c/lib/thumb/v8-m.base/nofp/libg-musl.a(syscall_ret.o)
 .debug_frame   0x0000418c       0x50 /Applications/microchip/xc32/v4.10/bin/bin/../../lib/gcc/pic32c/8.3.1/../../../../pic32c/lib/thumb/v8-m.base/nofp/libg-musl.a(shgetc.o)
 .debug_frame   0x000041dc       0x30 /Applications/microchip/xc32/v4.10/bin/bin/../../lib/gcc/pic32c/8.3.1/../../../../pic32c/lib/thumb/v8-m.base/nofp/libg-musl.a(__uflow.o)
 .debug_frame   0x0000420c       0x38 /Applications/microchip/xc32/v4.10/bin/bin/../../lib/gcc/pic32c/8.3.1/../../../../pic32c/lib/thumb/v8-m.base/nofp/libg-musl.a(__init_stdio.o)
 .debug_frame   0x00004244       0x28 /Applications/microchip/xc32/v4.10/bin/bin/../../lib/gcc/pic32c/8.3.1/../../../../pic32c/lib/thumb/v8-m.base/nofp/libg-musl.a(__putc.o)
 .debug_frame   0x0000426c       0x6c /Applications/microchip/xc32/v4.10/bin/bin/../../lib/gcc/pic32c/8.3.1/../../../../pic32c/lib/thumb/v8-m.base/nofp/libg-musl.a(__scan_d.o)
 .debug_frame   0x000042d8       0x30 /Applications/microchip/xc32/v4.10/bin/bin/../../lib/gcc/pic32c/8.3.1/../../../../pic32c/lib/thumb/v8-m.base/nofp/libg-musl.a(__scan_fp.o)
 .debug_frame   0x00004308       0x30 /Applications/microchip/xc32/v4.10/bin/bin/../../lib/gcc/pic32c/8.3.1/../../../../pic32c/lib/thumb/v8-m.base/nofp/libg-musl.a(__scan_i.o)
 .debug_frame   0x00004338       0x30 /Applications/microchip/xc32/v4.10/bin/bin/../../lib/gcc/pic32c/8.3.1/../../../../pic32c/lib/thumb/v8-m.base/nofp/libg-musl.a(__scan_o.o)
 .debug_frame   0x00004368       0x34 /Applications/microchip/xc32/v4.10/bin/bin/../../lib/gcc/pic32c/8.3.1/../../../../pic32c/lib/thumb/v8-m.base/nofp/libg-musl.a(__scan_s.o)
 .debug_frame   0x0000439c       0x30 /Applications/microchip/xc32/v4.10/bin/bin/../../lib/gcc/pic32c/8.3.1/../../../../pic32c/lib/thumb/v8-m.base/nofp/libg-musl.a(__scan_u.o)
 .debug_frame   0x000043cc       0x30 /Applications/microchip/xc32/v4.10/bin/bin/../../lib/gcc/pic32c/8.3.1/../../../../pic32c/lib/thumb/v8-m.base/nofp/libg-musl.a(__scan_x.o)
 .debug_frame   0x000043fc       0xa0 /Applications/microchip/xc32/v4.10/bin/bin/../../lib/gcc/pic32c/8.3.1/../../../../pic32c/lib/thumb/v8-m.base/nofp/libg-musl.a(__scanf_core.o)
 .debug_frame   0x0000449c       0x48 /Applications/microchip/xc32/v4.10/bin/bin/../../lib/gcc/pic32c/8.3.1/../../../../pic32c/lib/thumb/v8-m.base/nofp/libg-musl.a(__stderr.o)
 .debug_frame   0x000044e4       0x4c /Applications/microchip/xc32/v4.10/bin/bin/../../lib/gcc/pic32c/8.3.1/../../../../pic32c/lib/thumb/v8-m.base/nofp/libg-musl.a(__stdio_close.o)
 .debug_frame   0x00004530       0x48 /Applications/microchip/xc32/v4.10/bin/bin/../../lib/gcc/pic32c/8.3.1/../../../../pic32c/lib/thumb/v8-m.base/nofp/libg-musl.a(__stdio_exit.o)
 .debug_frame   0x00004578       0x50 /Applications/microchip/xc32/v4.10/bin/bin/../../lib/gcc/pic32c/8.3.1/../../../../pic32c/lib/thumb/v8-m.base/nofp/libg-musl.a(__stdio_write.o)
 .debug_frame   0x000045c8       0x48 /Applications/microchip/xc32/v4.10/bin/bin/../../lib/gcc/pic32c/8.3.1/../../../../pic32c/lib/thumb/v8-m.base/nofp/libg-musl.a(__stdout.o)
 .debug_frame   0x00004610       0x38 /Applications/microchip/xc32/v4.10/bin/bin/../../lib/gcc/pic32c/8.3.1/../../../../pic32c/lib/thumb/v8-m.base/nofp/libg-musl.a(__towrite.o)
 .debug_frame   0x00004648       0x34 /Applications/microchip/xc32/v4.10/bin/bin/../../lib/gcc/pic32c/8.3.1/../../../../pic32c/lib/thumb/v8-m.base/nofp/libg-musl.a(vsnprintf.o)
 .debug_frame   0x0000467c       0x7c /Applications/microchip/xc32/v4.10/bin/bin/../../lib/gcc/pic32c/8.3.1/../../../../pic32c/lib/thumb/v8-m.base/nofp/libg-musl.a(strtod.o)
 .debug_frame   0x000046f8       0x20 /Applications/microchip/xc32/v4.10/bin/bin/../../lib/gcc/pic32c/8.3.1/../../../../pic32c/lib/thumb/v8-m.base/nofp/libg-musl.a(__month_to_secs.o)
 .debug_frame   0x00004718       0x30 /Applications/microchip/xc32/v4.10/bin/bin/../../lib/gcc/pic32c/8.3.1/../../../../pic32c/lib/thumb/v8-m.base/nofp/libg-musl.a(__secs_to_tm.o)
 .debug_frame   0x00004748       0x34 /Applications/microchip/xc32/v4.10/bin/bin/../../lib/gcc/pic32c/8.3.1/../../../../pic32c/lib/thumb/v8-m.base/nofp/libg-musl.a(writev.o)
 .debug_frame   0x0000477c       0x74 /Applications/microchip/xc32/v4.10/bin/bin/../../lib/gcc/pic32c/8.3.1/../../../../pic32c/lib/thumb/v8-m.base/nofp/libg-musl.a(floatscan.o)
 .debug_frame   0x000047f0       0x30 /Applications/microchip/xc32/v4.10/bin/bin/../../lib/gcc/pic32c/8.3.1/../../../../pic32c/lib/thumb/v8-m.base/nofp/libg-musl.a(__overflow.o)
 .debug_frame   0x00004820       0x40 /Applications/microchip/xc32/v4.10/bin/bin/../../lib/gcc/pic32c/8.3.1/../../../../pic32c/lib/thumb/v8-m.base/nofp/libg-musl.a(__toread.o)
 .debug_frame   0x00004860       0x28 /Applications/microchip/xc32/v4.10/bin/bin/../../lib/gcc/pic32c/8.3.1/../../../../pic32c/lib/thumb/v8-m.base/nofp/libg-musl.a(__fclose.o)
 .debug_frame   0x00004888       0x40 /Applications/microchip/xc32/v4.10/bin/bin/../../lib/gcc/pic32c/8.3.1/../../../../pic32c/lib/thumb/v8-m.base/nofp/libg-musl.a(__fwrite.o)
 .debug_frame   0x000048c8       0x28 /Applications/microchip/xc32/v4.10/bin/bin/../../lib/gcc/pic32c/8.3.1/../../../../pic32c/lib/thumb/v8-m.base/nofp/libg-musl.a(__push_float.o)
 .debug_frame   0x000048f0       0x2c /Applications/microchip/xc32/v4.10/bin/bin/../../lib/gcc/pic32c/8.3.1/../../../../pic32c/lib/thumb/v8-m.base/nofp/libg-musl.a(__push_int.o)
 .debug_frame   0x0000491c       0x44 /Applications/microchip/xc32/v4.10/bin/bin/../../lib/gcc/pic32c/8.3.1/../../../../pic32c/lib/thumb/v8-m.base/nofp/libg-musl.a(vfprintf.o)
 .debug_frame   0x00004960       0x30 /Applications/microchip/xc32/v4.10/bin/bin/../../lib/gcc/pic32c/8.3.1/../../../../pic32c/lib/thumb/v8-m.base/nofp/libg-musl.a(__fmt_a.o)
 .debug_frame   0x00004990       0x2c /Applications/microchip/xc32/v4.10/bin/bin/../../lib/gcc/pic32c/8.3.1/../../../../pic32c/lib/thumb/v8-m.base/nofp/libc-musl.a(fprintf.o)
 .debug_frame   0x000049bc       0x30 /Applications/microchip/xc32/v4.10/bin/bin/../../lib/gcc/pic32c/8.3.1/../../../../pic32c/lib/thumb/v8-m.base/nofp/libc-musl.a(printf.o)
 .debug_frame   0x000049ec       0x34 /Applications/microchip/xc32/v4.10/bin/bin/../../lib/gcc/pic32c/8.3.1/thumb/v8-m.base/nofp/libgcc.a(_muldi3.o)
 .debug_frame   0x00004a20       0x30 /Applications/microchip/xc32/v4.10/bin/bin/../../lib/gcc/pic32c/8.3.1/thumb/v8-m.base/nofp/libgcc.a(_udivmoddi4.o)
 .debug_frame   0x00004a50       0x34 /Applications/microchip/xc32/v4.10/bin/bin/../../lib/gcc/pic32c/8.3.1/thumb/v8-m.base/nofp/libgcc.a(bpabi.o)
 .debug_frame   0x00004a84       0x30 /Applications/microchip/xc32/v4.10/bin/bin/../../lib/gcc/pic32c/8.3.1/thumb/v8-m.base/nofp/libgcc.a(_divdi3.o)
 .debug_frame   0x00004ab4       0x20 /Applications/microchip/xc32/v4.10/bin/bin/../../lib/gcc/pic32c/8.3.1/../../../../pic32c/lib/thumb/v8-m.base/nofp/libpic32c.a(close.o)
 .debug_frame   0x00004ad4       0x20 /Applications/microchip/xc32/v4.10/bin/bin/../../lib/gcc/pic32c/8.3.1/../../../../pic32c/lib/thumb/v8-m.base/nofp/libpic32c.a(lseek.o)
 .debug_frame   0x00004af4       0x20 /Applications/microchip/xc32/v4.10/bin/bin/../../lib/gcc/pic32c/8.3.1/../../../../pic32c/lib/thumb/v8-m.base/nofp/libpic32c.a(sbrk.o)

.note.GNU-stack
                0x00000000        0x0
 .note.GNU-stack
                0x00000000        0x0 /Applications/microchip/xc32/v4.10/bin/bin/../../lib/gcc/pic32c/8.3.1/../../../../pic32c/lib/thumb/v8-m.base/nofp/libg-musl.a(isxdigit.o)
 .note.GNU-stack
                0x00000000        0x0 /Applications/microchip/xc32/v4.10/bin/bin/../../lib/gcc/pic32c/8.3.1/../../../../pic32c/lib/thumb/v8-m.base/nofp/libg-musl.a(__libc_start_main.o)
 .note.GNU-stack
                0x00000000        0x0 /Applications/microchip/xc32/v4.10/bin/bin/../../lib/gcc/pic32c/8.3.1/../../../../pic32c/lib/thumb/v8-m.base/nofp/libg-musl.a(exit.o)
 .note.GNU-stack
                0x00000000        0x0 /Applications/microchip/xc32/v4.10/bin/bin/../../lib/gcc/pic32c/8.3.1/../../../../pic32c/lib/thumb/v8-m.base/nofp/libg-musl.a(libc.o)
 .note.GNU-stack
                0x00000000        0x0 /Applications/microchip/xc32/v4.10/bin/bin/../../lib/gcc/pic32c/8.3.1/../../../../pic32c/lib/thumb/v8-m.base/nofp/libg-musl.a(malloc.o)
 .note.GNU-stack
                0x00000000        0x0 /Applications/microchip/xc32/v4.10/bin/bin/../../lib/gcc/pic32c/8.3.1/../../../../pic32c/lib/thumb/v8-m.base/nofp/libg-musl.a(expand_heap.o)
 .note.GNU-stack
                0x00000000        0x0 /Applications/microchip/xc32/v4.10/bin/bin/../../lib/gcc/pic32c/8.3.1/../../../../pic32c/lib/thumb/v8-m.base/nofp/libg-musl.a(__fmt_d.o)
 .note.GNU-stack
                0x00000000        0x0 /Applications/microchip/xc32/v4.10/bin/bin/../../lib/gcc/pic32c/8.3.1/../../../../pic32c/lib/thumb/v8-m.base/nofp/libg-musl.a(__fmt_fp.o)
 .note.GNU-stack
                0x00000000        0x0 /Applications/microchip/xc32/v4.10/bin/bin/../../lib/gcc/pic32c/8.3.1/../../../../pic32c/lib/thumb/v8-m.base/nofp/libg-musl.a(__fmt_o.o)
 .note.GNU-stack
                0x00000000        0x0 /Applications/microchip/xc32/v4.10/bin/bin/../../lib/gcc/pic32c/8.3.1/../../../../pic32c/lib/thumb/v8-m.base/nofp/libg-musl.a(__fmt_s.o)
 .note.GNU-stack
                0x00000000        0x0 /Applications/microchip/xc32/v4.10/bin/bin/../../lib/gcc/pic32c/8.3.1/../../../../pic32c/lib/thumb/v8-m.base/nofp/libg-musl.a(__fmt_u.o)
 .note.GNU-stack
                0x00000000        0x0 /Applications/microchip/xc32/v4.10/bin/bin/../../lib/gcc/pic32c/8.3.1/../../../../pic32c/lib/thumb/v8-m.base/nofp/libg-musl.a(__fmt_x.o)
 .note.GNU-stack
                0x00000000        0x0 /Applications/microchip/xc32/v4.10/bin/bin/../../lib/gcc/pic32c/8.3.1/../../../../pic32c/lib/thumb/v8-m.base/nofp/libg-musl.a(__printf_core.o)
 .note.GNU-stack
                0x00000000        0x0 /Applications/microchip/xc32/v4.10/bin/bin/../../lib/gcc/pic32c/8.3.1/../../../../pic32c/lib/thumb/v8-m.base/nofp/libg-musl.a(fflush.o)
 .note.GNU-stack
                0x00000000        0x0 /Applications/microchip/xc32/v4.10/bin/bin/../../lib/gcc/pic32c/8.3.1/../../../../pic32c/lib/thumb/v8-m.base/nofp/libg-musl.a(fwrite.o)
 .note.GNU-stack
                0x00000000        0x0 /Applications/microchip/xc32/v4.10/bin/bin/../../lib/gcc/pic32c/8.3.1/../../../../pic32c/lib/thumb/v8-m.base/nofp/libg-musl.a(putc.o)
 .note.GNU-stack
                0x00000000        0x0 /Applications/microchip/xc32/v4.10/bin/bin/../../lib/gcc/pic32c/8.3.1/../../../../pic32c/lib/thumb/v8-m.base/nofp/libg-musl.a(sscanf.o)
 .note.GNU-stack
                0x00000000        0x0 /Applications/microchip/xc32/v4.10/bin/bin/../../lib/gcc/pic32c/8.3.1/../../../../pic32c/lib/thumb/v8-m.base/nofp/libg-musl.a(stdin.o)
 .note.GNU-stack
                0x00000000        0x0 /Applications/microchip/xc32/v4.10/bin/bin/../../lib/gcc/pic32c/8.3.1/../../../../pic32c/lib/thumb/v8-m.base/nofp/libg-musl.a(stdout.o)
 .note.GNU-stack
                0x00000000        0x0 /Applications/microchip/xc32/v4.10/bin/bin/../../lib/gcc/pic32c/8.3.1/../../../../pic32c/lib/thumb/v8-m.base/nofp/libg-musl.a(vsscanf.o)
 .note.GNU-stack
                0x00000000        0x0 /Applications/microchip/xc32/v4.10/bin/bin/../../lib/gcc/pic32c/8.3.1/../../../../pic32c/lib/thumb/v8-m.base/nofp/libg-musl.a(puts.o)
 .note.GNU-stack
                0x00000000        0x0 /Applications/microchip/xc32/v4.10/bin/bin/../../lib/gcc/pic32c/8.3.1/../../../../pic32c/lib/thumb/v8-m.base/nofp/libg-musl.a(setbuf.o)
 .note.GNU-stack
                0x00000000        0x0 /Applications/microchip/xc32/v4.10/bin/bin/../../lib/gcc/pic32c/8.3.1/../../../../pic32c/lib/thumb/v8-m.base/nofp/libg-musl.a(atoi.o)
 .note.GNU-stack
                0x00000000        0x0 /Applications/microchip/xc32/v4.10/bin/bin/../../lib/gcc/pic32c/8.3.1/../../../../pic32c/lib/thumb/v8-m.base/nofp/libg-musl.a(div.o)
 .note.GNU-stack
                0x00000000        0x0 /Applications/microchip/xc32/v4.10/bin/bin/../../lib/gcc/pic32c/8.3.1/../../../../pic32c/lib/thumb/v8-m.base/nofp/libg-musl.a(memcmp.o)
 .note.GNU-stack
                0x00000000        0x0 /Applications/microchip/xc32/v4.10/bin/bin/../../lib/gcc/pic32c/8.3.1/../../../../pic32c/lib/thumb/v8-m.base/nofp/libg-musl.a(memcpy.o)
 .note.GNU-stack
                0x00000000        0x0 /Applications/microchip/xc32/v4.10/bin/bin/../../lib/gcc/pic32c/8.3.1/../../../../pic32c/lib/thumb/v8-m.base/nofp/libg-musl.a(memmove.o)
 .note.GNU-stack
                0x00000000        0x0 /Applications/microchip/xc32/v4.10/bin/bin/../../lib/gcc/pic32c/8.3.1/../../../../pic32c/lib/thumb/v8-m.base/nofp/libg-musl.a(memset.o)
 .note.GNU-stack
                0x00000000        0x0 /Applications/microchip/xc32/v4.10/bin/bin/../../lib/gcc/pic32c/8.3.1/../../../../pic32c/lib/thumb/v8-m.base/nofp/libg-musl.a(strlen.o)
 .note.GNU-stack
                0x00000000        0x0 /Applications/microchip/xc32/v4.10/bin/bin/../../lib/gcc/pic32c/8.3.1/../../../../pic32c/lib/thumb/v8-m.base/nofp/libg-musl.a(strcpy.o)
 .note.GNU-stack
                0x00000000        0x0 /Applications/microchip/xc32/v4.10/bin/bin/../../lib/gcc/pic32c/8.3.1/../../../../pic32c/lib/thumb/v8-m.base/nofp/libg-musl.a(strlcat.o)
 .note.GNU-stack
                0x00000000        0x0 /Applications/microchip/xc32/v4.10/bin/bin/../../lib/gcc/pic32c/8.3.1/../../../../pic32c/lib/thumb/v8-m.base/nofp/libg-musl.a(strlcpy.o)
 .note.GNU-stack
                0x00000000        0x0 /Applications/microchip/xc32/v4.10/bin/bin/../../lib/gcc/pic32c/8.3.1/../../../../pic32c/lib/thumb/v8-m.base/nofp/libg-musl.a(strnlen.o)
 .note.GNU-stack
                0x00000000        0x0 /Applications/microchip/xc32/v4.10/bin/bin/../../lib/gcc/pic32c/8.3.1/../../../../pic32c/lib/thumb/v8-m.base/nofp/libg-musl.a(localtime.o)
 .note.GNU-stack
                0x00000000        0x0 /Applications/microchip/xc32/v4.10/bin/bin/../../lib/gcc/pic32c/8.3.1/../../../../pic32c/lib/thumb/v8-m.base/nofp/libg-musl.a(strftime.o)
 .note.GNU-stack
                0x00000000        0x0 /Applications/microchip/xc32/v4.10/bin/bin/../../lib/gcc/pic32c/8.3.1/../../../../pic32c/lib/thumb/v8-m.base/nofp/libg-musl.a(time.o)
 .note.GNU-stack
                0x00000000        0x0 /Applications/microchip/xc32/v4.10/bin/bin/../../lib/gcc/pic32c/8.3.1/../../../../pic32c/lib/thumb/v8-m.base/nofp/libg-musl.a(tolower.o)
 .note.GNU-stack
                0x00000000        0x0 /Applications/microchip/xc32/v4.10/bin/bin/../../lib/gcc/pic32c/8.3.1/../../../../pic32c/lib/thumb/v8-m.base/nofp/libg-musl.a(toupper.o)
 .note.GNU-stack
                0x00000000        0x0 /Applications/microchip/xc32/v4.10/bin/bin/../../lib/gcc/pic32c/8.3.1/../../../../pic32c/lib/thumb/v8-m.base/nofp/libg-musl.a(__environ.o)
 .note.GNU-stack
                0x00000000        0x0 /Applications/microchip/xc32/v4.10/bin/bin/../../lib/gcc/pic32c/8.3.1/../../../../pic32c/lib/thumb/v8-m.base/nofp/libg-musl.a(__errno_location.o)
 .note.GNU-stack
                0x00000000        0x0 /Applications/microchip/xc32/v4.10/bin/bin/../../lib/gcc/pic32c/8.3.1/../../../../pic32c/lib/thumb/v8-m.base/nofp/libg-musl.a(_Exit.o)
 .note.GNU-stack
                0x00000000        0x0 /Applications/microchip/xc32/v4.10/bin/bin/../../lib/gcc/pic32c/8.3.1/../../../../pic32c/lib/thumb/v8-m.base/nofp/libg-musl.a(langinfo.o)
 .note.GNU-stack
                0x00000000        0x0 /Applications/microchip/xc32/v4.10/bin/bin/../../lib/gcc/pic32c/8.3.1/../../../../pic32c/lib/thumb/v8-m.base/nofp/libg-musl.a(c_locale.o)
 .note.GNU-stack
                0x00000000        0x0 /Applications/microchip/xc32/v4.10/bin/bin/../../lib/gcc/pic32c/8.3.1/../../../../pic32c/lib/thumb/v8-m.base/nofp/libg-musl.a(__string_read.o)
 .note.GNU-stack
                0x00000000        0x0 /Applications/microchip/xc32/v4.10/bin/bin/../../lib/gcc/pic32c/8.3.1/../../../../pic32c/lib/thumb/v8-m.base/nofp/libg-musl.a(fputs.o)
 .note.GNU-stack
                0x00000000        0x0 /Applications/microchip/xc32/v4.10/bin/bin/../../lib/gcc/pic32c/8.3.1/../../../../pic32c/lib/thumb/v8-m.base/nofp/libg-musl.a(__out.o)
 .note.GNU-stack
                0x00000000        0x0 /Applications/microchip/xc32/v4.10/bin/bin/../../lib/gcc/pic32c/8.3.1/../../../../pic32c/lib/thumb/v8-m.base/nofp/libg-musl.a(__pop_float.o)
 .note.GNU-stack
                0x00000000        0x0 /Applications/microchip/xc32/v4.10/bin/bin/../../lib/gcc/pic32c/8.3.1/../../../../pic32c/lib/thumb/v8-m.base/nofp/libg-musl.a(__pop_int.o)
 .note.GNU-stack
                0x00000000        0x0 /Applications/microchip/xc32/v4.10/bin/bin/../../lib/gcc/pic32c/8.3.1/../../../../pic32c/lib/thumb/v8-m.base/nofp/libg-musl.a(__pop_ptr.o)
 .note.GNU-stack
                0x00000000        0x0 /Applications/microchip/xc32/v4.10/bin/bin/../../lib/gcc/pic32c/8.3.1/../../../../pic32c/lib/thumb/v8-m.base/nofp/libg-musl.a(__stdio_read.o)
 .note.GNU-stack
                0x00000000        0x0 /Applications/microchip/xc32/v4.10/bin/bin/../../lib/gcc/pic32c/8.3.1/../../../../pic32c/lib/thumb/v8-m.base/nofp/libg-musl.a(__towrite_rw.o)
 .note.GNU-stack
                0x00000000        0x0 /Applications/microchip/xc32/v4.10/bin/bin/../../lib/gcc/pic32c/8.3.1/../../../../pic32c/lib/thumb/v8-m.base/nofp/libg-musl.a(setvbuf.o)
 .note.GNU-stack
                0x00000000        0x0 /Applications/microchip/xc32/v4.10/bin/bin/../../lib/gcc/pic32c/8.3.1/../../../../pic32c/lib/thumb/v8-m.base/nofp/libg-musl.a(vfscanf.o)
 .note.GNU-stack
                0x00000000        0x0 /Applications/microchip/xc32/v4.10/bin/bin/../../lib/gcc/pic32c/8.3.1/../../../../pic32c/lib/thumb/v8-m.base/nofp/libg-musl.a(snprintf.o)
 .note.GNU-stack
                0x00000000        0x0 /Applications/microchip/xc32/v4.10/bin/bin/../../lib/gcc/pic32c/8.3.1/../../../../pic32c/lib/thumb/v8-m.base/nofp/libg-musl.a(abs.o)
 .note.GNU-stack
                0x00000000        0x0 /Applications/microchip/xc32/v4.10/bin/bin/../../lib/gcc/pic32c/8.3.1/../../../../pic32c/lib/thumb/v8-m.base/nofp/libg-musl.a(strtol.o)
 .note.GNU-stack
                0x00000000        0x0 /Applications/microchip/xc32/v4.10/bin/bin/../../lib/gcc/pic32c/8.3.1/../../../../pic32c/lib/thumb/v8-m.base/nofp/libg-musl.a(memchr.o)
 .note.GNU-stack
                0x00000000        0x0 /Applications/microchip/xc32/v4.10/bin/bin/../../lib/gcc/pic32c/8.3.1/../../../../pic32c/lib/thumb/v8-m.base/nofp/libg-musl.a(stpcpy.o)
 .note.GNU-stack
                0x00000000        0x0 /Applications/microchip/xc32/v4.10/bin/bin/../../lib/gcc/pic32c/8.3.1/../../../../pic32c/lib/thumb/v8-m.base/nofp/libg-musl.a(__tm_to_secs.o)
 .note.GNU-stack
                0x00000000        0x0 /Applications/microchip/xc32/v4.10/bin/bin/../../lib/gcc/pic32c/8.3.1/../../../../pic32c/lib/thumb/v8-m.base/nofp/libg-musl.a(__year_to_secs.o)
 .note.GNU-stack
                0x00000000        0x0 /Applications/microchip/xc32/v4.10/bin/bin/../../lib/gcc/pic32c/8.3.1/../../../../pic32c/lib/thumb/v8-m.base/nofp/libg-musl.a(__tz.o)
 .note.GNU-stack
                0x00000000        0x0 /Applications/microchip/xc32/v4.10/bin/bin/../../lib/gcc/pic32c/8.3.1/../../../../pic32c/lib/thumb/v8-m.base/nofp/libg-musl.a(clock_gettime.o)
 .note.GNU-stack
                0x00000000        0x0 /Applications/microchip/xc32/v4.10/bin/bin/../../lib/gcc/pic32c/8.3.1/../../../../pic32c/lib/thumb/v8-m.base/nofp/libg-musl.a(gettimeofday.o)
 .note.GNU-stack
                0x00000000        0x0 /Applications/microchip/xc32/v4.10/bin/bin/../../lib/gcc/pic32c/8.3.1/../../../../pic32c/lib/thumb/v8-m.base/nofp/libg-musl.a(gmtime_r.o)
 .note.GNU-stack
                0x00000000        0x0 /Applications/microchip/xc32/v4.10/bin/bin/../../lib/gcc/pic32c/8.3.1/../../../../pic32c/lib/thumb/v8-m.base/nofp/libg-musl.a(readv.o)
 .note.GNU-stack
                0x00000000        0x0 /Applications/microchip/xc32/v4.10/bin/bin/../../lib/gcc/pic32c/8.3.1/../../../../pic32c/lib/thumb/v8-m.base/nofp/libg-musl.a(intscan.o)
 .note.GNU-stack
                0x00000000        0x0 /Applications/microchip/xc32/v4.10/bin/bin/../../lib/gcc/pic32c/8.3.1/../../../../pic32c/lib/thumb/v8-m.base/nofp/libg-musl.a(syscall_ret.o)
 .note.GNU-stack
                0x00000000        0x0 /Applications/microchip/xc32/v4.10/bin/bin/../../lib/gcc/pic32c/8.3.1/../../../../pic32c/lib/thumb/v8-m.base/nofp/libg-musl.a(shgetc.o)
 .note.GNU-stack
                0x00000000        0x0 /Applications/microchip/xc32/v4.10/bin/bin/../../lib/gcc/pic32c/8.3.1/../../../../pic32c/lib/thumb/v8-m.base/nofp/libg-musl.a(__uflow.o)
 .note.GNU-stack
                0x00000000        0x0 /Applications/microchip/xc32/v4.10/bin/bin/../../lib/gcc/pic32c/8.3.1/../../../../pic32c/lib/thumb/v8-m.base/nofp/libg-musl.a(__init_stdio.o)
 .note.GNU-stack
                0x00000000        0x0 /Applications/microchip/xc32/v4.10/bin/bin/../../lib/gcc/pic32c/8.3.1/../../../../pic32c/lib/thumb/v8-m.base/nofp/libg-musl.a(__putc.o)
 .note.GNU-stack
                0x00000000        0x0 /Applications/microchip/xc32/v4.10/bin/bin/../../lib/gcc/pic32c/8.3.1/../../../../pic32c/lib/thumb/v8-m.base/nofp/libg-musl.a(__scan_d.o)
 .note.GNU-stack
                0x00000000        0x0 /Applications/microchip/xc32/v4.10/bin/bin/../../lib/gcc/pic32c/8.3.1/../../../../pic32c/lib/thumb/v8-m.base/nofp/libg-musl.a(__scan_fp.o)
 .note.GNU-stack
                0x00000000        0x0 /Applications/microchip/xc32/v4.10/bin/bin/../../lib/gcc/pic32c/8.3.1/../../../../pic32c/lib/thumb/v8-m.base/nofp/libg-musl.a(__scan_i.o)
 .note.GNU-stack
                0x00000000        0x0 /Applications/microchip/xc32/v4.10/bin/bin/../../lib/gcc/pic32c/8.3.1/../../../../pic32c/lib/thumb/v8-m.base/nofp/libg-musl.a(__scan_o.o)
 .note.GNU-stack
                0x00000000        0x0 /Applications/microchip/xc32/v4.10/bin/bin/../../lib/gcc/pic32c/8.3.1/../../../../pic32c/lib/thumb/v8-m.base/nofp/libg-musl.a(__scan_s.o)
 .note.GNU-stack
                0x00000000        0x0 /Applications/microchip/xc32/v4.10/bin/bin/../../lib/gcc/pic32c/8.3.1/../../../../pic32c/lib/thumb/v8-m.base/nofp/libg-musl.a(__scan_u.o)
 .note.GNU-stack
                0x00000000        0x0 /Applications/microchip/xc32/v4.10/bin/bin/../../lib/gcc/pic32c/8.3.1/../../../../pic32c/lib/thumb/v8-m.base/nofp/libg-musl.a(__scan_x.o)
 .note.GNU-stack
                0x00000000        0x0 /Applications/microchip/xc32/v4.10/bin/bin/../../lib/gcc/pic32c/8.3.1/../../../../pic32c/lib/thumb/v8-m.base/nofp/libg-musl.a(__scanf_core.o)
 .note.GNU-stack
                0x00000000        0x0 /Applications/microchip/xc32/v4.10/bin/bin/../../lib/gcc/pic32c/8.3.1/../../../../pic32c/lib/thumb/v8-m.base/nofp/libg-musl.a(__stderr.o)
 .note.GNU-stack
                0x00000000        0x0 /Applications/microchip/xc32/v4.10/bin/bin/../../lib/gcc/pic32c/8.3.1/../../../../pic32c/lib/thumb/v8-m.base/nofp/libg-musl.a(__stdio_close.o)
 .note.GNU-stack
                0x00000000        0x0 /Applications/microchip/xc32/v4.10/bin/bin/../../lib/gcc/pic32c/8.3.1/../../../../pic32c/lib/thumb/v8-m.base/nofp/libg-musl.a(__stdio_exit.o)
 .note.GNU-stack
                0x00000000        0x0 /Applications/microchip/xc32/v4.10/bin/bin/../../lib/gcc/pic32c/8.3.1/../../../../pic32c/lib/thumb/v8-m.base/nofp/libg-musl.a(__stdio_write.o)
 .note.GNU-stack
                0x00000000        0x0 /Applications/microchip/xc32/v4.10/bin/bin/../../lib/gcc/pic32c/8.3.1/../../../../pic32c/lib/thumb/v8-m.base/nofp/libg-musl.a(__stdout.o)
 .note.GNU-stack
                0x00000000        0x0 /Applications/microchip/xc32/v4.10/bin/bin/../../lib/gcc/pic32c/8.3.1/../../../../pic32c/lib/thumb/v8-m.base/nofp/libg-musl.a(__towrite.o)
 .note.GNU-stack
                0x00000000        0x0 /Applications/microchip/xc32/v4.10/bin/bin/../../lib/gcc/pic32c/8.3.1/../../../../pic32c/lib/thumb/v8-m.base/nofp/libg-musl.a(vsnprintf.o)
 .note.GNU-stack
                0x00000000        0x0 /Applications/microchip/xc32/v4.10/bin/bin/../../lib/gcc/pic32c/8.3.1/../../../../pic32c/lib/thumb/v8-m.base/nofp/libg-musl.a(strtod.o)
 .note.GNU-stack
                0x00000000        0x0 /Applications/microchip/xc32/v4.10/bin/bin/../../lib/gcc/pic32c/8.3.1/../../../../pic32c/lib/thumb/v8-m.base/nofp/libg-musl.a(__month_to_secs.o)
 .note.GNU-stack
                0x00000000        0x0 /Applications/microchip/xc32/v4.10/bin/bin/../../lib/gcc/pic32c/8.3.1/../../../../pic32c/lib/thumb/v8-m.base/nofp/libg-musl.a(__secs_to_tm.o)
 .note.GNU-stack
                0x00000000        0x0 /Applications/microchip/xc32/v4.10/bin/bin/../../lib/gcc/pic32c/8.3.1/../../../../pic32c/lib/thumb/v8-m.base/nofp/libg-musl.a(writev.o)
 .note.GNU-stack
                0x00000000        0x0 /Applications/microchip/xc32/v4.10/bin/bin/../../lib/gcc/pic32c/8.3.1/../../../../pic32c/lib/thumb/v8-m.base/nofp/libg-musl.a(floatscan.o)
 .note.GNU-stack
                0x00000000        0x0 /Applications/microchip/xc32/v4.10/bin/bin/../../lib/gcc/pic32c/8.3.1/../../../../pic32c/lib/thumb/v8-m.base/nofp/libg-musl.a(__overflow.o)
 .note.GNU-stack
                0x00000000        0x0 /Applications/microchip/xc32/v4.10/bin/bin/../../lib/gcc/pic32c/8.3.1/../../../../pic32c/lib/thumb/v8-m.base/nofp/libg-musl.a(__toread.o)
 .note.GNU-stack
                0x00000000        0x0 /Applications/microchip/xc32/v4.10/bin/bin/../../lib/gcc/pic32c/8.3.1/../../../../pic32c/lib/thumb/v8-m.base/nofp/libg-musl.a(__fclose.o)
 .note.GNU-stack
                0x00000000        0x0 /Applications/microchip/xc32/v4.10/bin/bin/../../lib/gcc/pic32c/8.3.1/../../../../pic32c/lib/thumb/v8-m.base/nofp/libg-musl.a(__fwrite.o)
 .note.GNU-stack
                0x00000000        0x0 /Applications/microchip/xc32/v4.10/bin/bin/../../lib/gcc/pic32c/8.3.1/../../../../pic32c/lib/thumb/v8-m.base/nofp/libg-musl.a(__push_float.o)
 .note.GNU-stack
                0x00000000        0x0 /Applications/microchip/xc32/v4.10/bin/bin/../../lib/gcc/pic32c/8.3.1/../../../../pic32c/lib/thumb/v8-m.base/nofp/libg-musl.a(__push_int.o)
 .note.GNU-stack
                0x00000000        0x0 /Applications/microchip/xc32/v4.10/bin/bin/../../lib/gcc/pic32c/8.3.1/../../../../pic32c/lib/thumb/v8-m.base/nofp/libg-musl.a(vfprintf.o)
 .note.GNU-stack
                0x00000000        0x0 /Applications/microchip/xc32/v4.10/bin/bin/../../lib/gcc/pic32c/8.3.1/../../../../pic32c/lib/thumb/v8-m.base/nofp/libg-musl.a(__fmt_a.o)
 .note.GNU-stack
                0x00000000        0x0 /Applications/microchip/xc32/v4.10/bin/bin/../../lib/gcc/pic32c/8.3.1/../../../../pic32c/lib/thumb/v8-m.base/nofp/libc-musl.a(fprintf.o)
 .note.GNU-stack
                0x00000000        0x0 /Applications/microchip/xc32/v4.10/bin/bin/../../lib/gcc/pic32c/8.3.1/../../../../pic32c/lib/thumb/v8-m.base/nofp/libc-musl.a(printf.o)

__xc_reference_data
                0x00000000      0x180
 __xc_reference_data
                0x00000000        0xc /Applications/microchip/xc32/v4.10/bin/bin/../../lib/gcc/pic32c/8.3.1/../../../../pic32c/lib/thumb/v8-m.base/nofp/libg-musl.a(putc.o)
                0x00000000                __putc_needs_out
 __xc_reference_data
                0x0000000c        0x8 /Applications/microchip/xc32/v4.10/bin/bin/../../lib/gcc/pic32c/8.3.1/../../../../pic32c/lib/thumb/v8-m.base/nofp/libg-musl.a(stdin.o)
                0x0000000c                __stdin_needs_rw
 __xc_reference_data
                0x00000014        0x8 /Applications/microchip/xc32/v4.10/bin/bin/../../lib/gcc/pic32c/8.3.1/../../../../pic32c/lib/thumb/v8-m.base/nofp/libg-musl.a(stdout.o)
                0x00000014                __stdout_needs_init
 __xc_reference_data
                0x0000001c       0x14 /Applications/microchip/xc32/v4.10/bin/bin/../../lib/gcc/pic32c/8.3.1/../../../../pic32c/lib/thumb/v8-m.base/nofp/libg-musl.a(__io_init_needed.o)
                0x0000001c                __io_init_needed
                0x00000028                __io_init_needs_file
 __xc_reference_data
                0x00000030       0x20 /Applications/microchip/xc32/v4.10/bin/bin/../../lib/gcc/pic32c/8.3.1/../../../../pic32c/lib/thumb/v8-m.base/nofp/libg-musl.a(__io_rw_needed.o)
                0x00000030                __io_rw_needed
 __xc_reference_data
                0x00000050        0x8 /Applications/microchip/xc32/v4.10/bin/bin/../../lib/gcc/pic32c/8.3.1/../../../../pic32c/lib/thumb/v8-m.base/nofp/libg-musl.a(setvbuf.o)
                0x00000050                __setvbuf_needs_buf
 __xc_reference_data
                0x00000058        0x8 /Applications/microchip/xc32/v4.10/bin/bin/../../lib/gcc/pic32c/8.3.1/../../../../pic32c/lib/thumb/v8-m.base/nofp/libg-musl.a(vfscanf.o)
                0x00000058                __vfscanf_needs_scan
 __xc_reference_data
                0x00000060       0x34 /Applications/microchip/xc32/v4.10/bin/bin/../../lib/gcc/pic32c/8.3.1/../../../../pic32c/lib/thumb/v8-m.base/nofp/libg-musl.a(__io_buf_needed.o)
                0x00000060                __io_buf_needed
 __xc_reference_data
                0x00000094        0xc /Applications/microchip/xc32/v4.10/bin/bin/../../lib/gcc/pic32c/8.3.1/../../../../pic32c/lib/thumb/v8-m.base/nofp/libg-musl.a(__io_file_needed.o)
                0x00000094                __io_file_needed
 __xc_reference_data
                0x000000a0       0x44 /Applications/microchip/xc32/v4.10/bin/bin/../../lib/gcc/pic32c/8.3.1/../../../../pic32c/lib/thumb/v8-m.base/nofp/libg-musl.a(__io_scan_needed.o)
                0x000000a0                __io_scan_needed
 __xc_reference_data
                0x000000e4       0x2c /Applications/microchip/xc32/v4.10/bin/bin/../../lib/gcc/pic32c/8.3.1/../../../../pic32c/lib/thumb/v8-m.base/nofp/libg-musl.a(__io_std_needed.o)
                0x000000e4                __io_std_needed
 __xc_reference_data
                0x00000110        0xc /Applications/microchip/xc32/v4.10/bin/bin/../../lib/gcc/pic32c/8.3.1/../../../../pic32c/lib/thumb/v8-m.base/nofp/libg-musl.a(__scan_d.o)
                0x00000110                __scan_d_needs_scan_i
 __xc_reference_data
                0x0000011c        0x8 /Applications/microchip/xc32/v4.10/bin/bin/../../lib/gcc/pic32c/8.3.1/../../../../pic32c/lib/thumb/v8-m.base/nofp/libg-musl.a(__scanf_core.o)
                0x0000011c                __scanf_needs_rw
 __xc_reference_data
                0x00000124        0x8 /Applications/microchip/xc32/v4.10/bin/bin/../../lib/gcc/pic32c/8.3.1/../../../../pic32c/lib/thumb/v8-m.base/nofp/libg-musl.a(__stderr.o)
                0x00000124                __stderr_needs_file
 __xc_reference_data
                0x0000012c        0x8 /Applications/microchip/xc32/v4.10/bin/bin/../../lib/gcc/pic32c/8.3.1/../../../../pic32c/lib/thumb/v8-m.base/nofp/libg-musl.a(__stdout.o)
                0x0000012c                __stdout_needs_file
 __xc_reference_data
                0x00000134        0x8 /Applications/microchip/xc32/v4.10/bin/bin/../../lib/gcc/pic32c/8.3.1/../../../../pic32c/lib/thumb/v8-m.base/nofp/libg-musl.a(__fwrite.o)
                0x00000134                __fwrite_needs_std
 __xc_reference_data
                0x0000013c        0x8 /Applications/microchip/xc32/v4.10/bin/bin/../../lib/gcc/pic32c/8.3.1/../../../../pic32c/lib/thumb/v8-m.base/nofp/libg-musl.a(vfprintf.o)
                0x0000013c                __vfprintf_needs_fmt
 __xc_reference_data
                0x00000144       0x3c /Applications/microchip/xc32/v4.10/bin/bin/../../lib/gcc/pic32c/8.3.1/../../../../pic32c/lib/thumb/v8-m.base/nofp/libg-musl.a(__io_fmt_needed.o)
                0x00000144                __io_fmt_needed

.stack          0x2000f350      0x100
 .stack         0x2000f350      0x100 stack

.bss.ewf_allocator_memory_pool__buffer__message_allocator.10793%1
                0x20008000     0x4000
 .bss.ewf_allocator_memory_pool__buffer__message_allocator.10793
                0x20008000     0x4000 build/default/debug/_ext/1360937237/main.o

.bss.buffer_ptr.7241%2
                0x2000c000      0x800
 .bss.buffer_ptr.7241
                0x2000c000      0x800 build/default/debug/_ext/1360937237/main.o

.bss.SERCOM2_USART_ReadBuffer%3
                0x2000c800      0x800
 .bss.SERCOM2_USART_ReadBuffer
                0x2000c800      0x800 build/default/debug/_ext/504274921/plib_sercom2_usart.o

.bss.SERCOM2_USART_WriteBuffer%4
                0x2000d000      0x800
 .bss.SERCOM2_USART_WriteBuffer
                0x2000d000      0x800 build/default/debug/_ext/504274921/plib_sercom2_usart.o

.bss.ewf_mqtt_recv_message%5
                0x2000d800      0x508
 .bss.ewf_mqtt_recv_message
                0x2000d800      0x508 build/default/debug/_ext/1360937237/azure_iot_pnp_pic32cmls60-curiosity.o

.bss%6          0x2000dd08      0x618
 .bss           0x2000dd08      0x408 /Applications/microchip/xc32/v4.10/bin/bin/../../lib/gcc/pic32c/8.3.1/../../../../pic32c/lib/thumb/v8-m.base/nofp/libg-musl.a(stdin.o)
 .bss           0x2000e110      0x210 /Applications/microchip/xc32/v4.10/bin/bin/../../lib/gcc/pic32c/8.3.1/../../../../pic32c/lib/thumb/v8-m.base/nofp/libg-musl.a(malloc.o)

.bss.command_response_payload_buffer%8
                0x2000e320      0x100
 .bss.command_response_payload_buffer
                0x2000e320      0x100 build/default/debug/_ext/1360937237/azure_iot_pnp_pic32cmls60-curiosity.o

.bss.mqtt_client_username_buffer%9
                0x2000e420      0x100
 .bss.mqtt_client_username_buffer
                0x2000e420      0x100 build/default/debug/_ext/1360937237/azure_iot_pnp_pic32cmls60-curiosity.o

.bss.telemetry_topic_buffer%10
                0x2000e520      0x100
 .bss.telemetry_topic_buffer
                0x2000e520      0x100 build/default/debug/_ext/1360937237/azure_iot_pnp_pic32cmls60-curiosity.o

.bss.BUTTON_eventBuffer%11
                0x2000e620      0x100
 .bss.BUTTON_eventBuffer
                0x2000e620      0x100 build/default/debug/_ext/1360937237/pic32cmls60-curiosity-buttons.o
                0x2000e620                BUTTON_eventBuffer

.bss.eicCallbackObject%12
                0x2000e720       0xc0
 .bss.eicCallbackObject
                0x2000e720       0xc0 build/default/debug/_ext/60167341/plib_eic.o
                0x2000e720                eicCallbackObject

.bss.ewf_adapter_quectel_bg96__implementation__quectel_bg96.10802%13
                0x2000e7e0       0x9c
 .bss.ewf_adapter_quectel_bg96__implementation__quectel_bg96.10802
                0x2000e7e0       0x9c build/default/debug/_ext/1360937237/main.o

.bss.azure_iot_hub_device_id_buffer%14
                0x2000e87c       0x80
 .bss.azure_iot_hub_device_id_buffer
                0x2000e87c       0x80 build/default/debug/_ext/1360937237/azure_iot_pnp_pic32cmls60-curiosity.o

.bss.azure_iot_hub_endpoint_buffer%15
                0x2000e8fc       0x80
 .bss.azure_iot_hub_endpoint_buffer
                0x2000e8fc       0x80 build/default/debug/_ext/1360937237/azure_iot_pnp_pic32cmls60-curiosity.o

.bss.mqtt_client_id_buffer%16
                0x2000e97c       0x80
 .bss.mqtt_client_id_buffer
                0x2000e97c       0x80 build/default/debug/_ext/1360937237/azure_iot_pnp_pic32cmls60-curiosity.o

.bss.register_topic_buffer%17
                0x2000e9fc       0x80
 .bss.register_topic_buffer
                0x2000e9fc       0x80 build/default/debug/_ext/1360937237/azure_iot_pnp_pic32cmls60-curiosity.o

.data%18        0x2000ea80       0x78
 .data          0x2000ea80       0x78 /Applications/microchip/xc32/v4.10/bin/bin/../../lib/gcc/pic32c/8.3.1/../../../../pic32c/lib/thumb/v8-m.base/nofp/libg-musl.a(stdin.o)
                0x2000ea80                __stdin_used
                0x2000ea84                _stdin

.bss.ewf_interface_microchip_pic_uart__interface__pic_uart.10797%19
                0x2000eaf8       0x68
 .bss.ewf_interface_microchip_pic_uart__interface__pic_uart.10797
                0x2000eaf8       0x68 build/default/debug/_ext/1360937237/main.o

.data%20        0x2000eb60       0x68
 .data          0x2000eb60       0x68 /Applications/microchip/xc32/v4.10/bin/bin/../../lib/gcc/pic32c/8.3.1/../../../../pic32c/lib/thumb/v8-m.base/nofp/libg-musl.a(__stdout.o)

.bss%21         0x2000ebc8       0xa0
 .bss           0x2000ebc8       0x50 /Applications/microchip/xc32/v4.10/bin/bin/../../lib/gcc/pic32c/8.3.1/../../../../pic32c/lib/thumb/v8-m.base/nofp/libg-musl.a(libc.o)
                0x2000ebc8                program_invocation_name
                0x2000ebc8                __progname_full
                0x2000ebcc                __progname
                0x2000ebcc                program_invocation_short_name
                0x2000ebd0                __sysinfo
                0x2000ebd4                __hwcap
                0x2000ebd8                __libc
 .bss           0x2000ec18       0x50 /Applications/microchip/xc32/v4.10/bin/bin/../../lib/gcc/pic32c/8.3.1/../../../../pic32c/lib/thumb/v8-m.base/nofp/libg-musl.a(__tz.o)
                0x2000ec20                __tzname
                0x2000ec20                tzname
                0x2000ec28                timezone
                0x2000ec28                __timezone
                0x2000ec34                __daylight
                0x2000ec34                daylight

.bss.ewf_platform_queue__buffer__ewf_interface_microchip_pic_uart__response_queue__pic_uart.10798%23
                0x2000ec68       0x40
 .bss.ewf_platform_queue__buffer__ewf_interface_microchip_pic_uart__response_queue__pic_uart.10798
                0x2000ec68       0x40 build/default/debug/_ext/1360937237/main.o

.bss.ewf_platform_queue__buffer__ewf_interface_microchip_pic_uart__urc_queue__pic_uart.10800%24
                0x2000eca8       0x40
 .bss.ewf_platform_queue__buffer__ewf_interface_microchip_pic_uart__urc_queue__pic_uart.10800
                0x2000eca8       0x40 build/default/debug/_ext/1360937237/main.o

.bss.sercom2USARTObj%25
                0x2000ece8       0x40
 .bss.sercom2USARTObj
                0x2000ece8       0x40 build/default/debug/_ext/504274921/plib_sercom2_usart.o

.bss.ewf_adapter_quectel_bg96__quectel_bg96.10803%26
                0x2000ed28       0x38
 .bss.ewf_adapter_quectel_bg96__quectel_bg96.10803
                0x2000ed28       0x38 build/default/debug/_ext/1360937237/main.o

.bss.hub_client%27
                0x2000ed60       0x30
 .bss.hub_client
                0x2000ed60       0x30 build/default/debug/_ext/1360937237/azure_iot_pnp_pic32cmls60-curiosity.o

.bss.ewf_allocator__message_allocator.10795%28
                0x2000ed90       0x2c
 .bss.ewf_allocator__message_allocator.10795
                0x2000ed90       0x2c build/default/debug/_ext/1360937237/main.o

.data.ewf_adapter_quectel_common_api_tcp%29
                0x2000edbc       0x2c
 .data.ewf_adapter_quectel_common_api_tcp
                0x2000edbc       0x2c build/default/debug/_ext/1360937237/main.o
                0x2000edbc                ewf_adapter_quectel_common_api_tcp

.bss%30         0x2000ede8       0x2c
 .bss           0x2000ede8       0x2c /Applications/microchip/xc32/v4.10/bin/bin/../../lib/gcc/pic32c/8.3.1/../../../../pic32c/lib/thumb/v8-m.base/nofp/libg-musl.a(localtime.o)

.data.ewf_adapter_quectel_common_api_mqtt_basic%31
                0x2000ee14       0x24
 .data.ewf_adapter_quectel_common_api_mqtt_basic
                0x2000ee14       0x24 build/default/debug/_ext/1360937237/main.o
                0x2000ee14                ewf_adapter_quectel_common_api_mqtt_basic

.bss.command_end_time_value_buffer%32
                0x2000ee38       0x20
 .bss.command_end_time_value_buffer
                0x2000ee38       0x20 build/default/debug/_ext/1360937237/azure_iot_pnp_pic32cmls60-curiosity.o

.bss.command_start_time_value_buffer%33
                0x2000ee58       0x20
 .bss.command_start_time_value_buffer
                0x2000ee58       0x20 build/default/debug/_ext/1360937237/azure_iot_pnp_pic32cmls60-curiosity.o

.bss.provisioning_client%34
                0x2000ee78       0x20
 .bss.provisioning_client
                0x2000ee78       0x20 build/default/debug/_ext/1360937237/azure_iot_pnp_pic32cmls60-curiosity.o

.data.ewf_adapter_quectel_common_api_info%35
                0x2000ee98       0x20
 .data.ewf_adapter_quectel_common_api_info
                0x2000ee98       0x20 build/default/debug/_ext/1360937237/main.o
                0x2000ee98                ewf_adapter_quectel_common_api_info

.data.ewf_adapter_quectel_common_api_udp%36
                0x2000eeb8       0x20
 .data.ewf_adapter_quectel_common_api_udp
                0x2000eeb8       0x20 build/default/debug/_ext/1360937237/main.o
                0x2000eeb8                ewf_adapter_quectel_common_api_udp

.data%37        0x2000eed8       0x20
 .data          0x2000eed8       0x20 /Applications/microchip/xc32/v4.10/bin/bin/../../lib/gcc/pic32c/8.3.1/../../../../pic32c/lib/thumb/v8-m.base/nofp/libg-musl.a(stdout.o)
                0x2000eef4                _stdout

.bss%38         0x2000eef8       0x1c
 .bss           0x2000eef8       0x1c /Applications/microchip/xc32/v4.10/bin/bin/../../lib/gcc/pic32c/8.3.1/thumb/v8-m.base/nofp/crtbegin.o

.data.ewf_adapter_quectel_common_command_response_end_tokenizer_pattern1%39
                0x2000ef14       0x18
 .data.ewf_adapter_quectel_common_command_response_end_tokenizer_pattern1
                0x2000ef14       0x18 build/default/debug/_ext/1360937237/main.o

.data.ewf_adapter_quectel_common_command_response_end_tokenizer_pattern2%40
                0x2000ef2c       0x18
 .data.ewf_adapter_quectel_common_command_response_end_tokenizer_pattern2
                0x2000ef2c       0x18 build/default/debug/_ext/1360937237/main.o

.data.ewf_adapter_quectel_common_command_response_end_tokenizer_pattern3%41
                0x2000ef44       0x18
 .data.ewf_adapter_quectel_common_command_response_end_tokenizer_pattern3
                0x2000ef44       0x18 build/default/debug/_ext/1360937237/main.o

.data.ewf_adapter_quectel_common_command_response_end_tokenizer_pattern4%42
                0x2000ef5c       0x18
 .data.ewf_adapter_quectel_common_command_response_end_tokenizer_pattern4
                0x2000ef5c       0x18 build/default/debug/_ext/1360937237/main.o

.data.ewf_adapter_quectel_common_command_response_end_tokenizer_pattern5%43
                0x2000ef74       0x18
 .data.ewf_adapter_quectel_common_command_response_end_tokenizer_pattern5
                0x2000ef74       0x18 build/default/debug/_ext/1360937237/main.o

.data.ewf_adapter_quectel_common_message_tokenizer_pattern1%44
                0x2000ef8c       0x18
 .data.ewf_adapter_quectel_common_message_tokenizer_pattern1
                0x2000ef8c       0x18 build/default/debug/_ext/1360937237/main.o

.data.ewf_adapter_quectel_common_message_tokenizer_pattern2%45
                0x2000efa4       0x18
 .data.ewf_adapter_quectel_common_message_tokenizer_pattern2
                0x2000efa4       0x18 build/default/debug/_ext/1360937237/main.o

.data.ewf_adapter_quectel_common_message_tokenizer_pattern3%46
                0x2000efbc       0x18
 .data.ewf_adapter_quectel_common_message_tokenizer_pattern3
                0x2000efbc       0x18 build/default/debug/_ext/1360937237/main.o

.data.ewf_adapter_quectel_common_urc_tokenizer_pattern1%47
                0x2000efd4       0x18
 .data.ewf_adapter_quectel_common_urc_tokenizer_pattern1
                0x2000efd4       0x18 build/default/debug/_ext/1360937237/main.o

.bss.ewf_platform_queue__ewf_interface_microchip_pic_uart__response_queue__pic_uart.10799%48
                0x2000efec       0x14
 .bss.ewf_platform_queue__ewf_interface_microchip_pic_uart__response_queue__pic_uart.10799
                0x2000efec       0x14 build/default/debug/_ext/1360937237/main.o

.bss.ewf_platform_queue__ewf_interface_microchip_pic_uart__urc_queue__pic_uart.10801%49
                0x2000f000       0x14
 .bss.ewf_platform_queue__ewf_interface_microchip_pic_uart__urc_queue__pic_uart.10801
                0x2000f000       0x14 build/default/debug/_ext/1360937237/main.o

.data.ewf_adapter_quectel_common_command_response_end_tokenizer_pattern5_str%50
                0x2000f014       0x14
 .data.ewf_adapter_quectel_common_command_response_end_tokenizer_pattern5_str
                0x2000f014       0x14 build/default/debug/_ext/1360937237/main.o
                0x2000f014                ewf_adapter_quectel_common_command_response_end_tokenizer_pattern5_str

.data.ewf_adapter_quectel_common_command_response_end_tokenizer_pattern4_str%51
                0x2000f028       0x13
 .data.ewf_adapter_quectel_common_command_response_end_tokenizer_pattern4_str
                0x2000f028       0x13 build/default/debug/_ext/1360937237/main.o
                0x2000f028                ewf_adapter_quectel_common_command_response_end_tokenizer_pattern4_str

.data.ewf_adapter_quectel_common_command_response_end_tokenizer_pattern3_str%52
                0x2000f03c       0x12
 .data.ewf_adapter_quectel_common_command_response_end_tokenizer_pattern3_str
                0x2000f03c       0x12 build/default/debug/_ext/1360937237/main.o
                0x2000f03c                ewf_adapter_quectel_common_command_response_end_tokenizer_pattern3_str

.bss.connection_request_id_buffer%53
                0x2000f050       0x10
 .bss.connection_request_id_buffer
                0x2000f050       0x10 build/default/debug/_ext/1360937237/azure_iot_pnp_pic32cmls60-curiosity.o

.bss.ewf_allocator_memory_pool__message_allocator.10794%54
                0x2000f060       0x10
 .bss.ewf_allocator_memory_pool__message_allocator.10794
                0x2000f060       0x10 build/default/debug/_ext/1360937237/main.o

.bss.BUTTON_pressData%55
                0x2000f070        0xc
 .bss.BUTTON_pressData
                0x2000f070        0xc build/default/debug/_ext/1360937237/pic32cmls60-curiosity-buttons.o
                0x2000f070                BUTTON_pressData

.data.ewf_adapter_quectel_common_command_response_end_tokenizer_pattern2_str%56
                0x2000f07c        0xa
 .data.ewf_adapter_quectel_common_command_response_end_tokenizer_pattern2_str
                0x2000f07c        0xa build/default/debug/_ext/1360937237/main.o
                0x2000f07c                ewf_adapter_quectel_common_command_response_end_tokenizer_pattern2_str

.bss.device_azure_iot_hub_endpoint%57
                0x2000f088        0x8
 .bss.device_azure_iot_hub_endpoint
                0x2000f088        0x8 build/default/debug/_ext/1360937237/azure_iot_pnp_pic32cmls60-curiosity.o

.bss.device_id%58
                0x2000f090        0x8
 .bss.device_id
                0x2000f090        0x8 build/default/debug/_ext/1360937237/azure_iot_pnp_pic32cmls60-curiosity.o

.data.device_average_temperature%59
                0x2000f098        0x8
 .data.device_average_temperature
                0x2000f098        0x8 build/default/debug/_ext/1360937237/azure_iot_pnp_pic32cmls60-curiosity.o

.data.device_current_temperature%60
                0x2000f0a0        0x8
 .data.device_current_temperature
                0x2000f0a0        0x8 build/default/debug/_ext/1360937237/azure_iot_pnp_pic32cmls60-curiosity.o

.data.device_maximum_temperature%61
                0x2000f0a8        0x8
 .data.device_maximum_temperature
                0x2000f0a8        0x8 build/default/debug/_ext/1360937237/azure_iot_pnp_pic32cmls60-curiosity.o

.data.device_minimum_temperature%62
                0x2000f0b0        0x8
 .data.device_minimum_temperature
                0x2000f0b0        0x8 build/default/debug/_ext/1360937237/azure_iot_pnp_pic32cmls60-curiosity.o

.data.device_temperature_summation%63
                0x2000f0b8        0x8
 .data.device_temperature_summation
                0x2000f0b8        0x8 build/default/debug/_ext/1360937237/azure_iot_pnp_pic32cmls60-curiosity.o

.bss.ewf_adapter_quectel_common_message_tokenizer_pattern1_match_function_state%64
                0x2000f0c0        0x8
 .bss.ewf_adapter_quectel_common_message_tokenizer_pattern1_match_function_state
                0x2000f0c0        0x8 build/default/debug/_ext/1360937237/main.o

.bss.ewf_adapter_quectel_common_message_tokenizer_pattern2_match_function_state%65
                0x2000f0c8        0x8
 .bss.ewf_adapter_quectel_common_message_tokenizer_pattern2_match_function_state
                0x2000f0c8        0x8 build/default/debug/_ext/1360937237/main.o

.bss.ewf_adapter_quectel_common_message_tokenizer_pattern3_match_function_state%66
                0x2000f0d0        0x8
 .bss.ewf_adapter_quectel_common_message_tokenizer_pattern3_match_function_state
                0x2000f0d0        0x8 build/default/debug/_ext/1360937237/main.o

.data.ewf_adapter_quectel_bg96_api_control%67
                0x2000f0d8        0x8
 .data.ewf_adapter_quectel_bg96_api_control
                0x2000f0d8        0x8 build/default/debug/_ext/1360937237/main.o
                0x2000f0d8                ewf_adapter_quectel_bg96_api_control

.data.ewf_adapter_quectel_common_api_tls_basic%68
                0x2000f0e0        0x8
 .data.ewf_adapter_quectel_common_api_tls_basic
                0x2000f0e0        0x8 build/default/debug/_ext/1360937237/main.o
                0x2000f0e0                ewf_adapter_quectel_common_api_tls_basic

.bss%69         0x2000f0e8        0x8
 .bss           0x2000f0e8        0x8 /Applications/microchip/xc32/v4.10/bin/bin/../../lib/gcc/pic32c/8.3.1/../../../../pic32c/lib/thumb/v8-m.base/nofp/libg-musl.a(stdout.o)
                0x2000f0ec                __stdout_used

.data%70        0x2000f0f0        0x8
 .data          0x2000f0f0        0x8 /Applications/microchip/xc32/v4.10/bin/bin/../../lib/gcc/pic32c/8.3.1/../../../../pic32c/lib/thumb/v8-m.base/nofp/libg-musl.a(__tz.o)

.data.ewf_adapter_quectel_common_command_response_end_tokenizer_pattern1_str%71
                0x2000f0f8        0x7
 .data.ewf_adapter_quectel_common_command_response_end_tokenizer_pattern1_str
                0x2000f0f8        0x7 build/default/debug/_ext/1360937237/main.o
                0x2000f0f8                ewf_adapter_quectel_common_command_response_end_tokenizer_pattern1_str

.data.device_temperature_count%72
                0x2000ea7c        0x4
 .data.device_temperature_count
                0x2000ea7c        0x4 build/default/debug/_ext/1360937237/azure_iot_pnp_pic32cmls60-curiosity.o

.data.telemetryInterval%73
                0x2000f100        0x4
 .data.telemetryInterval
                0x2000f100        0x4 build/default/debug/_ext/1360937237/azure_iot_pnp_pic32cmls60-curiosity.o

.bss.SYS_rebootTimer%74
                0x2000f104        0x4
 .bss.SYS_rebootTimer
                0x2000f104        0x4 build/default/debug/_ext/1360937237/pic32cmls60-curiosity-commands.o
                0x2000f104                SYS_rebootTimer

.bss._az_log_message_callback%75
                0x2000f108        0x4
 .bss._az_log_message_callback
                0x2000f108        0x4 build/default/debug/_ext/1414040249/az_log.o

.bss._az_message_filter_callback%76
                0x2000f10c        0x4
 .bss._az_message_filter_callback
                0x2000f10c        0x4 build/default/debug/_ext/1414040249/az_log.o

.data._az_precondition_failed_callback%77
                0x2000f110        0x4
 .data._az_precondition_failed_callback
                0x2000f110        0x4 build/default/debug/_ext/1414040249/az_precondition.o
                0x2000f110                _az_precondition_failed_callback

.bss%78         0x2000f114        0xc
 .bss           0x2000f114        0x4 /Applications/microchip/xc32/v4.10/bin/bin/../../lib/gcc/pic32c/8.3.1/../../../../pic32c/lib/thumb/v8-m.base/nofp/libpic32c.a(data_init.o)
 .bss           0x2000f118        0x4 /Applications/microchip/xc32/v4.10/bin/bin/../../lib/gcc/pic32c/8.3.1/../../../../pic32c/lib/thumb/v8-m.base/nofp/libg-musl.a(__environ.o)
                0x2000f118                _environ
                0x2000f118                __environ
                0x2000f118                environ
                0x2000f118                ___environ
 .bss           0x2000f11c        0x4 /Applications/microchip/xc32/v4.10/bin/bin/../../lib/gcc/pic32c/8.3.1/../../../../pic32c/lib/thumb/v8-m.base/nofp/libg-musl.a(__errno_location.o)
                0x2000f11c                __errno_val

.data%81        0x2000f120        0x4
 .data          0x2000f120        0x4 /Applications/microchip/xc32/v4.10/bin/bin/../../lib/gcc/pic32c/8.3.1/../../../../pic32c/lib/thumb/v8-m.base/nofp/libg-musl.a(c_locale.o)
                0x2000f120                __global_locale

.bss%82         0x2000f124        0x8
 .bss           0x2000f124        0x4 /Applications/microchip/xc32/v4.10/bin/bin/../../lib/gcc/pic32c/8.3.1/../../../../pic32c/lib/thumb/v8-m.base/nofp/libg-musl.a(__stdio_exit.o)
                0x2000f124                __stderr_used
 .bss           0x2000f128        0x4 /Applications/microchip/xc32/v4.10/bin/bin/../../lib/gcc/pic32c/8.3.1/../../../../pic32c/lib/thumb/v8-m.base/nofp/libpic32c.a(sbrk.o)

.bss.LED_controller%84
                0x2000f12c        0x2
 .bss.LED_controller
                0x2000f12c        0x2 build/default/debug/_ext/1360937237/pic32cmls60-curiosity-led.o
                0x2000f12c                LED_controller

.data.ewf_adapter_quectel_common_urc_tokenizer_pattern1_str%85
                0x2000f130        0x3
 .data.ewf_adapter_quectel_common_urc_tokenizer_pattern1_str
                0x2000f130        0x3 build/default/debug/_ext/1360937237/main.o
                0x2000f130                ewf_adapter_quectel_common_urc_tokenizer_pattern1_str

.bss.ewf_interface_microchip_pic_uart__implementation__pic_uart.10796%86
                0x2000f134        0x1
 .bss.ewf_interface_microchip_pic_uart__implementation__pic_uart.10796
                0x2000f134        0x1 build/default/debug/_ext/1360937237/main.o

.bss.connection_request_id%87
                0x2000f04e        0x2
 .bss.connection_request_id
                0x2000f04e        0x2 build/default/debug/_ext/1360937237/azure_iot_pnp_pic32cmls60-curiosity.o

.bss.ewf_mqtt_rx_flag%88
                0x2000f03b        0x1
 .bss.ewf_mqtt_rx_flag
                0x2000f03b        0x1 build/default/debug/_ext/1360937237/azure_iot_pnp_pic32cmls60-curiosity.o
                0x2000f03b                ewf_mqtt_rx_flag

.eh_frame%z1    0x00000000        0x0
 .eh_frame      0x00000000        0x0 /Applications/microchip/xc32/v4.10/bin/bin/../../lib/gcc/pic32c/8.3.1/thumb/v8-m.base/nofp/crtbegin.o

.rodata%89      0x0004018c     0x20a8
 .rodata        0x0004018c     0x20a8 build/default/debug/_ext/1360937237/main.o

.text.ewf_example_azure_iot_pnp_provisioning%90
                0x00042234     0x1260
 .text.ewf_example_azure_iot_pnp_provisioning
                0x00042234     0x1260 build/default/debug/_ext/1360937237/azure_iot_pnp_pic32cmls60-curiosity.o
                0x00042234                ewf_example_azure_iot_pnp_provisioning

.rodata%91      0x00043494     0x101c
 .rodata        0x00043494     0x101c build/default/debug/_ext/1360937237/azure_iot_pnp_pic32cmls60-curiosity.o

.text.azure_iot_process_device_property_message%92
                0x000444b0      0x7e4
 .text.azure_iot_process_device_property_message
                0x000444b0      0x7e4 build/default/debug/_ext/1360937237/azure_iot_pnp_pic32cmls60-curiosity.o

.text.decfloat%93
                0x00044c94      0x7b8
 .text.decfloat
                0x00044c94      0x7b8 /Applications/microchip/xc32/v4.10/bin/bin/../../lib/gcc/pic32c/8.3.1/../../../../pic32c/lib/thumb/v8-m.base/nofp/libg-musl.a(floatscan.o)

.text._ewf_adapter_quectel_common_internet_socket_receive%94
                0x0004544c      0x780
 .text._ewf_adapter_quectel_common_internet_socket_receive
                0x0004544c      0x780 build/default/debug/_ext/1360937237/main.o
                0x0004544c                _ewf_adapter_quectel_common_internet_socket_receive

.dinit%95       0x00045bcc      0x740
 .dinit         0x00045bcc      0x740 data_init

.text._ewf_adapter_quectel_common_internet_socket_send%96
                0x0004630c      0x6f0
 .text._ewf_adapter_quectel_common_internet_socket_send
                0x0004630c      0x6f0 build/default/debug/_ext/1360937237/main.o
                0x0004630c                _ewf_adapter_quectel_common_internet_socket_send

.text.__floatscan%97
                0x000469fc      0x65c
 .text.__floatscan
                0x000469fc      0x65c /Applications/microchip/xc32/v4.10/bin/bin/../../lib/gcc/pic32c/8.3.1/../../../../pic32c/lib/thumb/v8-m.base/nofp/libg-musl.a(floatscan.o)
                0x000469fc                __floatscan

.text.az_iot_provisioning_client_parse_received_topic_and_payload%98
                0x00047058      0x5ec
 .text.az_iot_provisioning_client_parse_received_topic_and_payload
                0x00047058      0x5ec build/default/debug/_ext/1292534426/az_iot_provisioning_client.o
                0x00047058                az_iot_provisioning_client_parse_received_topic_and_payload

.text.ewf_adapter_quectel_common_start%99
                0x00047644      0x5e0
 .text.ewf_adapter_quectel_common_start
                0x00047644      0x5e0 build/default/debug/_ext/1360937237/main.o
                0x00047644                ewf_adapter_quectel_common_start

.text.main%100  0x00047c24      0x4ce
 .text.main     0x00047c24      0x4ce build/default/debug/_ext/1360937237/main.o
                0x00047c24                main

.text.__fmt_fp%101
                0x000480f4      0x4c8
 .text.__fmt_fp
                0x000480f4      0x4c8 /Applications/microchip/xc32/v4.10/bin/bin/../../lib/gcc/pic32c/8.3.1/../../../../pic32c/lib/thumb/v8-m.base/nofp/libg-musl.a(__fmt_fp.o)
                0x000480f4                __fmt_fp
                0x000480f4                __fmt_f_needed

.text.ewf_adapter_quectel_common_mqtt_basic_connect%102
                0x000485bc      0x4b2
 .text.ewf_adapter_quectel_common_mqtt_basic_connect
                0x000485bc      0x4b2 build/default/debug/_ext/1360937237/main.o
                0x000485bc                ewf_adapter_quectel_common_mqtt_basic_connect

.text.ewf_adapter_quectel_common_info%103
                0x00048a6e      0x4a4
 .text.ewf_adapter_quectel_common_info
                0x00048a6e      0x4a4 build/default/debug/_ext/1360937237/main.o
                0x00048a6e                ewf_adapter_quectel_common_info

.text.__fmt_a%104
                0x00048f14      0x494
 .text.__fmt_a  0x00048f14      0x494 /Applications/microchip/xc32/v4.10/bin/bin/../../lib/gcc/pic32c/8.3.1/../../../../pic32c/lib/thumb/v8-m.base/nofp/libg-musl.a(__fmt_a.o)
                0x00048f14                __fmt_a
                0x00048f14                __fmt_a_needed

.text._az_json_reader_process_value%105
                0x000493a8      0x48e
 .text._az_json_reader_process_value
                0x000493a8      0x48e build/default/debug/_ext/1414040249/az_json_reader.o

.text.ewf_adapter_quectel_common_mqtt_basic_urc_callback%106
                0x00049838      0x464
 .text.ewf_adapter_quectel_common_mqtt_basic_urc_callback
                0x00049838      0x464 build/default/debug/_ext/1360937237/main.o
                0x00049838                ewf_adapter_quectel_common_mqtt_basic_urc_callback

.text.__intscan%107
                0x00049c9c      0x434
 .text.__intscan
                0x00049c9c      0x434 /Applications/microchip/xc32/v4.10/bin/bin/../../lib/gcc/pic32c/8.3.1/../../../../pic32c/lib/thumb/v8-m.base/nofp/libg-musl.a(intscan.o)
                0x00049c9c                __intscan

.text.__scanf_core%108
                0x0004a0d0      0x3f6
 .text.__scanf_core
                0x0004a0d0      0x3f6 /Applications/microchip/xc32/v4.10/bin/bin/../../lib/gcc/pic32c/8.3.1/../../../../pic32c/lib/thumb/v8-m.base/nofp/libg-musl.a(__scanf_core.o)
                0x0004a0d0                __scanf_core

.text.__strftime_fmt_1%109
                0x0004a4c8      0x3cc
 .text.__strftime_fmt_1
                0x0004a4c8      0x3cc /Applications/microchip/xc32/v4.10/bin/bin/../../lib/gcc/pic32c/8.3.1/../../../../pic32c/lib/thumb/v8-m.base/nofp/libg-musl.a(strftime.o)
                0x0004a4c8                __strftime_fmt_1

.text._ewf_adapter_quectel_common_internet_socket_open%110
                0x0004a894      0x3c8
 .text._ewf_adapter_quectel_common_internet_socket_open
                0x0004a894      0x3c8 build/default/debug/_ext/1360937237/main.o
                0x0004a894                _ewf_adapter_quectel_common_internet_socket_open

.text.ewf_adapter_quectel_common_internet_urc_callback%111
                0x0004ac5c      0x3a8
 .text.ewf_adapter_quectel_common_internet_urc_callback
                0x0004ac5c      0x3a8 build/default/debug/_ext/1360937237/main.o
                0x0004ac5c                ewf_adapter_quectel_common_internet_urc_callback

.text.ewf_interface_process_byte%112
                0x0004b004      0x358
 .text.ewf_interface_process_byte
                0x0004b004      0x358 build/default/debug/_ext/1360937237/main.o
                0x0004b004                ewf_interface_process_byte

.text.az_json_writer_append_property_name%113
                0x0004b35c      0x346
 .text.az_json_writer_append_property_name
                0x0004b35c      0x346 build/default/debug/_ext/1414040249/az_json_writer.o
                0x0004b35c                az_json_writer_append_property_name

.text.ewf_adapter_quectel_common_stop%114
                0x0004b6a4      0x320
 .text.ewf_adapter_quectel_common_stop
                0x0004b6a4      0x320 build/default/debug/_ext/1360937237/main.o
                0x0004b6a4                ewf_adapter_quectel_common_stop

.text.fmod%115  0x0004b9c4      0x320
 .text.fmod     0x0004b9c4      0x320 /Applications/microchip/xc32/v4.10/bin/bin/../../lib/gcc/pic32c/8.3.1/../../../../pic32c/lib/thumb/v8-m.base/nofp/libm-emfloat.a(lib_a-_FMOD.o)
                0x0004b9c4                fmod

.text%116       0x0004bce4      0x31a
 .text          0x0004bce4      0x31a /Applications/microchip/xc32/v4.10/bin/bin/../../lib/gcc/pic32c/8.3.1/thumb/v8-m.base/nofp/libgcc.a(_udivmoddi4.o)
                0x0004bce4                __udivmoddi4

.text.__printf_core%117
                0x0004c000      0x318
 .text.__printf_core
                0x0004c000      0x318 /Applications/microchip/xc32/v4.10/bin/bin/../../lib/gcc/pic32c/8.3.1/../../../../pic32c/lib/thumb/v8-m.base/nofp/libg-musl.a(__printf_core.o)
                0x0004c000                __printf_core

.text.az_json_writer_append_string%118
                0x0004c318      0x2fe
 .text.az_json_writer_append_string
                0x0004c318      0x2fe build/default/debug/_ext/1414040249/az_json_writer.o
                0x0004c318                az_json_writer_append_string

.text._ewf_interface_queue_current_message%119
                0x0004c616      0x2bc
 .text._ewf_interface_queue_current_message
                0x0004c616      0x2bc build/default/debug/_ext/1360937237/main.o

.text.azure_iot_hub_reported_property_send%120
                0x0004c8d2      0x2b6
 .text.azure_iot_hub_reported_property_send
                0x0004c8d2      0x2b6 build/default/debug/_ext/1360937237/azure_iot_pnp_pic32cmls60-curiosity.o

.text.ewf_interface_start%121
                0x0004cb88      0x2a4
 .text.ewf_interface_start
                0x0004cb88      0x2a4 build/default/debug/_ext/1360937237/main.o
                0x0004cb88                ewf_interface_start

.rodata%122     0x0004ce2c      0x2a0
 .rodata        0x0004ce2c      0x2a0 build/default/debug/_ext/1360937237/pic32cmls60-curiosity-commands.o

.text.ewf_adapter_quectel_common_mqtt_basic_publish%123
                0x0004d0cc      0x29a
 .text.ewf_adapter_quectel_common_mqtt_basic_publish
                0x0004d0cc      0x29a build/default/debug/_ext/1360937237/main.o
                0x0004d0cc                ewf_adapter_quectel_common_mqtt_basic_publish

.text.ewf_adapter_quectel_common_tls_basic_init%124
                0x0004d366      0x294
 .text.ewf_adapter_quectel_common_tls_basic_init
                0x0004d366      0x294 build/default/debug/_ext/1360937237/main.o
                0x0004d366                ewf_adapter_quectel_common_tls_basic_init

.text.SERCOM2_USART_InterruptHandler%125
                0x0004d5fa      0x290
 .text.SERCOM2_USART_InterruptHandler
                0x0004d5fa      0x290 build/default/debug/_ext/504274921/plib_sercom2_usart.o
                0x0004d5fa                SERCOM2_USART_InterruptHandler

.text.ewf_adapter_quectel_common_get_ipv4_dns%126
                0x0004d88a      0x27c
 .text.ewf_adapter_quectel_common_get_ipv4_dns
                0x0004d88a      0x27c build/default/debug/_ext/1360937237/main.o
                0x0004d88a                ewf_adapter_quectel_common_get_ipv4_dns

.text.ewf_adapter_quectel_common_get_ipv4_address%127
                0x0004db06      0x26e
 .text.ewf_adapter_quectel_common_get_ipv4_address
                0x0004db06      0x26e build/default/debug/_ext/1360937237/main.o
                0x0004db06                ewf_adapter_quectel_common_get_ipv4_address

.text.payload_build%128
                0x0004dd74      0x26c
 .text.payload_build
                0x0004dd74      0x26c build/default/debug/_ext/1360937237/azure_iot_pnp_pic32cmls60-curiosity.o

.text%129       0x0004dfe0      0x25a
 .text          0x0004dfe0      0x25a /Applications/microchip/xc32/v4.10/bin/bin/../../lib/gcc/pic32c/8.3.1/thumb/v8-m.base/nofp/libgcc.a(_divdi3.o)
                0x0004dfe0                __divdi3

.text.az_iot_hub_client_get_user_name%130
                0x0004e23a      0x24c
 .text.az_iot_hub_client_get_user_name
                0x0004e23a      0x24c build/default/debug/_ext/1292534426/az_iot_hub_client.o
                0x0004e23a                az_iot_hub_client_get_user_name

.text.__scan_fp%131
                0x0004e488      0x248
 .text.__scan_fp
                0x0004e488      0x248 /Applications/microchip/xc32/v4.10/bin/bin/../../lib/gcc/pic32c/8.3.1/../../../../pic32c/lib/thumb/v8-m.base/nofp/libg-musl.a(__scan_fp.o)
                0x0004e488                __scan_f_needed
                0x0004e488                __scan_fp
                0x0004e488                __scan_a_needed

.text.az_span_dtoa%132
                0x0004e6d0      0x234
 .text.az_span_dtoa
                0x0004e6d0      0x234 build/default/debug/_ext/1414040249/az_span.o
                0x0004e6d0                az_span_dtoa

.text.ewf_adapter_quectel_common_tcp_open%133
                0x0004e904      0x208
 .text.ewf_adapter_quectel_common_tcp_open
                0x0004e904      0x208 build/default/debug/_ext/1360937237/main.o
                0x0004e904                ewf_adapter_quectel_common_tcp_open

.text.ewf_adapter_quectel_common_udp_open%134
                0x0004eb0c      0x208
 .text.ewf_adapter_quectel_common_udp_open
                0x0004eb0c      0x208 build/default/debug/_ext/1360937237/main.o
                0x0004eb0c                ewf_adapter_quectel_common_udp_open

.text.ewf_adapter_quectel_common_context_activate%135
                0x0004ed14      0x208
 .text.ewf_adapter_quectel_common_context_activate
                0x0004ed14      0x208 build/default/debug/_ext/1360937237/main.o
                0x0004ed14                ewf_adapter_quectel_common_context_activate

.text.ewf_adapter_quectel_common_context_deactivate%136
                0x0004ef1c      0x208
 .text.ewf_adapter_quectel_common_context_deactivate
                0x0004ef1c      0x208 build/default/debug/_ext/1360937237/main.o
                0x0004ef1c                ewf_adapter_quectel_common_context_deactivate

.text.az_json_token_is_text_equal%137
                0x0004f124      0x202
 .text.az_json_token_is_text_equal
                0x0004f124      0x202 build/default/debug/_ext/1414040249/az_json_token.o
                0x0004f124                az_json_token_is_text_equal

.text.az_iot_hub_client_twin_parse_received_topic%138
                0x0004f326      0x1fe
 .text.az_iot_hub_client_twin_parse_received_topic
                0x0004f326      0x1fe build/default/debug/_ext/1292534426/az_iot_hub_client_twin.o
                0x0004f326                az_iot_hub_client_twin_parse_received_topic

.text.ewf_interface_verify_response%139
                0x0004f524      0x1f0
 .text.ewf_interface_verify_response
                0x0004f524      0x1f0 build/default/debug/_ext/1360937237/main.o
                0x0004f524                ewf_interface_verify_response

.text.az_json_reader_next_token%140
                0x0004f714      0x1ec
 .text.az_json_reader_next_token
                0x0004f714      0x1ec build/default/debug/_ext/1414040249/az_json_reader.o
                0x0004f714                az_json_reader_next_token

.text.ewf_platform_queue_dequeue%141
                0x0004f900      0x1e4
 .text.ewf_platform_queue_dequeue
                0x0004f900      0x1e4 build/default/debug/_ext/1360937237/main.o
                0x0004f900                ewf_platform_queue_dequeue

.text.az_iot_hub_client_properties_get_next_component_property%142
                0x0004fae4      0x1dc
 .text.az_iot_hub_client_properties_get_next_component_property
                0x0004fae4      0x1dc build/default/debug/_ext/1292534426/az_iot_hub_client_properties.o
                0x0004fae4                az_iot_hub_client_properties_get_next_component_property

.text._ewf_adapter_quectel_common_internet_socket_close%143
                0x0004fcc0      0x1d6
 .text._ewf_adapter_quectel_common_internet_socket_close
                0x0004fcc0      0x1d6 build/default/debug/_ext/1360937237/main.o
                0x0004fcc0                _ewf_adapter_quectel_common_internet_socket_close

.text.__aeabi_dadd%144
                0x0004fe98      0x1c8
 .text.__aeabi_dadd
                0x0004fe98      0x1c8 /Applications/microchip/xc32/v4.10/bin/bin/../../lib/gcc/pic32c/8.3.1/../../../../pic32c/lib/thumb/v8-m.base/nofp/libm-emfloat.a(floatasmops_arm.o)
                0x0004fe98                __aeabi_dadd

.text.ewf_allocator_memory_pool_release%145
                0x00050060      0x1be
 .text.ewf_allocator_memory_pool_release
                0x00050060      0x1be build/default/debug/_ext/1360937237/main.o
                0x00050060                ewf_allocator_memory_pool_release

.text.ewf_interface_stop%146
                0x0005021e      0x1ba
 .text.ewf_interface_stop
                0x0005021e      0x1ba build/default/debug/_ext/1360937237/main.o
                0x0005021e                ewf_interface_stop

.text.__secs_to_tm%147
                0x000503d8      0x1b8
 .text.__secs_to_tm
                0x000503d8      0x1b8 /Applications/microchip/xc32/v4.10/bin/bin/../../lib/gcc/pic32c/8.3.1/../../../../pic32c/lib/thumb/v8-m.base/nofp/libg-musl.a(__secs_to_tm.o)
                0x000503d8                __secs_to_tm

.text.ewf_adapter_quectel_common_internet_start%148
                0x00050590      0x1ae
 .text.ewf_adapter_quectel_common_internet_start
                0x00050590      0x1ae build/default/debug/_ext/1360937237/main.o
                0x00050590                ewf_adapter_quectel_common_internet_start

.text.ewf_platform_queue_enqueue%149
                0x0005073e      0x1aa
 .text.ewf_platform_queue_enqueue
                0x0005073e      0x1aa build/default/debug/_ext/1360937237/main.o
                0x0005073e                ewf_platform_queue_enqueue

.text._ewf_interface_receive_from_queue%150
                0x000508e8      0x1a8
 .text._ewf_interface_receive_from_queue
                0x000508e8      0x1a8 build/default/debug/_ext/1360937237/main.o

.text.az_json_token_get_string%151
                0x00050a90      0x19a
 .text.az_json_token_get_string
                0x00050a90      0x19a build/default/debug/_ext/1414040249/az_json_token.o
                0x00050a90                az_json_token_get_string

.rodata%152     0x00050c2c      0x194
 .rodata        0x00050c2c      0x194 build/default/debug/_ext/1292534426/az_iot_provisioning_client.o

.text.ewf_adapter_quectel_common_tls_basic_start%153
                0x00050dc0      0x192
 .text.ewf_adapter_quectel_common_tls_basic_start
                0x00050dc0      0x192 build/default/debug/_ext/1360937237/main.o
                0x00050dc0                ewf_adapter_quectel_common_tls_basic_start

.text.ewf_adapter_quectel_common_mqtt_basic_subscribe%154
                0x00050f52      0x190
 .text.ewf_adapter_quectel_common_mqtt_basic_subscribe
                0x00050f52      0x190 build/default/debug/_ext/1360937237/main.o
                0x00050f52                ewf_adapter_quectel_common_mqtt_basic_subscribe

.text.ewf_adapter_quectel_common_urc_callback%155
                0x000510e2      0x18a
 .text.ewf_adapter_quectel_common_urc_callback
                0x000510e2      0x18a build/default/debug/_ext/1360937237/main.o
                0x000510e2                ewf_adapter_quectel_common_urc_callback

.text.__aeabi_dmul_aux%156
                0x0005126c      0x186
 .text.__aeabi_dmul_aux
                0x0005126c      0x186 /Applications/microchip/xc32/v4.10/bin/bin/../../lib/gcc/pic32c/8.3.1/../../../../pic32c/lib/thumb/v8-m.base/nofp/libm-emfloat.a(floatasmops_arm.o)
                0x000512a0                __aeabi_dmul

.text.ewf_adapter_quectel_common_tcp_control%157
                0x000513f2      0x184
 .text.ewf_adapter_quectel_common_tcp_control
                0x000513f2      0x184 build/default/debug/_ext/1360937237/main.o
                0x000513f2                ewf_adapter_quectel_common_tcp_control

.text.ewf_adapter_quectel_common_tcp_set_tls_configuration%158
                0x00051576      0x184
 .text.ewf_adapter_quectel_common_tcp_set_tls_configuration
                0x00051576      0x184 build/default/debug/_ext/1360937237/main.o
                0x00051576                ewf_adapter_quectel_common_tcp_set_tls_configuration

.text.ewf_adapter_quectel_common_tcp_accept%159
                0x000516fa      0x184
 .text.ewf_adapter_quectel_common_tcp_accept
                0x000516fa      0x184 build/default/debug/_ext/1360937237/main.o
                0x000516fa                ewf_adapter_quectel_common_tcp_accept

.text.ewf_adapter_quectel_common_tcp_shutdown%160
                0x0005187e      0x184
 .text.ewf_adapter_quectel_common_tcp_shutdown
                0x0005187e      0x184 build/default/debug/_ext/1360937237/main.o
                0x0005187e                ewf_adapter_quectel_common_tcp_shutdown

.text.ewf_adapter_quectel_common_udp_control%161
                0x00051a02      0x184
 .text.ewf_adapter_quectel_common_udp_control
                0x00051a02      0x184 build/default/debug/_ext/1360937237/main.o
                0x00051a02                ewf_adapter_quectel_common_udp_control

.text.ewf_adapter_quectel_common_udp_set_dtls_configuration%162
                0x00051b86      0x184
 .text.ewf_adapter_quectel_common_udp_set_dtls_configuration
                0x00051b86      0x184 build/default/debug/_ext/1360937237/main.o
                0x00051b86                ewf_adapter_quectel_common_udp_set_dtls_configuration

.text.ewf_adapter_quectel_common_udp_shutdown%163
                0x00051d0a      0x184
 .text.ewf_adapter_quectel_common_udp_shutdown
                0x00051d0a      0x184 build/default/debug/_ext/1360937237/main.o
                0x00051d0a                ewf_adapter_quectel_common_udp_shutdown

.text.ewf_adapter_modem_functionality_set%164
                0x00051e8e      0x184
 .text.ewf_adapter_modem_functionality_set
                0x00051e8e      0x184 build/default/debug/_ext/1360937237/main.o
                0x00051e8e                ewf_adapter_modem_functionality_set

.text.ewf_adapter_quectel_common_mqtt_basic_disconnect%165
                0x00052012      0x182
 .text.ewf_adapter_quectel_common_mqtt_basic_disconnect
                0x00052012      0x182 build/default/debug/_ext/1360937237/main.o
                0x00052012                ewf_adapter_quectel_common_mqtt_basic_disconnect

.text.ewf_adapter_quectel_bg96_start%166
                0x00052194      0x17e
 .text.ewf_adapter_quectel_bg96_start
                0x00052194      0x17e build/default/debug/_ext/1360937237/main.o
                0x00052194                ewf_adapter_quectel_bg96_start

.text.ewf_adapter_quectel_bg96_stop%167
                0x00052312      0x17e
 .text.ewf_adapter_quectel_bg96_stop
                0x00052312      0x17e build/default/debug/_ext/1360937237/main.o
                0x00052312                ewf_adapter_quectel_bg96_stop

.text.ewf_interface_get_response%168
                0x00052490      0x17a
 .text.ewf_interface_get_response
                0x00052490      0x17a build/default/debug/_ext/1360937237/main.o
                0x00052490                ewf_interface_get_response

.text.ewf_adapter_quectel_common_get_ipv4_netmask%169
                0x0005260a      0x178
 .text.ewf_adapter_quectel_common_get_ipv4_netmask
                0x0005260a      0x178 build/default/debug/_ext/1360937237/main.o
                0x0005260a                ewf_adapter_quectel_common_get_ipv4_netmask

.text._az_json_reader_process_string%170
                0x00052782      0x178
 .text._az_json_reader_process_string
                0x00052782      0x178 build/default/debug/_ext/1414040249/az_json_reader.o

.text.ewf_mqtt_receive_message_user_callback%171
                0x000528fa      0x174
 .text.ewf_mqtt_receive_message_user_callback
                0x000528fa      0x174 build/default/debug/_ext/1360937237/azure_iot_pnp_pic32cmls60-curiosity.o
                0x000528fa                ewf_mqtt_receive_message_user_callback

.text.ewf_interface_receive_poll%172
                0x00052a6e      0x174
 .text.ewf_interface_receive_poll
                0x00052a6e      0x174 build/default/debug/_ext/1360937237/main.o
                0x00052a6e                ewf_interface_receive_poll

.text.COMMAND_Handler_sendMsg%173
                0x00052be2      0x174
 .text.COMMAND_Handler_sendMsg
                0x00052be2      0x174 build/default/debug/_ext/1360937237/pic32cmls60-curiosity-commands.o
                0x00052be2                COMMAND_Handler_sendMsg

.text.malloc%174
                0x00052d58      0x174
 .text.malloc   0x00052d58      0x174 /Applications/microchip/xc32/v4.10/bin/bin/../../lib/gcc/pic32c/8.3.1/../../../../pic32c/lib/thumb/v8-m.base/nofp/libg-musl.a(malloc.o)
                0x00052d58                malloc

.text.ewf_adapter_quectel_common_get_ipv4_gateway%175
                0x00052ecc      0x172
 .text.ewf_adapter_quectel_common_get_ipv4_gateway
                0x00052ecc      0x172 build/default/debug/_ext/1360937237/main.o
                0x00052ecc                ewf_adapter_quectel_common_get_ipv4_gateway

.text.ewf_interface_drop_response%176
                0x0005303e      0x16c
 .text.ewf_interface_drop_response
                0x0005303e      0x16c build/default/debug/_ext/1360937237/main.o
                0x0005303e                ewf_interface_drop_response

.text.az_iot_hub_client_telemetry_get_publish_topic%177
                0x000531aa      0x16a
 .text.az_iot_hub_client_telemetry_get_publish_topic
                0x000531aa      0x16a build/default/debug/_ext/1292534426/az_iot_hub_client_telemetry.o
                0x000531aa                az_iot_hub_client_telemetry_get_publish_topic

.text.az_iot_provisioning_client_get_user_name%178
                0x00053314      0x16a
 .text.az_iot_provisioning_client_get_user_name
                0x00053314      0x16a build/default/debug/_ext/1292534426/az_iot_provisioning_client.o
                0x00053314                az_iot_provisioning_client_get_user_name

.text._az_span_builder_append_uint64%179
                0x0005347e      0x164
 .text._az_span_builder_append_uint64
                0x0005347e      0x164 build/default/debug/_ext/1414040249/az_span.o

.text.ewf_adapter_quectel_common_mqtt_basic_unsubscribe%180
                0x000535e2      0x160
 .text.ewf_adapter_quectel_common_mqtt_basic_unsubscribe
                0x000535e2      0x160 build/default/debug/_ext/1360937237/main.o
                0x000535e2                ewf_adapter_quectel_common_mqtt_basic_unsubscribe

.text.scanexp%181
                0x00053744      0x160
 .text.scanexp  0x00053744      0x160 /Applications/microchip/xc32/v4.10/bin/bin/../../lib/gcc/pic32c/8.3.1/../../../../pic32c/lib/thumb/v8-m.base/nofp/libg-musl.a(floatscan.o)

.rodata%182     0x000538a4      0x15b
 .rodata        0x000538a4      0x15b /Applications/microchip/xc32/v4.10/bin/bin/../../lib/gcc/pic32c/8.3.1/../../../../pic32c/lib/thumb/v8-m.base/nofp/libg-musl.a(langinfo.o)

.text.__scan_i%183
                0x00053a00      0x156
 .text.__scan_i
                0x00053a00      0x156 /Applications/microchip/xc32/v4.10/bin/bin/../../lib/gcc/pic32c/8.3.1/../../../../pic32c/lib/thumb/v8-m.base/nofp/libg-musl.a(__scan_i.o)
                0x00053a00                __scan_i
                0x00053a00                __scan_i_needed

.text.ewf_interface_send%184
                0x00053b58      0x154
 .text.ewf_interface_send
                0x00053b58      0x154 build/default/debug/_ext/1360937237/main.o
                0x00053b58                ewf_interface_send

.text._ewf_adapter_quectel_common_message_tokenizer_pattern1_match_function%185
                0x00053cac      0x148
 .text._ewf_adapter_quectel_common_message_tokenizer_pattern1_match_function
                0x00053cac      0x148 build/default/debug/_ext/1360937237/main.o

.text.az_iot_hub_client_twin_document_get_publish_topic%186
                0x00053df4      0x148
 .text.az_iot_hub_client_twin_document_get_publish_topic
                0x00053df4      0x148 build/default/debug/_ext/1292534426/az_iot_hub_client_twin.o
                0x00053df4                az_iot_hub_client_twin_document_get_publish_topic

.text.az_iot_hub_client_twin_patch_get_publish_topic%187
                0x00053f3c      0x148
 .text.az_iot_hub_client_twin_patch_get_publish_topic
                0x00053f3c      0x148 build/default/debug/_ext/1292534426/az_iot_hub_client_twin.o
                0x00053f3c                az_iot_hub_client_twin_patch_get_publish_topic

.text.__strftime_l%188
                0x00054084      0x148
 .text.__strftime_l
                0x00054084      0x148 /Applications/microchip/xc32/v4.10/bin/bin/../../lib/gcc/pic32c/8.3.1/../../../../pic32c/lib/thumb/v8-m.base/nofp/libg-musl.a(strftime.o)
                0x00054084                __strftime_l
                0x00054084                strftime_l

.text.ewf_adapter_quectel_common_mqtt_basic_default_state_callback%189
                0x000541cc      0x140
 .text.ewf_adapter_quectel_common_mqtt_basic_default_state_callback
                0x000541cc      0x140 build/default/debug/_ext/1360937237/main.o
                0x000541cc                ewf_adapter_quectel_common_mqtt_basic_default_state_callback

.text.ewf_adapter_quectel_common_mqtt_basic_default_message_callback%190
                0x0005430c      0x140
 .text.ewf_adapter_quectel_common_mqtt_basic_default_message_callback
                0x0005430c      0x140 build/default/debug/_ext/1360937237/main.o
                0x0005430c                ewf_adapter_quectel_common_mqtt_basic_default_message_callback

.text._az_span_url_encode%191
                0x0005444c      0x138
 .text._az_span_url_encode
                0x0005444c      0x138 build/default/debug/_ext/1414040249/az_span.o
                0x0005444c                _az_span_url_encode

.text.az_iot_hub_client_methods_response_get_publish_topic%192
                0x00054584      0x138
 .text.az_iot_hub_client_methods_response_get_publish_topic
                0x00054584      0x138 build/default/debug/_ext/1292534426/az_iot_hub_client_methods.o
                0x00054584                az_iot_hub_client_methods_response_get_publish_topic

.text.az_iot_hub_client_methods_parse_received_topic%193
                0x000546bc      0x134
 .text.az_iot_hub_client_methods_parse_received_topic
                0x000546bc      0x134 build/default/debug/_ext/1292534426/az_iot_hub_client_methods.o
                0x000546bc                az_iot_hub_client_methods_parse_received_topic

.text._ewf_adapter_quectel_common_internet_log_last_error%194
                0x000547f0      0x132
 .text._ewf_adapter_quectel_common_internet_log_last_error
                0x000547f0      0x132 build/default/debug/_ext/1360937237/main.o
                0x000547f0                _ewf_adapter_quectel_common_internet_log_last_error

.text._ewf_interface_match_current_message_to_pattern%195
                0x00054922      0x130
 .text._ewf_interface_match_current_message_to_pattern
                0x00054922      0x130 build/default/debug/_ext/1360937237/main.o

.text.__fmt_x%196
                0x00054a52      0x12c
 .text.__fmt_x  0x00054a52      0x12c /Applications/microchip/xc32/v4.10/bin/bin/../../lib/gcc/pic32c/8.3.1/../../../../pic32c/lib/thumb/v8-m.base/nofp/libg-musl.a(__fmt_x.o)
                0x00054a52                __fmt_x
                0x00054a52                __fmt_x_needed

.text.ewf_adapter_modem_sim_pin_enter%197
                0x00054b7e      0x12a
 .text.ewf_adapter_modem_sim_pin_enter
                0x00054b7e      0x12a build/default/debug/_ext/1360937237/main.o
                0x00054b7e                ewf_adapter_modem_sim_pin_enter

.text.SERCOM2_USART_Write%198
                0x00054ca8      0x128
 .text.SERCOM2_USART_Write
                0x00054ca8      0x128 build/default/debug/_ext/504274921/plib_sercom2_usart.o
                0x00054ca8                SERCOM2_USART_Write

.text.az_iot_provisioning_client_query_status_get_publish_topic%199
                0x00054dd0      0x11a
 .text.az_iot_provisioning_client_query_status_get_publish_topic
                0x00054dd0      0x11a build/default/debug/_ext/1292534426/az_iot_provisioning_client.o
                0x00054dd0                az_iot_provisioning_client_query_status_get_publish_topic

.text.ewf_adapter_quectel_common_udp_bind%200
                0x00054eea      0x116
 .text.ewf_adapter_quectel_common_udp_bind
                0x00054eea      0x116 build/default/debug/_ext/1360937237/main.o
                0x00054eea                ewf_adapter_quectel_common_udp_bind

.text.COMMAND_Handler_reboot%201
                0x00055000      0x116
 .text.COMMAND_Handler_reboot
                0x00055000      0x116 build/default/debug/_ext/1360937237/pic32cmls60-curiosity-commands.o
                0x00055000                COMMAND_Handler_reboot

.text.ewf_adapter_quectel_common_tcp_listen%202
                0x00055116      0x112
 .text.ewf_adapter_quectel_common_tcp_listen
                0x00055116      0x112 build/default/debug/_ext/1360937237/main.o
                0x00055116                ewf_adapter_quectel_common_tcp_listen

.text.ewf_interface_urc_process_message%203
                0x00055228      0x10e
 .text.ewf_interface_urc_process_message
                0x00055228      0x10e build/default/debug/_ext/1360937237/main.o
                0x00055228                ewf_interface_urc_process_message

.text.ewf_adapter_quectel_common_tcp_connect%204
                0x00055336      0x10e
 .text.ewf_adapter_quectel_common_tcp_connect
                0x00055336      0x10e build/default/debug/_ext/1360937237/main.o
                0x00055336                ewf_adapter_quectel_common_tcp_connect

.text.ewf_adapter_quectel_common_udp_receive_from%205
                0x00055444      0x10e
 .text.ewf_adapter_quectel_common_udp_receive_from
                0x00055444      0x10e build/default/debug/_ext/1360937237/main.o
                0x00055444                ewf_adapter_quectel_common_udp_receive_from

.text.ewf_allocator_memory_pool_start%206
                0x00055552      0x10a
 .text.ewf_allocator_memory_pool_start
                0x00055552      0x10a build/default/debug/_ext/1360937237/main.o
                0x00055552                ewf_allocator_memory_pool_start

.text.ewf_allocator_memory_pool_allocate%207
                0x0005565c      0x10a
 .text.ewf_allocator_memory_pool_allocate
                0x0005565c      0x10a build/default/debug/_ext/1360937237/main.o
                0x0005565c                ewf_allocator_memory_pool_allocate

.text.az_iot_message_properties_find%208
                0x00055766      0x10a
 .text.az_iot_message_properties_find
                0x00055766      0x10a build/default/debug/_ext/1292534426/az_iot_common.o
                0x00055766                az_iot_message_properties_find

.rodata%209     0x00055870      0x10a
 .rodata        0x00055870      0x10a /Applications/microchip/xc32/v4.10/bin/bin/../../lib/gcc/pic32c/8.3.1/../../../../pic32c/lib/thumb/v8-m.base/nofp/libg-musl.a(intscan.o)

.text.ewf_adapter_quectel_common_udp_send_to%210
                0x0005597a      0x106
 .text.ewf_adapter_quectel_common_udp_send_to
                0x0005597a      0x106 build/default/debug/_ext/1360937237/main.o
                0x0005597a                ewf_adapter_quectel_common_udp_send_to

.text.ewf_adapter_quectel_common_tcp_receive%211
                0x00055a80      0x106
 .text.ewf_adapter_quectel_common_tcp_receive
                0x00055a80      0x106 build/default/debug/_ext/1360937237/main.o
                0x00055a80                ewf_adapter_quectel_common_tcp_receive

.text.ewf_adapter_quectel_common_tcp_send%212
                0x00055b86      0x102
 .text.ewf_adapter_quectel_common_tcp_send
                0x00055b86      0x102 build/default/debug/_ext/1360937237/main.o
                0x00055b86                ewf_adapter_quectel_common_tcp_send

.text._az_json_writer_append_container_start%213
                0x00055c88      0x102
 .text._az_json_writer_append_container_start
                0x00055c88      0x102 build/default/debug/_ext/1414040249/az_json_writer.o

.text.azure_iot_send_command_response%214
                0x00055d8a      0x100
 .text.azure_iot_send_command_response
                0x00055d8a      0x100 build/default/debug/_ext/1360937237/azure_iot_pnp_pic32cmls60-curiosity.o

.text.ewfl_escape_str_to_str_buffer%215
                0x00055e8c       0xfc
 .text.ewfl_escape_str_to_str_buffer
                0x00055e8c       0xfc build/default/debug/_ext/1360937237/main.o
                0x00055e8c                ewfl_escape_str_to_str_buffer

.text.ewf_adapter_mqtt_basic_connect%216
                0x00055f88       0xfc
 .text.ewf_adapter_mqtt_basic_connect
                0x00055f88       0xfc build/default/debug/_ext/1360937237/main.o
                0x00055f88                ewf_adapter_mqtt_basic_connect

.text.az_span_atoi32%217
                0x00056084       0xfc
 .text.az_span_atoi32
                0x00056084       0xfc build/default/debug/_ext/1414040249/az_span.o
                0x00056084                az_span_atoi32

.text.az_json_writer_append_container_end%218
                0x00056180       0xfa
 .text.az_json_writer_append_container_end
                0x00056180       0xfa build/default/debug/_ext/1414040249/az_json_writer.o

.text.ewf_interface_microchip_pic_uart_hardware_start%219
                0x0005627a       0xf8
 .text.ewf_interface_microchip_pic_uart_hardware_start
                0x0005627a       0xf8 build/default/debug/_ext/1360937237/main.o
                0x0005627a                ewf_interface_microchip_pic_uart_hardware_start

.text.ewf_adapter_quectel_common_tcp_close%220
                0x00056372       0xf8
 .text.ewf_adapter_quectel_common_tcp_close
                0x00056372       0xf8 build/default/debug/_ext/1360937237/main.o
                0x00056372                ewf_adapter_quectel_common_tcp_close

.text.ewf_adapter_quectel_common_udp_close%221
                0x0005646a       0xf8
 .text.ewf_adapter_quectel_common_udp_close
                0x0005646a       0xf8 build/default/debug/_ext/1360937237/main.o
                0x0005646a                ewf_adapter_quectel_common_udp_close

.text._az_span_builder_append_u32toa%222
                0x00056562       0xf6
 .text._az_span_builder_append_u32toa
                0x00056562       0xf6 build/default/debug/_ext/1414040249/az_span.o

.text.ewf_adapter_tls_basic_init%223
                0x00056658       0xf4
 .text.ewf_adapter_tls_basic_init
                0x00056658       0xf4 build/default/debug/_ext/1360937237/main.o
                0x00056658                ewf_adapter_tls_basic_init

.text.ewf_adapter_tls_basic_clean%224
                0x0005674c       0xf4
 .text.ewf_adapter_tls_basic_clean
                0x0005674c       0xf4 build/default/debug/_ext/1360937237/main.o
                0x0005674c                ewf_adapter_tls_basic_clean

.text.ewf_adapter_mqtt_basic_disconnect%225
                0x00056840       0xf4
 .text.ewf_adapter_mqtt_basic_disconnect
                0x00056840       0xf4 build/default/debug/_ext/1360937237/main.o
                0x00056840                ewf_adapter_mqtt_basic_disconnect

.text.ewf_adapter_mqtt_basic_subscribe%226
                0x00056934       0xf4
 .text.ewf_adapter_mqtt_basic_subscribe
                0x00056934       0xf4 build/default/debug/_ext/1360937237/main.o
                0x00056934                ewf_adapter_mqtt_basic_subscribe

.text.ewf_adapter_mqtt_basic_publish%227
                0x00056a28       0xf4
 .text.ewf_adapter_mqtt_basic_publish
                0x00056a28       0xf4 build/default/debug/_ext/1360937237/main.o
                0x00056a28                ewf_adapter_mqtt_basic_publish

.text.__year_to_secs%228
                0x00056b1c       0xf4
 .text.__year_to_secs
                0x00056b1c       0xf4 /Applications/microchip/xc32/v4.10/bin/bin/../../lib/gcc/pic32c/8.3.1/../../../../pic32c/lib/thumb/v8-m.base/nofp/libg-musl.a(__year_to_secs.o)
                0x00056b1c                __year_to_secs

.text.ewf_interface_microchip_pic_uart_hardware_receive%229
                0x00056c10       0xf2
 .text.ewf_interface_microchip_pic_uart_hardware_receive
                0x00056c10       0xf2 build/default/debug/_ext/1360937237/main.o
                0x00056c10                ewf_interface_microchip_pic_uart_hardware_receive

.text.ewf_adapter_start%230
                0x00056d02       0xf0
 .text.ewf_adapter_start
                0x00056d02       0xf0 build/default/debug/_ext/1360937237/main.o
                0x00056d02                ewf_adapter_start

.text._az_json_token_is_text_equal_helper%231
                0x00056df2       0xee
 .text._az_json_token_is_text_equal_helper
                0x00056df2       0xee build/default/debug/_ext/1414040249/az_json_token.o

.text.ewf_adapter_mqtt_basic_message_callback_set%232
                0x00056ee0       0xec
 .text.ewf_adapter_mqtt_basic_message_callback_set
                0x00056ee0       0xec build/default/debug/_ext/1360937237/main.o
                0x00056ee0                ewf_adapter_mqtt_basic_message_callback_set

.text.az_json_writer_append_double%233
                0x00056fcc       0xec
 .text.az_json_writer_append_double
                0x00056fcc       0xec build/default/debug/_ext/1414040249/az_json_writer.o
                0x00056fcc                az_json_writer_append_double

.text.az_json_writer_append_json_text%234
                0x000570b8       0xea
 .text.az_json_writer_append_json_text
                0x000570b8       0xea build/default/debug/_ext/1414040249/az_json_writer.o
                0x000570b8                az_json_writer_append_json_text

.text.az_iot_provisioning_client_get_request_payload%235
                0x000571a2       0xe8
 .text.az_iot_provisioning_client_get_request_payload
                0x000571a2       0xe8 build/default/debug/_ext/1292534426/az_iot_provisioning_client.o
                0x000571a2                az_iot_provisioning_client_get_request_payload

.text.az_iot_provisioning_client_register_get_publish_topic%236
                0x0005728a       0xe4
 .text.az_iot_provisioning_client_register_get_publish_topic
                0x0005728a       0xe4 build/default/debug/_ext/1292534426/az_iot_provisioning_client.o
                0x0005728a                az_iot_provisioning_client_register_get_publish_topic

.text.__scan_x%237
                0x0005736e       0xe2
 .text.__scan_x
                0x0005736e       0xe2 /Applications/microchip/xc32/v4.10/bin/bin/../../lib/gcc/pic32c/8.3.1/../../../../pic32c/lib/thumb/v8-m.base/nofp/libg-musl.a(__scan_x.o)
                0x0005736e                __scan_x_needed
                0x0005736e                __scan_x

.text.ewf_interface_microchip_pic_uart_hardware_send%238
                0x00057450       0xe0
 .text.ewf_interface_microchip_pic_uart_hardware_send
                0x00057450       0xe0 build/default/debug/_ext/1360937237/main.o
                0x00057450                ewf_interface_microchip_pic_uart_hardware_send

.text.az_iot_hub_client_properties_writer_begin_response_status%239
                0x00057530       0xda
 .text.az_iot_hub_client_properties_writer_begin_response_status
                0x00057530       0xda build/default/debug/_ext/1292534426/az_iot_hub_client_properties.o
                0x00057530                az_iot_hub_client_properties_writer_begin_response_status

.text.build_reboot_command_resp_payload%240
                0x0005760a       0xd0
 .text.build_reboot_command_resp_payload
                0x0005760a       0xd0 build/default/debug/_ext/1360937237/pic32cmls60-curiosity-commands.o

.text.az_json_writer_span_copy_chunked%241
                0x000576da       0xd0
 .text.az_json_writer_span_copy_chunked
                0x000576da       0xd0 build/default/debug/_ext/1414040249/az_json_writer.o

.text._az_json_writer_escape_next_byte_and_copy%242
                0x000577aa       0xd0
 .text._az_json_writer_escape_next_byte_and_copy
                0x000577aa       0xd0 build/default/debug/_ext/1414040249/az_json_writer.o

.text.az_span_atod%243
                0x0005787a       0xd0
 .text.az_span_atod
                0x0005787a       0xd0 build/default/debug/_ext/1414040249/az_span.o
                0x0005787a                az_span_atod

.text.button_message_send%244
                0x0005794a       0xce
 .text.button_message_send
                0x0005794a       0xce build/default/debug/_ext/1360937237/azure_iot_pnp_pic32cmls60-curiosity.o

.text.az_iot_hub_client_get_client_id%245
                0x00057a18       0xce
 .text.az_iot_hub_client_get_client_id
                0x00057a18       0xce build/default/debug/_ext/1292534426/az_iot_hub_client.o
                0x00057a18                az_iot_hub_client_get_client_id

.text.free%246  0x00057ae8       0xcc
 .text.free     0x00057ae8       0xcc /Applications/microchip/xc32/v4.10/bin/bin/../../lib/gcc/pic32c/8.3.1/../../../../pic32c/lib/thumb/v8-m.base/nofp/libg-musl.a(malloc.o)
                0x00057ae8                free

.text.do_tzset%247
                0x00057bb4       0xc8
 .text.do_tzset
                0x00057bb4       0xc8 /Applications/microchip/xc32/v4.10/bin/bin/../../lib/gcc/pic32c/8.3.1/../../../../pic32c/lib/thumb/v8-m.base/nofp/libg-musl.a(__tz.o)

.text.properties_get_request_id%248
                0x00057c7c       0xc6
 .text.properties_get_request_id
                0x00057c7c       0xc6 build/default/debug/_ext/1360937237/azure_iot_pnp_pic32cmls60-curiosity.o

.text.az_iot_hub_client_commands_parse_received_topic%249
                0x00057d42       0xc6
 .text.az_iot_hub_client_commands_parse_received_topic
                0x00057d42       0xc6 build/default/debug/_ext/1292534426/az_iot_hub_client_commands.o
                0x00057d42                az_iot_hub_client_commands_parse_received_topic

.text._ewf_adapter_quectel_common_internet_socket_pool_allocate%250
                0x00057e08       0xc4
 .text._ewf_adapter_quectel_common_internet_socket_pool_allocate
                0x00057e08       0xc4 build/default/debug/_ext/1360937237/main.o

.rodata%251     0x00057ecc       0xc0
 .rodata        0x00057ecc       0xc0 build/default/debug/_ext/1360937237/pic32cmls60-curiosity-buttons.o

.text.__aeabi_ddiv%252
                0x00057f8c       0xc0
 .text.__aeabi_ddiv
                0x00057f8c       0xc0 /Applications/microchip/xc32/v4.10/bin/bin/../../lib/gcc/pic32c/8.3.1/../../../../pic32c/lib/thumb/v8-m.base/nofp/libm-emfloat.a(floatasmops_arm.o)
                0x00057f8c                __aeabi_ddiv

.text.ewf_interface_send_commands%253
                0x0005804c       0xbc
 .text.ewf_interface_send_commands
                0x0005804c       0xbc build/default/debug/_ext/1360937237/main.o
                0x0005804c                ewf_interface_send_commands

.text.SERCOM2_USART_Initialize%254
                0x00058108       0xbc
 .text.SERCOM2_USART_Initialize
                0x00058108       0xbc build/default/debug/_ext/504274921/plib_sercom2_usart.o
                0x00058108                SERCOM2_USART_Initialize

.text.floor%255
                0x000581c4       0xbc
 .text.floor    0x000581c4       0xbc /Applications/microchip/xc32/v4.10/bin/bin/../../lib/gcc/pic32c/8.3.1/../../../../pic32c/lib/thumb/v8-m.base/nofp/libm-emfloat.a(lib_a-_FLOOR.o)
                0x000581c4                floor

.text._az_json_reader_process_literal%256
                0x00058280       0xb6
 .text._az_json_reader_process_literal
                0x00058280       0xb6 build/default/debug/_ext/1414040249/az_json_reader.o

.text.az_span_atou32%257
                0x00058336       0xb6
 .text.az_span_atou32
                0x00058336       0xb6 build/default/debug/_ext/1414040249/az_span.o
                0x00058336                az_span_atou32

.text._ewf_adapter_quectel_common_message_tokenizer_pattern3_match_function%258
                0x000583ec       0xb4
 .text._ewf_adapter_quectel_common_message_tokenizer_pattern3_match_function
                0x000583ec       0xb4 build/default/debug/_ext/1360937237/main.o

.text._az_json_writer_escaped_length%259
                0x000584a0       0xb4
 .text._az_json_writer_escaped_length
                0x000584a0       0xb4 build/default/debug/_ext/1414040249/az_json_writer.o

.text.SERCOM2_USART_Read%260
                0x00058554       0xb2
 .text.SERCOM2_USART_Read
                0x00058554       0xb2 build/default/debug/_ext/504274921/plib_sercom2_usart.o
                0x00058554                SERCOM2_USART_Read

.text._az_json_token_get_string_helper%261
                0x00058606       0xae
 .text._az_json_token_get_string_helper
                0x00058606       0xae build/default/debug/_ext/1414040249/az_json_token.o

.text.__fmt_d%262
                0x000586b4       0xae
 .text.__fmt_d  0x000586b4       0xae /Applications/microchip/xc32/v4.10/bin/bin/../../lib/gcc/pic32c/8.3.1/../../../../pic32c/lib/thumb/v8-m.base/nofp/libg-musl.a(__fmt_d.o)
                0x000586b4                __fmt_d_needed
                0x000586b4                __fmt_d

.text.az_json_writer_append_int32%263
                0x00058762       0xac
 .text.az_json_writer_append_int32
                0x00058762       0xac build/default/debug/_ext/1414040249/az_json_writer.o
                0x00058762                az_json_writer_append_int32

.text.az_json_token_get_int32%264
                0x0005880e       0xaa
 .text.az_json_token_get_int32
                0x0005880e       0xaa build/default/debug/_ext/1414040249/az_json_token.o
                0x0005880e                az_json_token_get_int32

.text.az_json_token_get_double%265
                0x000588b8       0xaa
 .text.az_json_token_get_double
                0x000588b8       0xaa build/default/debug/_ext/1414040249/az_json_token.o
                0x000588b8                az_json_token_get_double

.text._ewf_adapter_quectel_common_message_tokenizer_pattern2_match_function%266
                0x00058962       0xa8
 .text._ewf_adapter_quectel_common_message_tokenizer_pattern2_match_function
                0x00058962       0xa8 build/default/debug/_ext/1360937237/main.o

.text.az_json_token_get_uint32%267
                0x00058a0a       0xa8
 .text.az_json_token_get_uint32
                0x00058a0a       0xa8 build/default/debug/_ext/1414040249/az_json_token.o
                0x00058a0a                az_json_token_get_uint32

.text.az_iot_hub_client_properties_get_properties_version%268
                0x00058ab2       0xa8
 .text.az_iot_hub_client_properties_get_properties_version
                0x00058ab2       0xa8 build/default/debug/_ext/1292534426/az_iot_hub_client_properties.o
                0x00058ab2                az_iot_hub_client_properties_get_properties_version

.text.__shgetc%269
                0x00058b5a       0xa6
 .text.__shgetc
                0x00058b5a       0xa6 /Applications/microchip/xc32/v4.10/bin/bin/../../lib/gcc/pic32c/8.3.1/../../../../pic32c/lib/thumb/v8-m.base/nofp/libg-musl.a(shgetc.o)
                0x00058b5a                __shgetc

.text._az_span_token%270
                0x00058c00       0xa4
 .text._az_span_token
                0x00058c00       0xa4 build/default/debug/_ext/1414040249/az_span.o
                0x00058c00                _az_span_token

.text.LED_refresh%271
                0x00058ca4       0xa2
 .text.LED_refresh
                0x00058ca4       0xa2 build/default/debug/_ext/1360937237/pic32cmls60-curiosity-led.o
                0x00058ca4                LED_refresh

.text._az_json_token_copy_into_span_helper%272
                0x00058d46       0xa2
 .text._az_json_token_copy_into_span_helper
                0x00058d46       0xa2 build/default/debug/_ext/1414040249/az_json_token.o

.text.ewf_interface_send_command%273
                0x00058de8       0xa0
 .text.ewf_interface_send_command
                0x00058de8       0xa0 build/default/debug/_ext/1360937237/main.o
                0x00058de8                ewf_interface_send_command

.text.ewf_adapter_quectel_common_mqtt_basic_start%274
                0x00058e88       0xa0
 .text.ewf_adapter_quectel_common_mqtt_basic_start
                0x00058e88       0xa0 build/default/debug/_ext/1360937237/main.o
                0x00058e88                ewf_adapter_quectel_common_mqtt_basic_start

.text._az_json_reader_process_container_end%275
                0x00058f28       0xa0
 .text._az_json_reader_process_container_end
                0x00058f28       0xa0 build/default/debug/_ext/1414040249/az_json_reader.o

.text.build_command_resp_payload%276
                0x00058fc8       0x9e
 .text.build_command_resp_payload
                0x00058fc8       0x9e build/default/debug/_ext/1360937237/pic32cmls60-curiosity-commands.o

.text.ewf_interface_release%277
                0x00059066       0x9c
 .text.ewf_interface_release
                0x00059066       0x9c build/default/debug/_ext/1360937237/main.o
                0x00059066                ewf_interface_release

.text.ewf_interface_tokenizer_command_response_end_pattern_get%278
                0x00059102       0x9c
 .text.ewf_interface_tokenizer_command_response_end_pattern_get
                0x00059102       0x9c build/default/debug/_ext/1360937237/main.o
                0x00059102                ewf_interface_tokenizer_command_response_end_pattern_get

.text.__pop_int%279
                0x0005919e       0x9c
 .text.__pop_int
                0x0005919e       0x9c /Applications/microchip/xc32/v4.10/bin/bin/../../lib/gcc/pic32c/8.3.1/../../../../pic32c/lib/thumb/v8-m.base/nofp/libg-musl.a(__pop_int.o)
                0x0005919e                __pop_int
                0x0005919e                __pop_int_needed

.text.ewf_interface_init%280
                0x0005923a       0x9a
 .text.ewf_interface_init
                0x0005923a       0x9a build/default/debug/_ext/1360937237/main.o
                0x0005923a                ewf_interface_init

.text.ewf_interface_receive_response%281
                0x000592d4       0x98
 .text.ewf_interface_receive_response
                0x000592d4       0x98 build/default/debug/_ext/1360937237/main.o
                0x000592d4                ewf_interface_receive_response

.text.__scan_o%282
                0x0005936c       0x98
 .text.__scan_o
                0x0005936c       0x98 /Applications/microchip/xc32/v4.10/bin/bin/../../lib/gcc/pic32c/8.3.1/../../../../pic32c/lib/thumb/v8-m.base/nofp/libg-musl.a(__scan_o.o)
                0x0005936c                __scan_o_needed
                0x0005936c                __scan_o

.text.skip_metadata_if_needed%283
                0x00059404       0x96
 .text.skip_metadata_if_needed
                0x00059404       0x96 build/default/debug/_ext/1292534426/az_iot_hub_client_properties.o

.text.build_command_error_response_payload%284
                0x0005949a       0x94
 .text.build_command_error_response_payload
                0x0005949a       0x94 build/default/debug/_ext/1360937237/pic32cmls60-curiosity-commands.o

.text.az_iot_provisioning_client_init%285
                0x0005952e       0x94
 .text.az_iot_provisioning_client_init
                0x0005952e       0x94 build/default/debug/_ext/1292534426/az_iot_provisioning_client.o
                0x0005952e                az_iot_provisioning_client_init

.text.__pic32c_data_initialization%286
                0x000595c4       0x94
 .text.__pic32c_data_initialization
                0x000595c4       0x94 /Applications/microchip/xc32/v4.10/bin/bin/../../lib/gcc/pic32c/8.3.1/../../../../pic32c/lib/thumb/v8-m.base/nofp/libpic32c.a(data_init.o)
                0x000595c4                __pic32c_data_initialization

.text.week_num%287
                0x00059658       0x94
 .text.week_num
                0x00059658       0x94 /Applications/microchip/xc32/v4.10/bin/bin/../../lib/gcc/pic32c/8.3.1/../../../../pic32c/lib/thumb/v8-m.base/nofp/libg-musl.a(strftime.o)

.text.ewf_interface_default_timeout_set%288
                0x000596ec       0x90
 .text.ewf_interface_default_timeout_set
                0x000596ec       0x90 build/default/debug/_ext/1360937237/main.o
                0x000596ec                ewf_interface_default_timeout_set

.text.ewf_interface_tokenizer_message_pattern_set%289
                0x0005977c       0x90
 .text.ewf_interface_tokenizer_message_pattern_set
                0x0005977c       0x90 build/default/debug/_ext/1360937237/main.o
                0x0005977c                ewf_interface_tokenizer_message_pattern_set

.text.ewf_interface_tokenizer_command_response_end_pattern_set%290
                0x0005980c       0x90
 .text.ewf_interface_tokenizer_command_response_end_pattern_set
                0x0005980c       0x90 build/default/debug/_ext/1360937237/main.o
                0x0005980c                ewf_interface_tokenizer_command_response_end_pattern_set

.text.ewf_interface_tokenizer_command_response_pattern_set%291
                0x0005989c       0x90
 .text.ewf_interface_tokenizer_command_response_pattern_set
                0x0005989c       0x90 build/default/debug/_ext/1360937237/main.o
                0x0005989c                ewf_interface_tokenizer_command_response_pattern_set

.text.ewf_interface_tokenizer_urc_pattern_set%292
                0x0005992c       0x90
 .text.ewf_interface_tokenizer_urc_pattern_set
                0x0005992c       0x90 build/default/debug/_ext/1360937237/main.o
                0x0005992c                ewf_interface_tokenizer_urc_pattern_set

.text.az_span_find%293
                0x000599bc       0x90
 .text.az_span_find
                0x000599bc       0x90 build/default/debug/_ext/1414040249/az_span.o
                0x000599bc                az_span_find

.text.ewf_adapter_quectel_common_mqtt_basic_stop%294
                0x00059a4c       0x8e
 .text.ewf_adapter_quectel_common_mqtt_basic_stop
                0x00059a4c       0x8e build/default/debug/_ext/1360937237/main.o
                0x00059a4c                ewf_adapter_quectel_common_mqtt_basic_stop

.text.ewf_adapter_quectel_bg96_urc_callback%295
                0x00059ada       0x8e
 .text.ewf_adapter_quectel_bg96_urc_callback
                0x00059ada       0x8e build/default/debug/_ext/1360937237/main.o
                0x00059ada                ewf_adapter_quectel_bg96_urc_callback

.text._az_json_writer_escape_and_copy%296
                0x00059b68       0x8e
 .text._az_json_writer_escape_and_copy
                0x00059b68       0x8e build/default/debug/_ext/1414040249/az_json_writer.o

.text.__read_int%297
                0x00059bf6       0x8e
 .text.__read_int
                0x00059bf6       0x8e /Applications/microchip/xc32/v4.10/bin/bin/../../lib/gcc/pic32c/8.3.1/../../../../pic32c/lib/thumb/v8-m.base/nofp/libg-musl.a(__scan_d.o)
                0x00059bf6                __read_int

.text.ewf_adapter_quectel_common_ufs_stop%298
                0x00059c84       0x8c
 .text.ewf_adapter_quectel_common_ufs_stop
                0x00059c84       0x8c build/default/debug/_ext/1360937237/main.o
                0x00059c84                ewf_adapter_quectel_common_ufs_stop

.text.ewf_adapter_quectel_common_internet_stop%299
                0x00059d10       0x8c
 .text.ewf_adapter_quectel_common_internet_stop
                0x00059d10       0x8c build/default/debug/_ext/1360937237/main.o
                0x00059d10                ewf_adapter_quectel_common_internet_stop

.text.__tm_to_secs%300
                0x00059d9c       0x8c
 .text.__tm_to_secs
                0x00059d9c       0x8c /Applications/microchip/xc32/v4.10/bin/bin/../../lib/gcc/pic32c/8.3.1/../../../../pic32c/lib/thumb/v8-m.base/nofp/libg-musl.a(__tm_to_secs.o)
                0x00059d9c                __tm_to_secs

.text.NVIC_Initialize%301
                0x00059e28       0x88
 .text.NVIC_Initialize
                0x00059e28       0x88 build/default/debug/_ext/1865468468/plib_nvic.o
                0x00059e28                NVIC_Initialize

.text.modf%302  0x00059eb0       0x84
 .text.modf     0x00059eb0       0x84 /Applications/microchip/xc32/v4.10/bin/bin/../../lib/gcc/pic32c/8.3.1/../../../../pic32c/lib/thumb/v8-m.base/nofp/libm-emfloat.a(lib_a-_MODF.o)
                0x00059eb0                modf

.text.__cvt_u%303
                0x00059f34       0x84
 .text.__cvt_u  0x00059f34       0x84 /Applications/microchip/xc32/v4.10/bin/bin/../../lib/gcc/pic32c/8.3.1/../../../../pic32c/lib/thumb/v8-m.base/nofp/libg-musl.a(__fmt_u.o)
                0x00059f34                __cvt_u

.text.__nl_langinfo_l%304
                0x00059fb8       0x84
 .text.__nl_langinfo_l
                0x00059fb8       0x84 /Applications/microchip/xc32/v4.10/bin/bin/../../lib/gcc/pic32c/8.3.1/../../../../pic32c/lib/thumb/v8-m.base/nofp/libg-musl.a(langinfo.o)
                0x00059fb8                __nl_langinfo_l
                0x00059fb8                nl_langinfo_l

.text.__scan_s%305
                0x0005a03c       0x84
 .text.__scan_s
                0x0005a03c       0x84 /Applications/microchip/xc32/v4.10/bin/bin/../../lib/gcc/pic32c/8.3.1/../../../../pic32c/lib/thumb/v8-m.base/nofp/libg-musl.a(__scan_s.o)
                0x0005a03c                __scan_s_needed
                0x0005a03c                __scan_s

.text.__write_buffered%306
                0x0005a0c0       0x82
 .text.__write_buffered
                0x0005a0c0       0x82 /Applications/microchip/xc32/v4.10/bin/bin/../../lib/gcc/pic32c/8.3.1/../../../../pic32c/lib/thumb/v8-m.base/nofp/libg-musl.a(__stdio_write.o)
                0x0005a0c0                __do_write

.text.az_iot_hub_client_init%307
                0x0005a142       0x7e
 .text.az_iot_hub_client_init
                0x0005a142       0x7e build/default/debug/_ext/1292534426/az_iot_hub_client.o
                0x0005a142                az_iot_hub_client_init

.text._az_json_reader_consume_digits%308
                0x0005a1c0       0x7c
 .text._az_json_reader_consume_digits
                0x0005a1c0       0x7c build/default/debug/_ext/1414040249/az_json_reader.o

.text.az_iot_provisioning_client_get_client_id%309
                0x0005a23c       0x7c
 .text.az_iot_provisioning_client_get_client_id
                0x0005a23c       0x7c build/default/debug/_ext/1292534426/az_iot_provisioning_client.o
                0x0005a23c                az_iot_provisioning_client_get_client_id

.text.__stdio_write_buffered%310
                0x0005a2b8       0x7c
 .text.__stdio_write_buffered
                0x0005a2b8       0x7c /Applications/microchip/xc32/v4.10/bin/bin/../../lib/gcc/pic32c/8.3.1/../../../../pic32c/lib/thumb/v8-m.base/nofp/libg-musl.a(__stdio_write.o)
                0x0005a2b8                __stdio_write_buffered

.text.__push_int%311
                0x0005a334       0x7c
 .text.__push_int
                0x0005a334       0x7c /Applications/microchip/xc32/v4.10/bin/bin/../../lib/gcc/pic32c/8.3.1/../../../../pic32c/lib/thumb/v8-m.base/nofp/libg-musl.a(__push_int.o)
                0x0005a334                __push_int
                0x0005a334                __push_int_needed

.text.strlcpy%312
                0x0005a3b0       0x78
 .text.strlcpy  0x0005a3b0       0x78 /Applications/microchip/xc32/v4.10/bin/bin/../../lib/gcc/pic32c/8.3.1/../../../../pic32c/lib/thumb/v8-m.base/nofp/libg-musl.a(strlcpy.o)
                0x0005a3b0                strlcpy

.text.__pad%313
                0x0005a428       0x76
 .text.__pad    0x0005a428       0x76 /Applications/microchip/xc32/v4.10/bin/bin/../../lib/gcc/pic32c/8.3.1/../../../../pic32c/lib/thumb/v8-m.base/nofp/libg-musl.a(__printf_core.o)
                0x0005a428                __pad

.text.ewf_adapter_quectel_common_tcp_bind%314
                0x0005a49e       0x72
 .text.ewf_adapter_quectel_common_tcp_bind
                0x0005a49e       0x72 build/default/debug/_ext/1360937237/main.o
                0x0005a49e                ewf_adapter_quectel_common_tcp_bind

.text.ewfl_buffer_ends_with%315
                0x0005a510       0x70
 .text.ewfl_buffer_ends_with
                0x0005a510       0x70 build/default/debug/_ext/1360937237/main.o
                0x0005a510                ewfl_buffer_ends_with

.rodata%316     0x0005a580       0x70
 .rodata        0x0005a580       0x70 build/default/debug/_ext/1292534426/az_iot_hub_client_twin.o

.text._get_remaining_span%317
                0x0005a5f0       0x6e
 .text._get_remaining_span
                0x0005a5f0       0x6e build/default/debug/_ext/1414040249/az_json_writer.o

.text.__fmt_o%318
                0x0005a65e       0x6e
 .text.__fmt_o  0x0005a65e       0x6e /Applications/microchip/xc32/v4.10/bin/bin/../../lib/gcc/pic32c/8.3.1/../../../../pic32c/lib/thumb/v8-m.base/nofp/libg-musl.a(__fmt_o.o)
                0x0005a65e                __fmt_o_needed
                0x0005a65e                __fmt_o

.text.az_span_to_str%319
                0x0005a6cc       0x6c
 .text.az_span_to_str
                0x0005a6cc       0x6c build/default/debug/_ext/1414040249/az_span.o
                0x0005a6cc                az_span_to_str

.text.getrule%320
                0x0005a738       0x6c
 .text.getrule  0x0005a738       0x6c /Applications/microchip/xc32/v4.10/bin/bin/../../lib/gcc/pic32c/8.3.1/../../../../pic32c/lib/thumb/v8-m.base/nofp/libg-musl.a(__tz.o)

.text._az_json_reader_process_container_start%321
                0x0005a7a4       0x6a
 .text._az_json_reader_process_container_start
                0x0005a7a4       0x6a build/default/debug/_ext/1414040249/az_json_reader.o

.text.az_span_i32toa%322
                0x0005a80e       0x6a
 .text.az_span_i32toa
                0x0005a80e       0x6a build/default/debug/_ext/1414040249/az_span.o
                0x0005a80e                az_span_i32toa

.text.__pop_ptr%323
                0x0005a878       0x68
 .text.__pop_ptr
                0x0005a878       0x68 /Applications/microchip/xc32/v4.10/bin/bin/../../lib/gcc/pic32c/8.3.1/../../../../pic32c/lib/thumb/v8-m.base/nofp/libg-musl.a(__pop_ptr.o)
                0x0005a878                __pop_ptr_needed
                0x0005a878                __pop_ptr

.text.ewf_platform_queue_create%324
                0x0005a8e0       0x66
 .text.ewf_platform_queue_create
                0x0005a8e0       0x66 build/default/debug/_ext/1360937237/main.o
                0x0005a8e0                ewf_platform_queue_create

.text.ewf_allocator_stop%325
                0x0005a946       0x66
 .text.ewf_allocator_stop
                0x0005a946       0x66 build/default/debug/_ext/1360937237/main.o
                0x0005a946                ewf_allocator_stop

.text.ewf_allocator_allocate%326
                0x0005a9ac       0x66
 .text.ewf_allocator_allocate
                0x0005a9ac       0x66 build/default/debug/_ext/1360937237/main.o
                0x0005a9ac                ewf_allocator_allocate

.text.ewf_allocator_release%327
                0x0005aa12       0x66
 .text.ewf_allocator_release
                0x0005aa12       0x66 build/default/debug/_ext/1360937237/main.o
                0x0005aa12                ewf_allocator_release

.text.json_child_token_move%328
                0x0005aa78       0x66
 .text.json_child_token_move
                0x0005aa78       0x66 build/default/debug/_ext/1292534426/az_iot_hub_client_properties.o

.text.ADC_Initialize%329
                0x0005aade       0x66
 .text.ADC_Initialize
                0x0005aade       0x66 build/default/debug/_ext/60163342/plib_adc.o
                0x0005aade                ADC_Initialize

.text._az_json_reader_get_next_buffer%330
                0x0005ab44       0x64
 .text._az_json_reader_get_next_buffer
                0x0005ab44       0x64 build/default/debug/_ext/1414040249/az_json_reader.o

.text.az_span_copy%331
                0x0005aba8       0x62
 .text.az_span_copy
                0x0005aba8       0x62 build/default/debug/_ext/1414040249/az_span.o
                0x0005aba8                az_span_copy

.text.__stdio_read%332
                0x0005ac0a       0x62
 .text.__stdio_read
                0x0005ac0a       0x62 /Applications/microchip/xc32/v4.10/bin/bin/../../lib/gcc/pic32c/8.3.1/../../../../pic32c/lib/thumb/v8-m.base/nofp/libg-musl.a(__stdio_read.o)
                0x0005ac0a                __stdio_read

.text.az_iot_hub_client_properties_parse_received_topic%333
                0x0005ac6c       0x60
 .text.az_iot_hub_client_properties_parse_received_topic
                0x0005ac6c       0x60 build/default/debug/_ext/1292534426/az_iot_hub_client_properties.o
                0x0005ac6c                az_iot_hub_client_properties_parse_received_topic

.text.__aeabi_d2f%334
                0x0005accc       0x60
 .text.__aeabi_d2f
                0x0005accc       0x60 /Applications/microchip/xc32/v4.10/bin/bin/../../lib/gcc/pic32c/8.3.1/../../../../pic32c/lib/thumb/v8-m.base/nofp/libm-emfloat.a(floatasmops_arm.o)
                0x0005accc                __aeabi_d2f

.text.strtox%335
                0x0005ad2c       0x60
 .text.strtox   0x0005ad2c       0x60 /Applications/microchip/xc32/v4.10/bin/bin/../../lib/gcc/pic32c/8.3.1/../../../../pic32c/lib/thumb/v8-m.base/nofp/libg-musl.a(strtol.o)

.text.ewfl_buffer_ends_with_wildcard_string%336
                0x0005ad8c       0x5e
 .text.ewfl_buffer_ends_with_wildcard_string
                0x0005ad8c       0x5e build/default/debug/_ext/1360937237/main.o
                0x0005ad8c                ewfl_buffer_ends_with_wildcard_string

.text.getoff%337
                0x0005adea       0x5e
 .text.getoff   0x0005adea       0x5e /Applications/microchip/xc32/v4.10/bin/bin/../../lib/gcc/pic32c/8.3.1/../../../../pic32c/lib/thumb/v8-m.base/nofp/libg-musl.a(__tz.o)

.text.__stdio_close_rw%338
                0x0005ae48       0x5e
 .text.__stdio_close_rw
                0x0005ae48       0x5e /Applications/microchip/xc32/v4.10/bin/bin/../../lib/gcc/pic32c/8.3.1/../../../../pic32c/lib/thumb/v8-m.base/nofp/libg-musl.a(__stdio_close.o)
                0x0005ae48                __stdio_close_rw

.text.strtox%339
                0x0005aea6       0x5e
 .text.strtox   0x0005aea6       0x5e /Applications/microchip/xc32/v4.10/bin/bin/../../lib/gcc/pic32c/8.3.1/../../../../pic32c/lib/thumb/v8-m.base/nofp/libg-musl.a(strtod.o)

.text.BUTTON_SW1_check%340
                0x0005af04       0x5c
 .text.BUTTON_SW1_check
                0x0005af04       0x5c build/default/debug/_ext/1360937237/pic32cmls60-curiosity-buttons.o
                0x0005af04                BUTTON_SW1_check

.text._az_finished_consuming_json_number%341
                0x0005af60       0x5c
 .text._az_finished_consuming_json_number
                0x0005af60       0x5c build/default/debug/_ext/1414040249/az_json_reader.o

.text._az_is_appending_value_valid%342
                0x0005afbc       0x5c
 .text._az_is_appending_value_valid
                0x0005afbc       0x5c build/default/debug/_ext/1414040249/az_json_writer.o

.text._az_log_write%343
                0x0005b018       0x5c
 .text._az_log_write
                0x0005b018       0x5c build/default/debug/_ext/1414040249/az_log.o
                0x0005b018                _az_log_write

.text.__libc_start_init%344
                0x0005b074       0x5c
 .text.__libc_start_init
                0x0005b074       0x5c /Applications/microchip/xc32/v4.10/bin/bin/../../lib/gcc/pic32c/8.3.1/../../../../pic32c/lib/thumb/v8-m.base/nofp/libg-musl.a(__libc_start_main.o)
                0x0005b074                __libc_init_array

.rodata%345     0x0005b0d0       0x5c
 .rodata        0x0005b0d0       0x5c /Applications/microchip/xc32/v4.10/bin/bin/../../lib/gcc/pic32c/8.3.1/../../../../pic32c/lib/thumb/v8-m.base/nofp/libg-musl.a(malloc.o)

.text.vsnprintf%346
                0x0005b12c       0x5c
 .text.vsnprintf
                0x0005b12c       0x5c /Applications/microchip/xc32/v4.10/bin/bin/../../lib/gcc/pic32c/8.3.1/../../../../pic32c/lib/thumb/v8-m.base/nofp/libg-musl.a(vsnprintf.o)
                0x0005b12c                vsnprintf

.text.ewfl_find_chars_with_terms%347
                0x0005b188       0x5a
 .text.ewfl_find_chars_with_terms
                0x0005b188       0x5a build/default/debug/_ext/1360937237/main.o
                0x0005b188                ewfl_find_chars_with_terms

.text.BUTTON_SW0_check%348
                0x0005b1e2       0x5a
 .text.BUTTON_SW0_check
                0x0005b1e2       0x5a build/default/debug/_ext/1360937237/pic32cmls60-curiosity-buttons.o
                0x0005b1e2                BUTTON_SW0_check

.text._az_json_reader_skip_whitespace%349
                0x0005b23c       0x58
 .text._az_json_reader_skip_whitespace
                0x0005b23c       0x58 build/default/debug/_ext/1414040249/az_json_reader.o

.text.az_json_reader_init%350
                0x0005b294       0x58
 .text.az_json_reader_init
                0x0005b294       0x58 build/default/debug/_ext/1414040249/az_json_reader.o
                0x0005b294                az_json_reader_init

.text.az_iot_message_properties_init%351
                0x0005b2ec       0x58
 .text.az_iot_message_properties_init
                0x0005b2ec       0x58 build/default/debug/_ext/1292534426/az_iot_common.o
                0x0005b2ec                az_iot_message_properties_init

.text.Reset_Handler%352
                0x0005b344       0x56
 .text.Reset_Handler
                0x0005b344       0x56 build/default/debug/_ext/1171490990/startup_xc32.o
                0x0005b344                Reset_Handler

.text.__fmt_u%353
                0x0005b39a       0x56
 .text.__fmt_u  0x0005b39a       0x56 /Applications/microchip/xc32/v4.10/bin/bin/../../lib/gcc/pic32c/8.3.1/../../../../pic32c/lib/thumb/v8-m.base/nofp/libg-musl.a(__fmt_u.o)
                0x0005b39a                __fmt_u
                0x0005b39a                __fmt_u_needed

.text._az_json_reader_update_state%354
                0x0005b3f0       0x54
 .text._az_json_reader_update_state
                0x0005b3f0       0x54 build/default/debug/_ext/1414040249/az_json_reader.o

.text.az_span_slice%355
                0x0005b444       0x52
 .text.az_span_slice
                0x0005b444       0x52 build/default/debug/_ext/1414040249/az_span.o
                0x0005b444                az_span_slice

.text.ewfl_str_equals_str%356
                0x0005b496       0x50
 .text.ewfl_str_equals_str
                0x0005b496       0x50 build/default/debug/_ext/1360937237/main.o
                0x0005b496                ewfl_str_equals_str

.text.unbin%357
                0x0005b4e8       0x50
 .text.unbin    0x0005b4e8       0x50 /Applications/microchip/xc32/v4.10/bin/bin/../../lib/gcc/pic32c/8.3.1/../../../../pic32c/lib/thumb/v8-m.base/nofp/libg-musl.a(malloc.o)

.text.scalbn%358
                0x0005b538       0x50
 .text.scalbn   0x0005b538       0x50 /Applications/microchip/xc32/v4.10/bin/bin/../../lib/gcc/pic32c/8.3.1/../../../../pic32c/lib/thumb/v8-m.base/nofp/libm-emfloat.a(lib_a-_SCALBN.o)
                0x0005b538                scalbn

.text.az_json_token_get_boolean%359
                0x0005b588       0x4e
 .text.az_json_token_get_boolean
                0x0005b588       0x4e build/default/debug/_ext/1414040249/az_json_token.o
                0x0005b588                az_json_token_get_boolean

.text.append_json_property_string%360
                0x0005b5d6       0x4c
 .text.append_json_property_string
                0x0005b5d6       0x4c build/default/debug/_ext/1360937237/pic32cmls60-curiosity-commands.o
                0x0005b5d6                append_json_property_string

.text._az_validate_next_byte_is_digit%361
                0x0005b622       0x4c
 .text._az_validate_next_byte_is_digit
                0x0005b622       0x4c build/default/debug/_ext/1414040249/az_json_reader.o

.text._az_json_reader_process_property_name%362
                0x0005b66e       0x4c
 .text._az_json_reader_process_property_name
                0x0005b66e       0x4c build/default/debug/_ext/1414040249/az_json_reader.o

.rodata._az_json_unescape_single_byte%363
                0x0005b6bc       0x4c
 .rodata._az_json_unescape_single_byte
                0x0005b6bc       0x4c build/default/debug/_ext/1414040249/az_json_token.o

.rodata%364     0x0005b708       0x4c
 .rodata        0x0005b708       0x4c build/default/debug/_ext/1292534426/az_iot_hub_client.o

.text.EIC_Initialize%365
                0x0005b754       0x4c
 .text.EIC_Initialize
                0x0005b754       0x4c build/default/debug/_ext/60167341/plib_eic.o
                0x0005b754                EIC_Initialize

.text.EIC_OTHER_InterruptHandler%366
                0x0005b7a0       0x4c
 .text.EIC_OTHER_InterruptHandler
                0x0005b7a0       0x4c build/default/debug/_ext/60167341/plib_eic.o
                0x0005b7a0                EIC_OTHER_InterruptHandler

.text.SERCOM3_USART_Initialize%367
                0x0005b7ec       0x4c
 .text.SERCOM3_USART_Initialize
                0x0005b7ec       0x4c build/default/debug/_ext/504274921/plib_sercom3_usart.o
                0x0005b7ec                SERCOM3_USART_Initialize

.text.__fmt_s%368
                0x0005b838       0x4c
 .text.__fmt_s  0x0005b838       0x4c /Applications/microchip/xc32/v4.10/bin/bin/../../lib/gcc/pic32c/8.3.1/../../../../pic32c/lib/thumb/v8-m.base/nofp/libg-musl.a(__fmt_s.o)
                0x0005b838                __fmt_s_needed
                0x0005b838                __fmt_s
                0x0005b838                __fmt_0_needed

.text.setvbuf%369
                0x0005b884       0x4c
 .text.setvbuf  0x0005b884       0x4c /Applications/microchip/xc32/v4.10/bin/bin/../../lib/gcc/pic32c/8.3.1/../../../../pic32c/lib/thumb/v8-m.base/nofp/libg-musl.a(setvbuf.o)
                0x0005b884                setvbuf

.text.getname%370
                0x0005b8d0       0x4c
 .text.getname  0x0005b8d0       0x4c /Applications/microchip/xc32/v4.10/bin/bin/../../lib/gcc/pic32c/8.3.1/../../../../pic32c/lib/thumb/v8-m.base/nofp/libg-musl.a(__tz.o)

.text.__overflow%371
                0x0005b91c       0x4c
 .text.__overflow
                0x0005b91c       0x4c /Applications/microchip/xc32/v4.10/bin/bin/../../lib/gcc/pic32c/8.3.1/../../../../pic32c/lib/thumb/v8-m.base/nofp/libg-musl.a(__overflow.o)
                0x0005b91c                __overflow

.text.__toread%372
                0x0005b968       0x4c
 .text.__toread
                0x0005b968       0x4c /Applications/microchip/xc32/v4.10/bin/bin/../../lib/gcc/pic32c/8.3.1/../../../../pic32c/lib/thumb/v8-m.base/nofp/libg-musl.a(__toread.o)
                0x0005b968                __toread

.text.__push_float%373
                0x0005b9b4       0x4c
 .text.__push_float
                0x0005b9b4       0x4c /Applications/microchip/xc32/v4.10/bin/bin/../../lib/gcc/pic32c/8.3.1/../../../../pic32c/lib/thumb/v8-m.base/nofp/libg-musl.a(__push_float.o)
                0x0005b9b4                __push_float
                0x0005b9b4                __push_float_needed

.text.SYSTICK_DelayMs%374
                0x0005ba00       0x4a
 .text.SYSTICK_DelayMs
                0x0005ba00       0x4a build/default/debug/_ext/1827571544/plib_systick.o
                0x0005ba00                SYSTICK_DelayMs

.text.az_json_reader_skip_children%375
                0x0005ba4a       0x48
 .text.az_json_reader_skip_children
                0x0005ba4a       0x48 build/default/debug/_ext/1414040249/az_json_reader.o
                0x0005ba4a                az_json_reader_skip_children

.text.__aeabi_d2ulz%376
                0x0005ba94       0x48
 .text.__aeabi_d2ulz
                0x0005ba94       0x48 /Applications/microchip/xc32/v4.10/bin/bin/../../lib/gcc/pic32c/8.3.1/../../../../pic32c/lib/thumb/v8-m.base/nofp/libm-emfloat.a(floatasmops_arm.o)
                0x0005ba94                __aeabi_d2ulz

.text%377       0x0005badc       0x48
 .text          0x0005badc       0x48 /Applications/microchip/xc32/v4.10/bin/bin/../../lib/gcc/pic32c/8.3.1/thumb/v8-m.base/nofp/libgcc.a(_aeabi_ldivmod.o)
                0x0005badc                __aeabi_ldivmod

.rodata%378     0x0005bb24       0x45
 .rodata        0x0005bb24       0x45 /Applications/microchip/xc32/v4.10/bin/bin/../../lib/gcc/pic32c/8.3.1/../../../../pic32c/lib/thumb/v8-m.base/nofp/libg-musl.a(strftime.o)

.text.SYS_Initialize%379
                0x0005bb6a       0x44
 .text.SYS_Initialize
                0x0005bb6a       0x44 build/default/debug/_ext/1171490990/initialization.o
                0x0005bb6a                SYS_Initialize

.text.__aeabi_dcmple%380
                0x0005bbb0       0x44
 .text.__aeabi_dcmple
                0x0005bbb0       0x44 /Applications/microchip/xc32/v4.10/bin/bin/../../lib/gcc/pic32c/8.3.1/../../../../pic32c/lib/thumb/v8-m.base/nofp/libm-emfloat.a(floatasmops_arm.o)
                0x0005bbb0                __aeabi_dcmple

.text.__aeabi_dcmpge%381
                0x0005bbf4       0x44
 .text.__aeabi_dcmpge
                0x0005bbf4       0x44 /Applications/microchip/xc32/v4.10/bin/bin/../../lib/gcc/pic32c/8.3.1/../../../../pic32c/lib/thumb/v8-m.base/nofp/libm-emfloat.a(floatasmops_arm.o)
                0x0005bbf4                __aeabi_dcmpge

.text%382       0x0005bc38       0x44
 .text          0x0005bc38       0x44 /Applications/microchip/xc32/v4.10/bin/bin/../../lib/gcc/pic32c/8.3.1/thumb/v8-m.base/nofp/libgcc.a(_muldi3.o)
                0x0005bc38                __aeabi_lmul
                0x0005bc38                __muldi3

.text.ewfl_unsigned_to_str%383
                0x0005bc7c       0x42
 .text.ewfl_unsigned_to_str
                0x0005bc7c       0x42 build/default/debug/_ext/1360937237/main.o
                0x0005bc7c                ewfl_unsigned_to_str

.text.az_span_copy_u8%384
                0x0005bcbe       0x42
 .text.az_span_copy_u8
                0x0005bcbe       0x42 build/default/debug/_ext/1414040249/az_span.o
                0x0005bcbe                az_span_copy_u8

.text.SERCOM3_USART_Write%385
                0x0005bd00       0x42
 .text.SERCOM3_USART_Write
                0x0005bd00       0x42 build/default/debug/_ext/504274921/plib_sercom3_usart.o
                0x0005bd00                SERCOM3_USART_Write

.text%386       0x0005bd44       0x40
 .text          0x0005bd44       0x40 /Applications/microchip/xc32/v4.10/bin/bin/../../lib/gcc/pic32c/8.3.1/thumb/v8-m.base/nofp/crtbegin.o

.rodata.__func__.10365%387
                0x0005bd84       0x40
 .rodata.__func__.10365
                0x0005bd84       0x40 build/default/debug/_ext/1360937237/main.o

.rodata.__func__.10372%388
                0x0005bdc4       0x40
 .rodata.__func__.10372
                0x0005bdc4       0x40 build/default/debug/_ext/1360937237/main.o

.text.append_json_property_int32%389
                0x0005be04       0x40
 .text.append_json_property_int32
                0x0005be04       0x40 build/default/debug/_ext/1360937237/pic32cmls60-curiosity-commands.o
                0x0005be04                append_json_property_int32

.text.__aeabi_dcmpgt%390
                0x0005be44       0x40
 .text.__aeabi_dcmpgt
                0x0005be44       0x40 /Applications/microchip/xc32/v4.10/bin/bin/../../lib/gcc/pic32c/8.3.1/../../../../pic32c/lib/thumb/v8-m.base/nofp/libm-emfloat.a(floatasmops_arm.o)
                0x0005be44                __aeabi_dcmpgt

.text.__aeabi_dcmplt%391
                0x0005be84       0x40
 .text.__aeabi_dcmplt
                0x0005be84       0x40 /Applications/microchip/xc32/v4.10/bin/bin/../../lib/gcc/pic32c/8.3.1/../../../../pic32c/lib/thumb/v8-m.base/nofp/libm-emfloat.a(floatasmops_arm.o)
                0x0005be84                __aeabi_dcmplt

.text.adjust_size%392
                0x0005bec4       0x40
 .text.adjust_size
                0x0005bec4       0x40 /Applications/microchip/xc32/v4.10/bin/bin/../../lib/gcc/pic32c/8.3.1/../../../../pic32c/lib/thumb/v8-m.base/nofp/libg-musl.a(malloc.o)

.text.is_leap%393
                0x0005bf04       0x40
 .text.is_leap  0x0005bf04       0x40 /Applications/microchip/xc32/v4.10/bin/bin/../../lib/gcc/pic32c/8.3.1/../../../../pic32c/lib/thumb/v8-m.base/nofp/libg-musl.a(strftime.o)

.text%394       0x0005bf44       0x40
 .text          0x0005bf44       0x40 /Applications/microchip/xc32/v4.10/bin/bin/../../lib/gcc/pic32c/8.3.1/thumb/v8-m.base/nofp/libgcc.a(_aeabi_uldivmod.o)
                0x0005bf44                __aeabi_uldivmod

.text.start_json_object%395
                0x0005bf84       0x3e
 .text.start_json_object
                0x0005bf84       0x3e build/default/debug/_ext/1360937237/pic32cmls60-curiosity-commands.o
                0x0005bf84                start_json_object

.text.az_json_writer_init%396
                0x0005bfc2       0x3e
 .text.az_json_writer_init
                0x0005bfc2       0x3e build/default/debug/_ext/1414040249/az_json_writer.o
                0x0005bfc2                az_json_writer_init

.text._az_span_copy_url_encode%397
                0x0005c000       0x3e
 .text._az_span_copy_url_encode
                0x0005c000       0x3e build/default/debug/_ext/1292534426/az_iot_common.o
                0x0005c000                _az_span_copy_url_encode

.text.atoi%398  0x0005c03e       0x3e
 .text.atoi     0x0005c03e       0x3e /Applications/microchip/xc32/v4.10/bin/bin/../../lib/gcc/pic32c/8.3.1/../../../../pic32c/lib/thumb/v8-m.base/nofp/libg-musl.a(atoi.o)
                0x0005c03e                atoi

.text.__string_read%399
                0x0005c07c       0x3e
 .text.__string_read
                0x0005c07c       0x3e /Applications/microchip/xc32/v4.10/bin/bin/../../lib/gcc/pic32c/8.3.1/../../../../pic32c/lib/thumb/v8-m.base/nofp/libg-musl.a(__string_read.o)
                0x0005c07c                __string_read

.text.ewfl_buffer_equals_buffer%400
                0x0005c0ba       0x3c
 .text.ewfl_buffer_equals_buffer
                0x0005c0ba       0x3c build/default/debug/_ext/1360937237/main.o
                0x0005c0ba                ewfl_buffer_equals_buffer

.rodata.__func__.10460%401
                0x0005c0f8       0x3c
 .rodata.__func__.10460
                0x0005c0f8       0x3c build/default/debug/_ext/1360937237/main.o

.rodata.__func__.7843%402
                0x0005c134       0x3c
 .rodata.__func__.7843
                0x0005c134       0x3c build/default/debug/_ext/1360937237/main.o

.rodata.__func__.7848%403
                0x0005c170       0x3c
 .rodata.__func__.7848
                0x0005c170       0x3c build/default/debug/_ext/1360937237/main.o

.text._az_span_trim_whitespace_from_start%404
                0x0005c1ac       0x3c
 .text._az_span_trim_whitespace_from_start
                0x0005c1ac       0x3c build/default/debug/_ext/1414040249/az_span.o
                0x0005c1ac                _az_span_trim_whitespace_from_start

.rodata%405     0x0005c1e8       0x3c
 .rodata        0x0005c1e8       0x3c build/default/debug/_ext/1292534426/az_iot_hub_client_properties.o

.text.bin_index%406
                0x0005c224       0x3c
 .text.bin_index
                0x0005c224       0x3c /Applications/microchip/xc32/v4.10/bin/bin/../../lib/gcc/pic32c/8.3.1/../../../../pic32c/lib/thumb/v8-m.base/nofp/libg-musl.a(malloc.o)

.text.__putc%407
                0x0005c260       0x3c
 .text.__putc   0x0005c260       0x3c /Applications/microchip/xc32/v4.10/bin/bin/../../lib/gcc/pic32c/8.3.1/../../../../pic32c/lib/thumb/v8-m.base/nofp/libg-musl.a(__putc.o)
                0x0005c260                __putc
                0x0005c260                __putc_needed

.text.__skipws%408
                0x0005c29c       0x3c
 .text.__skipws
                0x0005c29c       0x3c /Applications/microchip/xc32/v4.10/bin/bin/../../lib/gcc/pic32c/8.3.1/../../../../pic32c/lib/thumb/v8-m.base/nofp/libg-musl.a(__scanf_core.o)
                0x0005c29c                __skipws

.text%409       0x0005c2d8       0x3c
 .text          0x0005c2d8       0x3c /Applications/microchip/xc32/v4.10/bin/bin/../../lib/gcc/pic32c/8.3.1/thumb/v8-m.base/nofp/libgcc.a(_clzsi2.o)
                0x0005c2d8                __clzsi2

.text._az_log_should_write%410
                0x0005c314       0x3a
 .text._az_log_should_write
                0x0005c314       0x3a build/default/debug/_ext/1414040249/az_log.o
                0x0005c314                _az_log_should_write

.text.az_span_u32toa%411
                0x0005c34e       0x3a
 .text.az_span_u32toa
                0x0005c34e       0x3a build/default/debug/_ext/1414040249/az_span.o
                0x0005c34e                az_span_u32toa

.rodata.__func__.10643%412
                0x0005c388       0x38
 .rodata.__func__.10643
                0x0005c388       0x38 build/default/debug/_ext/1360937237/main.o

.rodata.__func__.10725%413
                0x0005c3c0       0x38
 .rodata.__func__.10725
                0x0005c3c0       0x38 build/default/debug/_ext/1360937237/main.o

.rodata.__func__.7853%414
                0x0005c3f8       0x38
 .rodata.__func__.7853
                0x0005c3f8       0x38 build/default/debug/_ext/1360937237/main.o

.text.__fmt_state%415
                0x0005c430       0x38
 .text.__fmt_state
                0x0005c430       0x38 /Applications/microchip/xc32/v4.10/bin/bin/../../lib/gcc/pic32c/8.3.1/../../../../pic32c/lib/thumb/v8-m.base/nofp/libg-musl.a(__printf_core.o)
                0x0005c430                __fmt_state

.text.__out%416
                0x0005c468       0x38
 .text.__out    0x0005c468       0x38 /Applications/microchip/xc32/v4.10/bin/bin/../../lib/gcc/pic32c/8.3.1/../../../../pic32c/lib/thumb/v8-m.base/nofp/libg-musl.a(__out.o)
                0x0005c468                __out_needed
                0x0005c468                __out

.rodata%417     0x0005c4a0       0x38
 .rodata        0x0005c4a0       0x38 /Applications/microchip/xc32/v4.10/bin/bin/../../lib/gcc/pic32c/8.3.1/../../../../pic32c/lib/thumb/v8-m.base/nofp/libg-musl.a(floatscan.o)

.rodata.__func__.10320%418
                0x0005c4d8       0x34
 .rodata.__func__.10320
                0x0005c4d8       0x34 build/default/debug/_ext/1360937237/main.o

.rodata.__func__.10407%419
                0x0005c50c       0x34
 .rodata.__func__.10407
                0x0005c50c       0x34 build/default/debug/_ext/1360937237/main.o

.rodata.__func__.10431%420
                0x0005c540       0x34
 .rodata.__func__.10431
                0x0005c540       0x34 build/default/debug/_ext/1360937237/main.o

.rodata.__func__.10486%421
                0x0005c574       0x34
 .rodata.__func__.10486
                0x0005c574       0x34 build/default/debug/_ext/1360937237/main.o

.rodata.__func__.10515%422
                0x0005c5a8       0x34
 .rodata.__func__.10515
                0x0005c5a8       0x34 build/default/debug/_ext/1360937237/main.o

.rodata.__func__.10526%423
                0x0005c5dc       0x34
 .rodata.__func__.10526
                0x0005c5dc       0x34 build/default/debug/_ext/1360937237/main.o

.rodata.__func__.10543%424
                0x0005c610       0x34
 .rodata.__func__.10543
                0x0005c610       0x34 build/default/debug/_ext/1360937237/main.o

.rodata.__func__.10556%425
                0x0005c644       0x34
 .rodata.__func__.10556
                0x0005c644       0x34 build/default/debug/_ext/1360937237/main.o

.rodata.__func__.10584%426
                0x0005c678       0x34
 .rodata.__func__.10584
                0x0005c678       0x34 build/default/debug/_ext/1360937237/main.o

.rodata.__func__.8046%427
                0x0005c6ac       0x34
 .rodata.__func__.8046
                0x0005c6ac       0x34 build/default/debug/_ext/1360937237/main.o

.text.EIC_CallbackRegister%428
                0x0005c6e0       0x34
 .text.EIC_CallbackRegister
                0x0005c6e0       0x34 build/default/debug/_ext/60167341/plib_eic.o
                0x0005c6e0                EIC_CallbackRegister

.text.__aeabi_d2iz%429
                0x0005c714       0x34
 .text.__aeabi_d2iz
                0x0005c714       0x34 /Applications/microchip/xc32/v4.10/bin/bin/../../lib/gcc/pic32c/8.3.1/../../../../pic32c/lib/thumb/v8-m.base/nofp/libm-emfloat.a(floatasmops_arm.o)
                0x0005c714                __aeabi_d2iz

.text.__putc_unbuffered%430
                0x0005c748       0x34
 .text.__putc_unbuffered
                0x0005c748       0x34 /Applications/microchip/xc32/v4.10/bin/bin/../../lib/gcc/pic32c/8.3.1/../../../../pic32c/lib/thumb/v8-m.base/nofp/libg-musl.a(putc.o)
                0x0005c748                __putc_unbuffered

.text.__gmtime_r%431
                0x0005c77c       0x34
 .text.__gmtime_r
                0x0005c77c       0x34 /Applications/microchip/xc32/v4.10/bin/bin/../../lib/gcc/pic32c/8.3.1/../../../../pic32c/lib/thumb/v8-m.base/nofp/libg-musl.a(gmtime_r.o)
                0x0005c77c                gmtime_r
                0x0005c77c                __gmtime_r

.text.__stdio_exit%432
                0x0005c7b0       0x34
 .text.__stdio_exit
                0x0005c7b0       0x34 /Applications/microchip/xc32/v4.10/bin/bin/../../lib/gcc/pic32c/8.3.1/../../../../pic32c/lib/thumb/v8-m.base/nofp/libg-musl.a(__stdio_exit.o)
                0x0005c7b0                __stdio_exit
                0x0005c7b0                __stdio_exit_needed

.text%433       0x0005c7e4       0x34
 .text          0x0005c7e4       0x34 /Applications/microchip/xc32/v4.10/bin/bin/../../lib/gcc/pic32c/8.3.1/thumb/v8-m.base/nofp/libgcc.a(bpabi.o)
                0x0005c7e4                __gnu_ldivmod_helper

.text._sbrk%434
                0x0005c818       0x34
 .text._sbrk    0x0005c818       0x34 /Applications/microchip/xc32/v4.10/bin/bin/../../lib/gcc/pic32c/8.3.1/../../../../pic32c/lib/thumb/v8-m.base/nofp/libpic32c.a(sbrk.o)
                0x0005c818                _sbrk

.text.ewfl_str_to_unsigned%435
                0x0005c84c       0x32
 .text.ewfl_str_to_unsigned
                0x0005c84c       0x32 build/default/debug/_ext/1360937237/main.o
                0x0005c84c                ewfl_str_to_unsigned

.text.mikroe_bg96_power_toggle%436
                0x0005c87e       0x32
 .text.mikroe_bg96_power_toggle
                0x0005c87e       0x32 build/default/debug/_ext/1360937237/main.o
                0x0005c87e                mikroe_bg96_power_toggle

.rodata.__func__.10209%437
                0x0005c8b0       0x30
 .rodata.__func__.10209
                0x0005c8b0       0x30 build/default/debug/_ext/1360937237/main.o

.rodata.__func__.10391%438
                0x0005c8e0       0x30
 .rodata.__func__.10391
                0x0005c8e0       0x30 build/default/debug/_ext/1360937237/main.o

.rodata.__func__.10419%439
                0x0005c910       0x30
 .rodata.__func__.10419
                0x0005c910       0x30 build/default/debug/_ext/1360937237/main.o

.rodata.__func__.10439%440
                0x0005c940       0x30
 .rodata.__func__.10439
                0x0005c940       0x30 build/default/debug/_ext/1360937237/main.o

.rodata.__func__.7893%441
                0x0005c970       0x30
 .rodata.__func__.7893
                0x0005c970       0x30 build/default/debug/_ext/1360937237/main.o

.rodata.__func__.8026%442
                0x0005c9a0       0x30
 .rodata.__func__.8026
                0x0005c9a0       0x30 build/default/debug/_ext/1360937237/main.o

.rodata.__func__.8035%443
                0x0005c9d0       0x30
 .rodata.__func__.8035
                0x0005c9d0       0x30 build/default/debug/_ext/1360937237/main.o

.text._az_iot_u32toa_size%444
                0x0005ca00       0x30
 .text._az_iot_u32toa_size
                0x0005ca00       0x30 build/default/debug/_ext/1292534426/az_iot_common.o
                0x0005ca00                _az_iot_u32toa_size

.text.__aeabi_dcmpeq%445
                0x0005ca30       0x30
 .text.__aeabi_dcmpeq
                0x0005ca30       0x30 /Applications/microchip/xc32/v4.10/bin/bin/../../lib/gcc/pic32c/8.3.1/../../../../pic32c/lib/thumb/v8-m.base/nofp/libm-emfloat.a(floatasmops_arm.o)
                0x0005ca30                __aeabi_dcmpeq

.text.__aeabi_d2uiz%446
                0x0005ca60       0x30
 .text.__aeabi_d2uiz
                0x0005ca60       0x30 /Applications/microchip/xc32/v4.10/bin/bin/../../lib/gcc/pic32c/8.3.1/../../../../pic32c/lib/thumb/v8-m.base/nofp/libm-emfloat.a(floatasmops_arm.o)
                0x0005ca60                __aeabi_d2uiz

.text.alloc_rev%447
                0x0005ca90       0x30
 .text.alloc_rev
                0x0005ca90       0x30 /Applications/microchip/xc32/v4.10/bin/bin/../../lib/gcc/pic32c/8.3.1/../../../../pic32c/lib/thumb/v8-m.base/nofp/libg-musl.a(malloc.o)

.text.vsscanf%448
                0x0005cac0       0x30
 .text.vsscanf  0x0005cac0       0x30 /Applications/microchip/xc32/v4.10/bin/bin/../../lib/gcc/pic32c/8.3.1/../../../../pic32c/lib/thumb/v8-m.base/nofp/libg-musl.a(vsscanf.o)
                0x0005cac0                vsscanf

.text.__consumews%449
                0x0005caf0       0x30
 .text.__consumews
                0x0005caf0       0x30 /Applications/microchip/xc32/v4.10/bin/bin/../../lib/gcc/pic32c/8.3.1/../../../../pic32c/lib/thumb/v8-m.base/nofp/libg-musl.a(__scanf_core.o)
                0x0005caf0                __consumews

.rodata%450     0x0005cb20       0x30
 .rodata        0x0005cb20       0x30 /Applications/microchip/xc32/v4.10/bin/bin/../../lib/gcc/pic32c/8.3.1/../../../../pic32c/lib/thumb/v8-m.base/nofp/libg-musl.a(__month_to_secs.o)

.text.alloc_fwd%451
                0x0005cb50       0x2e
 .text.alloc_fwd
                0x0005cb50       0x2e /Applications/microchip/xc32/v4.10/bin/bin/../../lib/gcc/pic32c/8.3.1/../../../../pic32c/lib/thumb/v8-m.base/nofp/libg-musl.a(malloc.o)

.text.__scan_d%452
                0x0005cb7e       0x2e
 .text.__scan_d
                0x0005cb7e       0x2e /Applications/microchip/xc32/v4.10/bin/bin/../../lib/gcc/pic32c/8.3.1/../../../../pic32c/lib/thumb/v8-m.base/nofp/libg-musl.a(__scan_d.o)
                0x0005cb7e                __scan_d
                0x0005cb7e                __scan_d_needed

.text.__scan_u%453
                0x0005cbac       0x2e
 .text.__scan_u
                0x0005cbac       0x2e /Applications/microchip/xc32/v4.10/bin/bin/../../lib/gcc/pic32c/8.3.1/../../../../pic32c/lib/thumb/v8-m.base/nofp/libg-musl.a(__scan_u.o)
                0x0005cbac                __scan_u
                0x0005cbac                __scan_u_needed

.rodata.__func__.9220%454
                0x0005cbdc       0x2c
 .rodata.__func__.9220
                0x0005cbdc       0x2c build/default/debug/_ext/1360937237/azure_iot_pnp_pic32cmls60-curiosity.o

.rodata.__func__.10152%455
                0x0005cc08       0x2c
 .rodata.__func__.10152
                0x0005cc08       0x2c build/default/debug/_ext/1360937237/main.o

.rodata.__func__.10169%456
                0x0005cc34       0x2c
 .rodata.__func__.10169
                0x0005cc34       0x2c build/default/debug/_ext/1360937237/main.o

.rodata.__func__.10175%457
                0x0005cc60       0x2c
 .rodata.__func__.10175
                0x0005cc60       0x2c build/default/debug/_ext/1360937237/main.o

.rodata.__func__.10200%458
                0x0005cc8c       0x2c
 .rodata.__func__.10200
                0x0005cc8c       0x2c build/default/debug/_ext/1360937237/main.o

.rodata.__func__.10291%459
                0x0005ccb8       0x2c
 .rodata.__func__.10291
                0x0005ccb8       0x2c build/default/debug/_ext/1360937237/main.o

.rodata.__func__.10305%460
                0x0005cce4       0x2c
 .rodata.__func__.10305
                0x0005cce4       0x2c build/default/debug/_ext/1360937237/main.o

.rodata.__func__.10377%461
                0x0005cd10       0x2c
 .rodata.__func__.10377
                0x0005cd10       0x2c build/default/debug/_ext/1360937237/main.o

.rodata.__func__.10382%462
                0x0005cd3c       0x2c
 .rodata.__func__.10382
                0x0005cd3c       0x2c build/default/debug/_ext/1360937237/main.o

.rodata.__func__.10469%463
                0x0005cd68       0x2c
 .rodata.__func__.10469
                0x0005cd68       0x2c build/default/debug/_ext/1360937237/main.o

.rodata.__func__.10480%464
                0x0005cd94       0x2c
 .rodata.__func__.10480
                0x0005cd94       0x2c build/default/debug/_ext/1360937237/main.o

.rodata.__func__.10760%465
                0x0005cdc0       0x2c
 .rodata.__func__.10760
                0x0005cdc0       0x2c build/default/debug/_ext/1360937237/main.o

.rodata.__func__.7833%466
                0x0005cdec       0x2c
 .rodata.__func__.7833
                0x0005cdec       0x2c build/default/debug/_ext/1360937237/main.o

.rodata.__func__.8773%467
                0x0005ce18       0x2c
 .rodata.__func__.8773
                0x0005ce18       0x2c build/default/debug/_ext/1360937237/main.o

.rodata.az_json_reader_next_token%468
                0x0005ce44       0x2c
 .rodata.az_json_reader_next_token
                0x0005ce44       0x2c build/default/debug/_ext/1414040249/az_json_reader.o

.text._az_json_unescape_single_byte%469
                0x0005ce70       0x2c
 .text._az_json_unescape_single_byte
                0x0005ce70       0x2c build/default/debug/_ext/1414040249/az_json_token.o

.rodata%470     0x0005ce9c       0x58
 .rodata        0x0005ce9c       0x2c build/default/debug/_ext/1292534426/az_iot_hub_client_methods.o
 .rodata        0x0005cec8       0x2c build/default/debug/_ext/1292534426/az_iot_hub_client_telemetry.o

.text.strlcat%472
                0x0005cef4       0x2c
 .text.strlcat  0x0005cef4       0x2c /Applications/microchip/xc32/v4.10/bin/bin/../../lib/gcc/pic32c/8.3.1/../../../../pic32c/lib/thumb/v8-m.base/nofp/libg-musl.a(strlcat.o)
                0x0005cef4                strlcat

.text.BUTTON_SW0_callback%473
                0x0005cf20       0x2a
 .text.BUTTON_SW0_callback
                0x0005cf20       0x2a build/default/debug/_ext/1360937237/pic32cmls60-curiosity-buttons.o
                0x0005cf20                BUTTON_SW0_callback

.text.BUTTON_SW1_callback%474
                0x0005cf4a       0x2a
 .text.BUTTON_SW1_callback
                0x0005cf4a       0x2a build/default/debug/_ext/1360937237/pic32cmls60-curiosity-buttons.o
                0x0005cf4a                BUTTON_SW1_callback

.text.fwrite%475
                0x0005cf74       0x2a
 .text.fwrite   0x0005cf74       0x2a /Applications/microchip/xc32/v4.10/bin/bin/../../lib/gcc/pic32c/8.3.1/../../../../pic32c/lib/thumb/v8-m.base/nofp/libg-musl.a(fwrite.o)
                0x0005cf74                fwrite_unlocked
                0x0005cf74                fwrite

.text.__pop_float%476
                0x0005cf9e       0x2a
 .text.__pop_float
                0x0005cf9e       0x2a /Applications/microchip/xc32/v4.10/bin/bin/../../lib/gcc/pic32c/8.3.1/../../../../pic32c/lib/thumb/v8-m.base/nofp/libg-musl.a(__pop_float.o)
                0x0005cf9e                __pop_float
                0x0005cf9e                __pop_float_needed

.text.__towrite_rw%477
                0x0005cfc8       0x2a
 .text.__towrite_rw
                0x0005cfc8       0x2a /Applications/microchip/xc32/v4.10/bin/bin/../../lib/gcc/pic32c/8.3.1/../../../../pic32c/lib/thumb/v8-m.base/nofp/libg-musl.a(__towrite_rw.o)
                0x0005cfc8                __towrite_rw_needed
                0x0005cfc8                __towrite_rw

.text.__clock_gettime%478
                0x0005cff2       0x2a
 .text.__clock_gettime
                0x0005cff2       0x2a /Applications/microchip/xc32/v4.10/bin/bin/../../lib/gcc/pic32c/8.3.1/../../../../pic32c/lib/thumb/v8-m.base/nofp/libg-musl.a(clock_gettime.o)
                0x0005cff2                clock_gettime
                0x0005cff2                __clock_gettime

.rodata.__func__.9111%479
                0x0005d01c       0x28
 .rodata.__func__.9111
                0x0005d01c       0x28 build/default/debug/_ext/1360937237/azure_iot_pnp_pic32cmls60-curiosity.o

.rodata.__func__.9249%480
                0x0005d044       0x28
 .rodata.__func__.9249
                0x0005d044       0x28 build/default/debug/_ext/1360937237/azure_iot_pnp_pic32cmls60-curiosity.o

.rodata.__func__.10138%481
                0x0005d06c       0x28
 .rodata.__func__.10138
                0x0005d06c       0x28 build/default/debug/_ext/1360937237/main.o

.rodata.__func__.10181%482
                0x0005d094       0x28
 .rodata.__func__.10181
                0x0005d094       0x28 build/default/debug/_ext/1360937237/main.o

.rodata.__func__.10627%483
                0x0005d0bc       0x28
 .rodata.__func__.10627
                0x0005d0bc       0x28 build/default/debug/_ext/1360937237/main.o

.rodata.__func__.10636%484
                0x0005d0e4       0x28
 .rodata.__func__.10636
                0x0005d0e4       0x28 build/default/debug/_ext/1360937237/main.o

.rodata.__func__.10655%485
                0x0005d10c       0x28
 .rodata.__func__.10655
                0x0005d10c       0x28 build/default/debug/_ext/1360937237/main.o

.rodata.__func__.10662%486
                0x0005d134       0x28
 .rodata.__func__.10662
                0x0005d134       0x28 build/default/debug/_ext/1360937237/main.o

.rodata.__func__.10670%487
                0x0005d15c       0x28
 .rodata.__func__.10670
                0x0005d15c       0x28 build/default/debug/_ext/1360937237/main.o

.rodata.__func__.10676%488
                0x0005d184       0x28
 .rodata.__func__.10676
                0x0005d184       0x28 build/default/debug/_ext/1360937237/main.o

.rodata.__func__.10693%489
                0x0005d1ac       0x28
 .rodata.__func__.10693
                0x0005d1ac       0x28 build/default/debug/_ext/1360937237/main.o

.rodata.__func__.10709%490
                0x0005d1d4       0x28
 .rodata.__func__.10709
                0x0005d1d4       0x28 build/default/debug/_ext/1360937237/main.o

.rodata.__func__.10718%491
                0x0005d1fc       0x28
 .rodata.__func__.10718
                0x0005d1fc       0x28 build/default/debug/_ext/1360937237/main.o

.rodata.__func__.10738%492
                0x0005d224       0x28
 .rodata.__func__.10738
                0x0005d224       0x28 build/default/debug/_ext/1360937237/main.o

.rodata.__func__.10748%493
                0x0005d24c       0x28
 .rodata.__func__.10748
                0x0005d24c       0x28 build/default/debug/_ext/1360937237/main.o

.rodata.__func__.10781%494
                0x0005d274       0x28
 .rodata.__func__.10781
                0x0005d274       0x28 build/default/debug/_ext/1360937237/main.o

.rodata.__func__.7863%495
                0x0005d29c       0x28
 .rodata.__func__.7863
                0x0005d29c       0x28 build/default/debug/_ext/1360937237/main.o

.rodata.__func__.7872%496
                0x0005d2c4       0x28
 .rodata.__func__.7872
                0x0005d2c4       0x28 build/default/debug/_ext/1360937237/main.o

.rodata%497     0x0005d2ec       0x28
 .rodata        0x0005d2ec       0x28 build/default/debug/_ext/1414040249/az_json_reader.o

.text.EIC_EXTINT_4_InterruptHandler%498
                0x0005d314       0x28
 .text.EIC_EXTINT_4_InterruptHandler
                0x0005d314       0x28 build/default/debug/_ext/60167341/plib_eic.o
                0x0005d314                EIC_EXTINT_4_InterruptHandler

.text.fflush%499
                0x0005d33c       0x28
 .text.fflush   0x0005d33c       0x28 /Applications/microchip/xc32/v4.10/bin/bin/../../lib/gcc/pic32c/8.3.1/../../../../pic32c/lib/thumb/v8-m.base/nofp/libg-musl.a(fflush.o)
                0x0005d33c                fflush
                0x0005d33c                fflush_unlocked

.text.puts%500  0x0005d364       0x28
 .text.puts     0x0005d364       0x28 /Applications/microchip/xc32/v4.10/bin/bin/../../lib/gcc/pic32c/8.3.1/../../../../pic32c/lib/thumb/v8-m.base/nofp/libg-musl.a(puts.o)
                0x0005d364                puts

.text.__readv%501
                0x0005d38c       0x28
 .text.__readv  0x0005d38c       0x28 /Applications/microchip/xc32/v4.10/bin/bin/../../lib/gcc/pic32c/8.3.1/../../../../pic32c/lib/thumb/v8-m.base/nofp/libg-musl.a(readv.o)
                0x0005d38c                readv

.text.__shlim%502
                0x0005d3b4       0x28
 .text.__shlim  0x0005d3b4       0x28 /Applications/microchip/xc32/v4.10/bin/bin/../../lib/gcc/pic32c/8.3.1/../../../../pic32c/lib/thumb/v8-m.base/nofp/libg-musl.a(shgetc.o)
                0x0005d3b4                __shlim

.text.__writev%503
                0x0005d3dc       0x28
 .text.__writev
                0x0005d3dc       0x28 /Applications/microchip/xc32/v4.10/bin/bin/../../lib/gcc/pic32c/8.3.1/../../../../pic32c/lib/thumb/v8-m.base/nofp/libg-musl.a(writev.o)
                0x0005d3dc                writev

.text.ewfl_str_starts_with%504
                0x0005d404       0x26
 .text.ewfl_str_starts_with
                0x0005d404       0x26 build/default/debug/_ext/1360937237/main.o
                0x0005d404                ewfl_str_starts_with

.text.trim%505  0x0005d42a       0x26
 .text.trim     0x0005d42a       0x26 /Applications/microchip/xc32/v4.10/bin/bin/../../lib/gcc/pic32c/8.3.1/../../../../pic32c/lib/thumb/v8-m.base/nofp/libg-musl.a(malloc.o)

.text.memmove%506
                0x0005d450       0x26
 .text.memmove  0x0005d450       0x26 /Applications/microchip/xc32/v4.10/bin/bin/../../lib/gcc/pic32c/8.3.1/../../../../pic32c/lib/thumb/v8-m.base/nofp/libg-musl.a(memmove.o)
                0x0005d450                memmove

.text.__uflow%507
                0x0005d476       0x26
 .text.__uflow  0x0005d476       0x26 /Applications/microchip/xc32/v4.10/bin/bin/../../lib/gcc/pic32c/8.3.1/../../../../pic32c/lib/thumb/v8-m.base/nofp/libg-musl.a(__uflow.o)
                0x0005d476                __uflow

.rodata.__func__.9238%508
                0x0005d49c       0x24
 .rodata.__func__.9238
                0x0005d49c       0x24 build/default/debug/_ext/1360937237/azure_iot_pnp_pic32cmls60-curiosity.o

.rodata.__func__.9279%509
                0x0005d4c0       0x24
 .rodata.__func__.9279
                0x0005d4c0       0x24 build/default/debug/_ext/1360937237/azure_iot_pnp_pic32cmls60-curiosity.o

.rodata.__func__.10123%510
                0x0005d4e4       0x24
 .rodata.__func__.10123
                0x0005d4e4       0x24 build/default/debug/_ext/1360937237/main.o

.rodata.__func__.10255%511
                0x0005d508       0x24
 .rodata.__func__.10255
                0x0005d508       0x24 build/default/debug/_ext/1360937237/main.o

.rodata.__func__.10618%512
                0x0005d52c       0x24
 .rodata.__func__.10618
                0x0005d52c       0x24 build/default/debug/_ext/1360937237/main.o

.rodata.__func__.10650%513
                0x0005d550       0x24
 .rodata.__func__.10650
                0x0005d550       0x24 build/default/debug/_ext/1360937237/main.o

.rodata.__func__.10684%514
                0x0005d574       0x24
 .rodata.__func__.10684
                0x0005d574       0x24 build/default/debug/_ext/1360937237/main.o

.rodata.__func__.10700%515
                0x0005d598       0x24
 .rodata.__func__.10700
                0x0005d598       0x24 build/default/debug/_ext/1360937237/main.o

.rodata.__func__.10732%516
                0x0005d5bc       0x24
 .rodata.__func__.10732
                0x0005d5bc       0x24 build/default/debug/_ext/1360937237/main.o

.rodata.__func__.7549%517
                0x0005d5e0       0x24
 .rodata.__func__.7549
                0x0005d5e0       0x24 build/default/debug/_ext/1360937237/main.o

.rodata.__func__.7556%518
                0x0005d604       0x24
 .rodata.__func__.7556
                0x0005d604       0x24 build/default/debug/_ext/1360937237/main.o

.rodata.__func__.7778%519
                0x0005d628       0x24
 .rodata.__func__.7778
                0x0005d628       0x24 build/default/debug/_ext/1360937237/main.o

.rodata.__func__.7823%520
                0x0005d64c       0x24
 .rodata.__func__.7823
                0x0005d64c       0x24 build/default/debug/_ext/1360937237/main.o

.rodata.__func__.7887%521
                0x0005d670       0x24
 .rodata.__func__.7887
                0x0005d670       0x24 build/default/debug/_ext/1360937237/main.o

.rodata.__func__.8793%522
                0x0005d694       0x24
 .rodata.__func__.8793
                0x0005d694       0x24 build/default/debug/_ext/1360937237/main.o

.rodata.__func__.8798%523
                0x0005d6b8       0x24
 .rodata.__func__.8798
                0x0005d6b8       0x24 build/default/debug/_ext/1360937237/main.o

.rodata.__func__.9661%524
                0x0005d6dc       0x24
 .rodata.__func__.9661
                0x0005d6dc       0x24 build/default/debug/_ext/1360937237/main.o

.text.az_span_create%525
                0x0005d700       0x24
 .text.az_span_create
                0x0005d700       0x24 build/default/debug/_ext/1414040249/az_span.o
                0x0005d700                az_span_create

.text.SERCOM2_USART_WritePendingBytesGet%526
                0x0005d724       0x24
 .text.SERCOM2_USART_WritePendingBytesGet
                0x0005d724       0x24 build/default/debug/_ext/504274921/plib_sercom2_usart.o

.text.SERCOM2_USART_ReadCountGet%527
                0x0005d748       0x24
 .text.SERCOM2_USART_ReadCountGet
                0x0005d748       0x24 build/default/debug/_ext/504274921/plib_sercom2_usart.o
                0x0005d748                SERCOM2_USART_ReadCountGet

.text.az_iot_hub_client_options_default%528
                0x0005d76c       0x22
 .text.az_iot_hub_client_options_default
                0x0005d76c       0x22 build/default/debug/_ext/1292534426/az_iot_hub_client.o
                0x0005d76c                az_iot_hub_client_options_default

.text.ADC_Enable%529
                0x0005d78e       0x22
 .text.ADC_Enable
                0x0005d78e       0x22 build/default/debug/_ext/60163342/plib_adc.o
                0x0005d78e                ADC_Enable

.text.fputs%530
                0x0005d7b0       0x22
 .text.fputs    0x0005d7b0       0x22 /Applications/microchip/xc32/v4.10/bin/bin/../../lib/gcc/pic32c/8.3.1/../../../../pic32c/lib/thumb/v8-m.base/nofp/libg-musl.a(fputs.o)
                0x0005d7b0                fputs_unlocked
                0x0005d7b0                fputs

.rodata.__func__.9266%531
                0x0005d7d4       0x20
 .rodata.__func__.9266
                0x0005d7d4       0x20 build/default/debug/_ext/1360937237/azure_iot_pnp_pic32cmls60-curiosity.o

.rodata.__func__.10130%532
                0x0005d7f4       0x20
 .rodata.__func__.10130
                0x0005d7f4       0x20 build/default/debug/_ext/1360937237/main.o

.rodata.__func__.10145%533
                0x0005d814       0x20
 .rodata.__func__.10145
                0x0005d814       0x20 build/default/debug/_ext/1360937237/main.o

.rodata.__func__.10767%534
                0x0005d834       0x20
 .rodata.__func__.10767
                0x0005d834       0x20 build/default/debug/_ext/1360937237/main.o

.rodata.__func__.10773%535
                0x0005d854       0x20
 .rodata.__func__.10773
                0x0005d854       0x20 build/default/debug/_ext/1360937237/main.o

.rodata.__func__.7536%536
                0x0005d874       0x20
 .rodata.__func__.7536
                0x0005d874       0x20 build/default/debug/_ext/1360937237/main.o

.rodata.__func__.7791%537
                0x0005d894       0x20
 .rodata.__func__.7791
                0x0005d894       0x20 build/default/debug/_ext/1360937237/main.o

.rodata.__func__.7974%538
                0x0005d8b4       0x20
 .rodata.__func__.7974
                0x0005d8b4       0x20 build/default/debug/_ext/1360937237/main.o

.rodata.__func__.8789%539
                0x0005d8d4       0x20
 .rodata.__func__.8789
                0x0005d8d4       0x20 build/default/debug/_ext/1360937237/main.o

.rodata.__func__.8809%540
                0x0005d8f4       0x20
 .rodata.__func__.8809
                0x0005d8f4       0x20 build/default/debug/_ext/1360937237/main.o

.rodata.__func__.9813%541
                0x0005d914       0x20
 .rodata.__func__.9813
                0x0005d914       0x20 build/default/debug/_ext/1360937237/main.o

.text._get_remaining_json%542
                0x0005d934       0x20
 .text._get_remaining_json
                0x0005d934       0x20 build/default/debug/_ext/1414040249/az_json_reader.o

.text.az_iot_hub_client_properties_writer_end_response_status%543
                0x0005d954       0x20
 .text.az_iot_hub_client_properties_writer_end_response_status
                0x0005d954       0x20 build/default/debug/_ext/1292534426/az_iot_hub_client_properties.o
                0x0005d954                az_iot_hub_client_properties_writer_end_response_status

.text.libc_exit_fini%544
                0x0005d974       0x20
 .text.libc_exit_fini
                0x0005d974       0x20 /Applications/microchip/xc32/v4.10/bin/bin/../../lib/gcc/pic32c/8.3.1/../../../../pic32c/lib/thumb/v8-m.base/nofp/libg-musl.a(exit.o)
                0x0005d974                __libc_fini_array
                0x0005d974                __libc_exit_fini

.text.printf%545
                0x0005d994       0x20
 .text.printf   0x0005d994       0x20 /Applications/microchip/xc32/v4.10/bin/bin/../../lib/gcc/pic32c/8.3.1/../../../../pic32c/lib/thumb/v8-m.base/nofp/libc-musl.a(printf.o)
                0x0005d994                printf
                0x0005d994                __printf_di
                0x0005d994                __printf_s
                0x0005d994                __printf_u

.text.getint%546
                0x0005d9b4       0x1e
 .text.getint   0x0005d9b4       0x1e /Applications/microchip/xc32/v4.10/bin/bin/../../lib/gcc/pic32c/8.3.1/../../../../pic32c/lib/thumb/v8-m.base/nofp/libg-musl.a(__tz.o)

.rodata.__func__.9261%547
                0x0005d9d4       0x1c
 .rodata.__func__.9261
                0x0005d9d4       0x1c build/default/debug/_ext/1360937237/azure_iot_pnp_pic32cmls60-curiosity.o

.text.ewfl_str_length%548
                0x0005d9f0       0x1c
 .text.ewfl_str_length
                0x0005d9f0       0x1c build/default/debug/_ext/1360937237/main.o
                0x0005d9f0                ewfl_str_length

.rodata.ewf_adapter_quectel_common_mqtt_basic_urc_callback%549
                0x0005da0c       0x1c
 .rodata.ewf_adapter_quectel_common_mqtt_basic_urc_callback
                0x0005da0c       0x1c build/default/debug/_ext/1360937237/main.o

.rodata.__func__.7439%550
                0x0005da28       0x1c
 .rodata.__func__.7439
                0x0005da28       0x1c build/default/debug/_ext/1360937237/main.o

.rodata.__func__.7450%551
                0x0005da44       0x1c
 .rodata.__func__.7450
                0x0005da44       0x1c build/default/debug/_ext/1360937237/main.o

.rodata.__func__.7461%552
                0x0005da60       0x1c
 .rodata.__func__.7461
                0x0005da60       0x1c build/default/debug/_ext/1360937237/main.o

.rodata.__func__.7902%553
                0x0005da7c       0x1c
 .rodata.__func__.7902
                0x0005da7c       0x1c build/default/debug/_ext/1360937237/main.o

.rodata.__func__.7912%554
                0x0005da98       0x1c
 .rodata.__func__.7912
                0x0005da98       0x1c build/default/debug/_ext/1360937237/main.o

.rodata.__func__.7937%555
                0x0005dab4       0x1c
 .rodata.__func__.7937
                0x0005dab4       0x1c build/default/debug/_ext/1360937237/main.o

.rodata.__func__.7943%556
                0x0005dad0       0x1c
 .rodata.__func__.7943
                0x0005dad0       0x1c build/default/debug/_ext/1360937237/main.o

.rodata.__func__.7960%557
                0x0005daec       0x1c
 .rodata.__func__.7960
                0x0005daec       0x1c build/default/debug/_ext/1360937237/main.o

.rodata.__func__.7967%558
                0x0005db08       0x1c
 .rodata.__func__.7967
                0x0005db08       0x1c build/default/debug/_ext/1360937237/main.o

.rodata.__func__.8759%559
                0x0005db24       0x1c
 .rodata.__func__.8759
                0x0005db24       0x1c build/default/debug/_ext/1360937237/main.o

.rodata.__func__.8763%560
                0x0005db40       0x1c
 .rodata.__func__.8763
                0x0005db40       0x1c build/default/debug/_ext/1360937237/main.o

.text.write%561
                0x0005db5c       0x1c
 .text.write    0x0005db5c       0x1c build/default/debug/_ext/163028504/xc32_monitor.o
                0x0005db5c                write

.text.__aeabi_i2d%562
                0x0005db78       0x1c
 .text.__aeabi_i2d
                0x0005db78       0x1c /Applications/microchip/xc32/v4.10/bin/bin/../../lib/gcc/pic32c/8.3.1/../../../../pic32c/lib/thumb/v8-m.base/nofp/libm-emfloat.a(floatasmops_arm.o)
                0x0005db78                __aeabi_i2d

.text.__aeabi_ui2d%563
                0x0005db94       0x1c
 .text.__aeabi_ui2d
                0x0005db94       0x1c /Applications/microchip/xc32/v4.10/bin/bin/../../lib/gcc/pic32c/8.3.1/../../../../pic32c/lib/thumb/v8-m.base/nofp/libm-emfloat.a(floatasmops_arm.o)
                0x0005db94                __aeabi_ui2d

.text.isxdigit%564
                0x0005dbb0       0x1c
 .text.isxdigit
                0x0005dbb0       0x1c /Applications/microchip/xc32/v4.10/bin/bin/../../lib/gcc/pic32c/8.3.1/../../../../pic32c/lib/thumb/v8-m.base/nofp/libg-musl.a(isxdigit.o)
                0x0005dbb0                isxdigit

.text.lock_bin%565
                0x0005dbcc       0x1c
 .text.lock_bin
                0x0005dbcc       0x1c /Applications/microchip/xc32/v4.10/bin/bin/../../lib/gcc/pic32c/8.3.1/../../../../pic32c/lib/thumb/v8-m.base/nofp/libg-musl.a(malloc.o)

.rodata%566     0x0005dbe8       0x1c
 .rodata        0x0005dbe8       0x1c /Applications/microchip/xc32/v4.10/bin/bin/../../lib/gcc/pic32c/8.3.1/../../../../pic32c/lib/thumb/v8-m.base/nofp/libg-musl.a(__printf_core.o)

.text.memcmp%567
                0x0005dc04       0x1c
 .text.memcmp   0x0005dc04       0x1c /Applications/microchip/xc32/v4.10/bin/bin/../../lib/gcc/pic32c/8.3.1/../../../../pic32c/lib/thumb/v8-m.base/nofp/libg-musl.a(memcmp.o)
                0x0005dc04                memcmp

.text.__syscall_ret%568
                0x0005dc20       0x1c
 .text.__syscall_ret
                0x0005dc20       0x1c /Applications/microchip/xc32/v4.10/bin/bin/../../lib/gcc/pic32c/8.3.1/../../../../pic32c/lib/thumb/v8-m.base/nofp/libg-musl.a(syscall_ret.o)
                0x0005dc20                __syscall_ret

.text.__month_to_secs%569
                0x0005dc3c       0x1c
 .text.__month_to_secs
                0x0005dc3c       0x1c /Applications/microchip/xc32/v4.10/bin/bin/../../lib/gcc/pic32c/8.3.1/../../../../pic32c/lib/thumb/v8-m.base/nofp/libg-musl.a(__month_to_secs.o)
                0x0005dc3c                __month_to_secs

.text.end_json_object%570
                0x0005dc58       0x1a
 .text.end_json_object
                0x0005dc58       0x1a build/default/debug/_ext/1360937237/pic32cmls60-curiosity-commands.o
                0x0005dc58                end_json_object

.text.SYSTICK_TimerInitialize%571
                0x0005dc72       0x1a
 .text.SYSTICK_TimerInitialize
                0x0005dc72       0x1a build/default/debug/_ext/1827571544/plib_systick.o
                0x0005dc72                SYSTICK_TimerInitialize

.rodata.__func__.9186%572
                0x0005dc8c       0x18
 .rodata.__func__.9186
                0x0005dc8c       0x18 build/default/debug/_ext/1360937237/azure_iot_pnp_pic32cmls60-curiosity.o

.rodata.__func__.7505%573
                0x0005dca4       0x18
 .rodata.__func__.7505
                0x0005dca4       0x18 build/default/debug/_ext/1360937237/main.o

.rodata.__func__.7510%574
                0x0005dcbc       0x18
 .rodata.__func__.7510
                0x0005dcbc       0x18 build/default/debug/_ext/1360937237/main.o

.rodata.__func__.7813%575
                0x0005dcd4       0x18
 .rodata.__func__.7813
                0x0005dcd4       0x18 build/default/debug/_ext/1360937237/main.o

.rodata.__func__.5367%576
                0x0005dcec       0x18
 .rodata.__func__.5367
                0x0005dcec       0x18 build/default/debug/_ext/1360937237/pic32cmls60-curiosity-commands.o

.rodata.__func__.5378%577
                0x0005dd04       0x18
 .rodata.__func__.5378
                0x0005dd04       0x18 build/default/debug/_ext/1360937237/pic32cmls60-curiosity-commands.o

.text.az_iot_hub_client_commands_response_get_publish_topic%578
                0x0005dd1c       0x18
 .text.az_iot_hub_client_commands_response_get_publish_topic
                0x0005dd1c       0x18 build/default/debug/_ext/1292534426/az_iot_hub_client_commands.o
                0x0005dd1c                az_iot_hub_client_commands_response_get_publish_topic

.text.BSP_Initialize%579
                0x0005dd34       0x18
 .text.BSP_Initialize
                0x0005dd34       0x18 build/default/debug/_ext/1434821282/bsp.o
                0x0005dd34                BSP_Initialize

.text.SERCOM2_USART_ReadNotificationEnable%580
                0x0005dd4c       0x18
 .text.SERCOM2_USART_ReadNotificationEnable
                0x0005dd4c       0x18 build/default/debug/_ext/504274921/plib_sercom2_usart.o
                0x0005dd4c                SERCOM2_USART_ReadNotificationEnable

.rodata%581     0x0005dd64       0x18
 .rodata        0x0005dd64       0x18 /Applications/microchip/xc32/v4.10/bin/bin/../../lib/gcc/pic32c/8.3.1/../../../../pic32c/lib/thumb/v8-m.base/nofp/libg-musl.a(c_locale.o)
                0x0005dd64                __c_locale

.text.vfscanf%582
                0x0005dd7c       0x18
 .text.vfscanf  0x0005dd7c       0x18 /Applications/microchip/xc32/v4.10/bin/bin/../../lib/gcc/pic32c/8.3.1/../../../../pic32c/lib/thumb/v8-m.base/nofp/libg-musl.a(vfscanf.o)
                0x0005dd7c                vfscanf

.text.__towrite%583
                0x0005dd94       0x18
 .text.__towrite
                0x0005dd94       0x18 /Applications/microchip/xc32/v4.10/bin/bin/../../lib/gcc/pic32c/8.3.1/../../../../pic32c/lib/thumb/v8-m.base/nofp/libg-musl.a(__towrite.o)
                0x0005dd94                __towrite

.text.vfprintf%584
                0x0005ddac       0x18
 .text.vfprintf
                0x0005ddac       0x18 /Applications/microchip/xc32/v4.10/bin/bin/../../lib/gcc/pic32c/8.3.1/../../../../pic32c/lib/thumb/v8-m.base/nofp/libg-musl.a(vfprintf.o)
                0x0005ddac                vfprintf

.text%585       0x0005ddc4       0x30
 .text          0x0005ddc4       0x18 /Applications/microchip/xc32/v4.10/bin/bin/../../lib/gcc/pic32c/8.3.1/thumb/v8-m.base/nofp/libgcc.a(_lshrdi3.o)
                0x0005ddc4                __aeabi_llsr
                0x0005ddc4                __lshrdi3
 .text          0x0005dddc       0x18 /Applications/microchip/xc32/v4.10/bin/bin/../../lib/gcc/pic32c/8.3.1/thumb/v8-m.base/nofp/libgcc.a(_ashldi3.o)
                0x0005dddc                __ashldi3
                0x0005dddc                __aeabi_llsl

.text.SERCOM2_USART_WriteFreeBufferCountGet%587
                0x0005ddf4       0x16
 .text.SERCOM2_USART_WriteFreeBufferCountGet
                0x0005ddf4       0x16 build/default/debug/_ext/504274921/plib_sercom2_usart.o
                0x0005ddf4                SERCOM2_USART_WriteFreeBufferCountGet

.text.SYSTICK_TimerStart%588
                0x0005de0a       0x16
 .text.SYSTICK_TimerStart
                0x0005de0a       0x16 build/default/debug/_ext/1827571544/plib_systick.o
                0x0005de0a                SYSTICK_TimerStart

.text.exit%589  0x0005de20       0x16
 .text.exit     0x0005de20       0x16 /Applications/microchip/xc32/v4.10/bin/bin/../../lib/gcc/pic32c/8.3.1/../../../../pic32c/lib/thumb/v8-m.base/nofp/libg-musl.a(exit.o)
                0x0005de20                exit

.text.__expand_heap%590
                0x0005de36       0x16
 .text.__expand_heap
                0x0005de36       0x16 /Applications/microchip/xc32/v4.10/bin/bin/../../lib/gcc/pic32c/8.3.1/../../../../pic32c/lib/thumb/v8-m.base/nofp/libg-musl.a(expand_heap.o)
                0x0005de36                __expand_heap

.text.sscanf%591
                0x0005de4c       0x16
 .text.sscanf   0x0005de4c       0x16 /Applications/microchip/xc32/v4.10/bin/bin/../../lib/gcc/pic32c/8.3.1/../../../../pic32c/lib/thumb/v8-m.base/nofp/libg-musl.a(sscanf.o)
                0x0005de4c                __sscanf_di
                0x0005de4c                sscanf
                0x0005de4c                __isoc99_sscanf
                0x0005de4c                __sscanf_u

.text.strnlen%592
                0x0005de62       0x16
 .text.strnlen  0x0005de62       0x16 /Applications/microchip/xc32/v4.10/bin/bin/../../lib/gcc/pic32c/8.3.1/../../../../pic32c/lib/thumb/v8-m.base/nofp/libg-musl.a(strnlen.o)
                0x0005de62                strnlen

.text.snprintf%593
                0x0005de78       0x16
 .text.snprintf
                0x0005de78       0x16 /Applications/microchip/xc32/v4.10/bin/bin/../../lib/gcc/pic32c/8.3.1/../../../../pic32c/lib/thumb/v8-m.base/nofp/libg-musl.a(snprintf.o)
                0x0005de78                snprintf
                0x0005de78                __snprintf_u

.text.memchr%594
                0x0005de8e       0x16
 .text.memchr   0x0005de8e       0x16 /Applications/microchip/xc32/v4.10/bin/bin/../../lib/gcc/pic32c/8.3.1/../../../../pic32c/lib/thumb/v8-m.base/nofp/libg-musl.a(memchr.o)
                0x0005de8e                memchr

.text.fprintf%595
                0x0005dea4       0x16
 .text.fprintf  0x0005dea4       0x16 /Applications/microchip/xc32/v4.10/bin/bin/../../lib/gcc/pic32c/8.3.1/../../../../pic32c/lib/thumb/v8-m.base/nofp/libc-musl.a(fprintf.o)
                0x0005dea4                __fprintf_s
                0x0005dea4                __fprintf_dis
                0x0005dea4                __fprintf_fgG
                0x0005dea4                __fprintf_oxX
                0x0005dea4                fprintf
                0x0005dea4                __fprintf_p
                0x0005dea4                __fprintf_us
                0x0005dea4                __fprintf_usp
                0x0005dea4                __fprintf_u
                0x0005dea4                __fprintf_di

.rodata.__func__.9272%596
                0x0005debc       0x14
 .rodata.__func__.9272
                0x0005debc       0x14 build/default/debug/_ext/1360937237/azure_iot_pnp_pic32cmls60-curiosity.o

.rodata.iso_spec_time_format%597
                0x0005ded0       0x14
 .rodata.iso_spec_time_format
                0x0005ded0       0x14 build/default/debug/_ext/1360937237/azure_iot_pnp_pic32cmls60-curiosity.o

.rodata.__func__.7500%598
                0x0005dee4       0x14
 .rodata.__func__.7500
                0x0005dee4       0x14 build/default/debug/_ext/1360937237/main.o

.rodata.__func__.7749%599
                0x0005def8       0x14
 .rodata.__func__.7749
                0x0005def8       0x14 build/default/debug/_ext/1360937237/main.o

.rodata.__func__.7757%600
                0x0005df0c       0x14
 .rodata.__func__.7757
                0x0005df0c       0x14 build/default/debug/_ext/1360937237/main.o

.rodata.__func__.7762%601
                0x0005df20       0x14
 .rodata.__func__.7762
                0x0005df20       0x14 build/default/debug/_ext/1360937237/main.o

.rodata.__func__.7769%602
                0x0005df34       0x14
 .rodata.__func__.7769
                0x0005df34       0x14 build/default/debug/_ext/1360937237/main.o

.rodata.__func__.8706%603
                0x0005df48       0x14
 .rodata.__func__.8706
                0x0005df48       0x14 build/default/debug/_ext/1360937237/main.o

.text.az_span_slice_to_end%604
                0x0005df5c       0x14
 .text.az_span_slice_to_end
                0x0005df5c       0x14 build/default/debug/_ext/1414040249/az_span.o
                0x0005df5c                az_span_slice_to_end

.text.az_iot_hub_client_properties_get_reported_publish_topic%605
                0x0005df70       0x14
 .text.az_iot_hub_client_properties_get_reported_publish_topic
                0x0005df70       0x14 build/default/debug/_ext/1292534426/az_iot_hub_client_properties.o
                0x0005df70                az_iot_hub_client_properties_get_reported_publish_topic

.text.az_iot_hub_client_properties_document_get_publish_topic%606
                0x0005df84       0x14
 .text.az_iot_hub_client_properties_document_get_publish_topic
                0x0005df84       0x14 build/default/debug/_ext/1292534426/az_iot_hub_client_properties.o
                0x0005df84                az_iot_hub_client_properties_document_get_publish_topic

.text.__aeabi_dsub%607
                0x0005df98       0x14
 .text.__aeabi_dsub
                0x0005df98       0x14 /Applications/microchip/xc32/v4.10/bin/bin/../../lib/gcc/pic32c/8.3.1/../../../../pic32c/lib/thumb/v8-m.base/nofp/libm-emfloat.a(floatasmops_arm.o)
                0x0005df98                __aeabi_dsub

.text.__init_stdout%608
                0x0005dfac       0x14
 .text.__init_stdout
                0x0005dfac       0x14 /Applications/microchip/xc32/v4.10/bin/bin/../../lib/gcc/pic32c/8.3.1/../../../../pic32c/lib/thumb/v8-m.base/nofp/libg-musl.a(stdout.o)
                0x0005dfac                __init_stdout

.text.strftime%609
                0x0005dfc0       0x14
 .text.strftime
                0x0005dfc0       0x14 /Applications/microchip/xc32/v4.10/bin/bin/../../lib/gcc/pic32c/8.3.1/../../../../pic32c/lib/thumb/v8-m.base/nofp/libg-musl.a(strftime.o)
                0x0005dfc0                strftime

.text.time%610  0x0005dfd4       0x14
 .text.time     0x0005dfd4       0x14 /Applications/microchip/xc32/v4.10/bin/bin/../../lib/gcc/pic32c/8.3.1/../../../../pic32c/lib/thumb/v8-m.base/nofp/libg-musl.a(time.o)
                0x0005dfd4                time

.text.strtoull%611
                0x0005dfe8       0x14
 .text.strtoull
                0x0005dfe8       0x14 /Applications/microchip/xc32/v4.10/bin/bin/../../lib/gcc/pic32c/8.3.1/../../../../pic32c/lib/thumb/v8-m.base/nofp/libg-musl.a(strtol.o)
                0x0005dfe8                __strtoull_internal
                0x0005dfe8                strtoull

.text.strtoll%612
                0x0005dffc       0x14
 .text.strtoll  0x0005dffc       0x14 /Applications/microchip/xc32/v4.10/bin/bin/../../lib/gcc/pic32c/8.3.1/../../../../pic32c/lib/thumb/v8-m.base/nofp/libg-musl.a(strtol.o)
                0x0005dffc                __strtoll_internal
                0x0005dffc                strtoll

.text%613       0x0005e010       0x14
 .text          0x0005e010       0x14 /Applications/microchip/xc32/v4.10/bin/bin/../../lib/gcc/pic32c/8.3.1/thumb/v8-m.base/nofp/libgcc.a(_thumb1_case_uhi.o)
                0x0005e010                __gnu_thumb1_case_uhi

.text.ewfl_str_n_cpy%614
                0x0005e024       0x12
 .text.ewfl_str_n_cpy
                0x0005e024       0x12 build/default/debug/_ext/1360937237/main.o
                0x0005e024                ewfl_str_n_cpy

.text.SERCOM2_USART_ErrorGet%615
                0x0005e036       0x12
 .text.SERCOM2_USART_ErrorGet
                0x0005e036       0x12 build/default/debug/_ext/504274921/plib_sercom2_usart.o
                0x0005e036                SERCOM2_USART_ErrorGet

.text.setbuf%616
                0x0005e048       0x12
 .text.setbuf   0x0005e048       0x12 /Applications/microchip/xc32/v4.10/bin/bin/../../lib/gcc/pic32c/8.3.1/../../../../pic32c/lib/thumb/v8-m.base/nofp/libg-musl.a(setbuf.o)
                0x0005e048                setbuf

.text.memcpy%617
                0x0005e05a       0x12
 .text.memcpy   0x0005e05a       0x12 /Applications/microchip/xc32/v4.10/bin/bin/../../lib/gcc/pic32c/8.3.1/../../../../pic32c/lib/thumb/v8-m.base/nofp/libg-musl.a(memcpy.o)
                0x0005e05a                memcpy

.text.strtoul%618
                0x0005e06c       0x12
 .text.strtoul  0x0005e06c       0x12 /Applications/microchip/xc32/v4.10/bin/bin/../../lib/gcc/pic32c/8.3.1/../../../../pic32c/lib/thumb/v8-m.base/nofp/libg-musl.a(strtol.o)
                0x0005e06c                strtoul
                0x0005e06c                __strtoul_internal

.text.stpcpy%619
                0x0005e07e       0x12
 .text.stpcpy   0x0005e07e       0x12 /Applications/microchip/xc32/v4.10/bin/bin/../../lib/gcc/pic32c/8.3.1/../../../../pic32c/lib/thumb/v8-m.base/nofp/libg-musl.a(stpcpy.o)
                0x0005e07e                stpcpy
                0x0005e07e                __stpcpy

.text.__fclose%620
                0x0005e090       0x12
 .text.__fclose
                0x0005e090       0x12 /Applications/microchip/xc32/v4.10/bin/bin/../../lib/gcc/pic32c/8.3.1/../../../../pic32c/lib/thumb/v8-m.base/nofp/libg-musl.a(__fclose.o)
                0x0005e090                __fclose
                0x0005e090                __fclose_needed

.text.__fwrite%621
                0x0005e0a2       0x12
 .text.__fwrite
                0x0005e0a2       0x12 /Applications/microchip/xc32/v4.10/bin/bin/../../lib/gcc/pic32c/8.3.1/../../../../pic32c/lib/thumb/v8-m.base/nofp/libg-musl.a(__fwrite.o)
                0x0005e0a2                __fwrite_needed
                0x0005e0a2                __fwrite

.text.LED_init%622
                0x0005e0b4       0x10
 .text.LED_init
                0x0005e0b4       0x10 build/default/debug/_ext/1360937237/pic32cmls60-curiosity-led.o
                0x0005e0b4                LED_init

.text.EIC_InterruptEnable%623
                0x0005e0c4       0x10
 .text.EIC_InterruptEnable
                0x0005e0c4       0x10 build/default/debug/_ext/60167341/plib_eic.o
                0x0005e0c4                EIC_InterruptEnable

.text.SERCOM2_USART_TransmitComplete%624
                0x0005e0d4       0x10
 .text.SERCOM2_USART_TransmitComplete
                0x0005e0d4       0x10 build/default/debug/_ext/504274921/plib_sercom2_usart.o
                0x0005e0d4                SERCOM2_USART_TransmitComplete

.rodata%625     0x0005e0e4       0x10
 .rodata        0x0005e0e4       0x10 /Applications/microchip/xc32/v4.10/bin/bin/../../lib/gcc/pic32c/8.3.1/../../../../pic32c/lib/thumb/v8-m.base/nofp/libg-musl.a(__fmt_fp.o)

.text.memset%626
                0x0005e0f4       0x10
 .text.memset   0x0005e0f4       0x10 /Applications/microchip/xc32/v4.10/bin/bin/../../lib/gcc/pic32c/8.3.1/../../../../pic32c/lib/thumb/v8-m.base/nofp/libg-musl.a(memset.o)
                0x0005e0f4                memset

.text.localtime%627
                0x0005e104       0x10
 .text.localtime
                0x0005e104       0x10 /Applications/microchip/xc32/v4.10/bin/bin/../../lib/gcc/pic32c/8.3.1/../../../../pic32c/lib/thumb/v8-m.base/nofp/libg-musl.a(localtime.o)
                0x0005e104                localtime

.text.__init_stdio%628
                0x0005e114       0x10
 .text.__init_stdio
                0x0005e114       0x10 /Applications/microchip/xc32/v4.10/bin/bin/../../lib/gcc/pic32c/8.3.1/../../../../pic32c/lib/thumb/v8-m.base/nofp/libg-musl.a(__init_stdio.o)
                0x0005e114                __init_stdio
                0x0005e114                __init_stdio_needed

.rodata%629     0x0005e124       0x10
 .rodata        0x0005e124       0x10 /Applications/microchip/xc32/v4.10/bin/bin/../../lib/gcc/pic32c/8.3.1/../../../../pic32c/lib/thumb/v8-m.base/nofp/libg-musl.a(__fmt_a.o)

.text.fma%630   0x0005e134       0x10
 .text.fma      0x0005e134       0x10 /Applications/microchip/xc32/v4.10/bin/bin/../../lib/gcc/pic32c/8.3.1/../../../../pic32c/lib/thumb/v8-m.base/nofp/libm-emfloat.a(lib_a-_FMA.o)
                0x0005e134                fma

.text.copysignl%631
                0x0005e144       0x10
 .text.copysignl
                0x0005e144       0x10 /Applications/microchip/xc32/v4.10/bin/bin/../../lib/gcc/pic32c/8.3.1/../../../../pic32c/lib/thumb/v8-m.base/nofp/libm-emfloat.a(lib_a-_COPYSIGN.o)
                0x0005e144                copysignl

.text.ewf_interface_microchip_pic_uart_hardware_stop%632
                0x0005e154        0xe
 .text.ewf_interface_microchip_pic_uart_hardware_stop
                0x0005e154        0xe build/default/debug/_ext/1360937237/main.o
                0x0005e154                ewf_interface_microchip_pic_uart_hardware_stop

.text.ADC_ConversionResultGet%633
                0x0005e162        0xe
 .text.ADC_ConversionResultGet
                0x0005e162        0xe build/default/debug/_ext/60163342/plib_adc.o
                0x0005e162                ADC_ConversionResultGet

.text.div%634   0x0005e170        0xe
 .text.div      0x0005e170        0xe /Applications/microchip/xc32/v4.10/bin/bin/../../lib/gcc/pic32c/8.3.1/../../../../pic32c/lib/thumb/v8-m.base/nofp/libg-musl.a(div.o)
                0x0005e170                div

.text.strlen%635
                0x0005e17e        0xe
 .text.strlen   0x0005e17e        0xe /Applications/microchip/xc32/v4.10/bin/bin/../../lib/gcc/pic32c/8.3.1/../../../../pic32c/lib/thumb/v8-m.base/nofp/libg-musl.a(strlen.o)
                0x0005e17e                strlen

.text.tolower%636
                0x0005e18c        0xe
 .text.tolower  0x0005e18c        0xe /Applications/microchip/xc32/v4.10/bin/bin/../../lib/gcc/pic32c/8.3.1/../../../../pic32c/lib/thumb/v8-m.base/nofp/libg-musl.a(tolower.o)
                0x0005e18c                tolower

.text.toupper%637
                0x0005e19a        0xe
 .text.toupper  0x0005e19a        0xe /Applications/microchip/xc32/v4.10/bin/bin/../../lib/gcc/pic32c/8.3.1/../../../../pic32c/lib/thumb/v8-m.base/nofp/libg-musl.a(toupper.o)
                0x0005e19a                toupper

.text.az_json_writer_append_begin_object%638
                0x0005e1a8        0xc
 .text.az_json_writer_append_begin_object
                0x0005e1a8        0xc build/default/debug/_ext/1414040249/az_json_writer.o
                0x0005e1a8                az_json_writer_append_begin_object

.text.az_json_writer_append_end_object%639
                0x0005e1b4        0xc
 .text.az_json_writer_append_end_object
                0x0005e1b4        0xc build/default/debug/_ext/1414040249/az_json_writer.o
                0x0005e1b4                az_json_writer_append_end_object

.text.az_precondition_failed_get_callback%640
                0x0005e1c0        0xc
 .text.az_precondition_failed_get_callback
                0x0005e1c0        0xc build/default/debug/_ext/1414040249/az_precondition.o
                0x0005e1c0                az_precondition_failed_get_callback

.text.strcpy%641
                0x0005e1cc        0xc
 .text.strcpy   0x0005e1cc        0xc /Applications/microchip/xc32/v4.10/bin/bin/../../lib/gcc/pic32c/8.3.1/../../../../pic32c/lib/thumb/v8-m.base/nofp/libg-musl.a(strcpy.o)
                0x0005e1cc                strcpy

.text.__tm_to_tzname%642
                0x0005e1d8        0xc
 .text.__tm_to_tzname
                0x0005e1d8        0xc /Applications/microchip/xc32/v4.10/bin/bin/../../lib/gcc/pic32c/8.3.1/../../../../pic32c/lib/thumb/v8-m.base/nofp/libg-musl.a(__tz.o)
                0x0005e1d8                __tm_to_tzname

.rodata%643     0x0005e1e4        0xc
 .rodata        0x0005e1e4        0xc /Applications/microchip/xc32/v4.10/bin/bin/../../lib/gcc/pic32c/8.3.1/../../../../pic32c/lib/thumb/v8-m.base/nofp/libg-musl.a(__secs_to_tm.o)

.text.ewf_platform_sleep%644
                0x0005e1f0        0xa
 .text.ewf_platform_sleep
                0x0005e1f0        0xa build/default/debug/_ext/1360937237/main.o
                0x0005e1f0                ewf_platform_sleep

.text.__fwrite_min%645
                0x0005e1fa        0xa
 .text.__fwrite_min
                0x0005e1fa        0xa /Applications/microchip/xc32/v4.10/bin/bin/../../lib/gcc/pic32c/8.3.1/../../../../pic32c/lib/thumb/v8-m.base/nofp/libg-musl.a(__out.o)
                0x0005e1fa                __stdio_write
                0x0005e1fa                __stdio_write_unbuffered

.text.strtold%646
                0x0005e204        0xa
 .text.strtold  0x0005e204        0xa /Applications/microchip/xc32/v4.10/bin/bin/../../lib/gcc/pic32c/8.3.1/../../../../pic32c/lib/thumb/v8-m.base/nofp/libg-musl.a(strtod.o)
                0x0005e204                strtold
                0x0005e204                __strtold_l
                0x0005e204                strtold_l

.rodata.command_avg_temp_name%647
                0x0005e210        0x8
 .rodata.command_avg_temp_name
                0x0005e210        0x8 build/default/debug/_ext/1360937237/azure_iot_pnp_pic32cmls60-curiosity.o

.rodata.command_empty_response_payload%648
                0x0005e218        0x8
 .rodata.command_empty_response_payload
                0x0005e218        0x8 build/default/debug/_ext/1360937237/azure_iot_pnp_pic32cmls60-curiosity.o

.rodata.command_end_time_name%649
                0x0005e220        0x8
 .rodata.command_end_time_name
                0x0005e220        0x8 build/default/debug/_ext/1360937237/azure_iot_pnp_pic32cmls60-curiosity.o

.rodata.command_max_temp_name%650
                0x0005e228        0x8
 .rodata.command_max_temp_name
                0x0005e228        0x8 build/default/debug/_ext/1360937237/azure_iot_pnp_pic32cmls60-curiosity.o

.rodata.command_min_temp_name%651
                0x0005e230        0x8
 .rodata.command_min_temp_name
                0x0005e230        0x8 build/default/debug/_ext/1360937237/azure_iot_pnp_pic32cmls60-curiosity.o

.rodata.command_start_time_name%652
                0x0005e238        0x8
 .rodata.command_start_time_name
                0x0005e238        0x8 build/default/debug/_ext/1360937237/azure_iot_pnp_pic32cmls60-curiosity.o

.rodata.custom_registration_payload_property%653
                0x0005e240        0x8
 .rodata.custom_registration_payload_property
                0x0005e240        0x8 build/default/debug/_ext/1360937237/azure_iot_pnp_pic32cmls60-curiosity.o

.rodata.model_id%654
                0x0005e248        0x8
 .rodata.model_id
                0x0005e248        0x8 build/default/debug/_ext/1360937237/azure_iot_pnp_pic32cmls60-curiosity.o

.rodata.property_desired_temperature_name%655
                0x0005e250        0x8
 .rodata.property_desired_temperature_name
                0x0005e250        0x8 build/default/debug/_ext/1360937237/azure_iot_pnp_pic32cmls60-curiosity.o

.rodata.property_disable_telemetry_name%656
                0x0005e258        0x8
 .rodata.property_disable_telemetry_name
                0x0005e258        0x8 build/default/debug/_ext/1360937237/azure_iot_pnp_pic32cmls60-curiosity.o

.rodata.property_led0_name%657
                0x0005e260        0x8
 .rodata.property_led0_name
                0x0005e260        0x8 build/default/debug/_ext/1360937237/azure_iot_pnp_pic32cmls60-curiosity.o

.rodata.property_led1_name%658
                0x0005e268        0x8
 .rodata.property_led1_name
                0x0005e268        0x8 build/default/debug/_ext/1360937237/azure_iot_pnp_pic32cmls60-curiosity.o

.rodata.property_reported_maximum_temperature_name%659
                0x0005e270        0x8
 .rodata.property_reported_maximum_temperature_name
                0x0005e270        0x8 build/default/debug/_ext/1360937237/azure_iot_pnp_pic32cmls60-curiosity.o

.rodata.property_success_name%660
                0x0005e278        0x8
 .rodata.property_success_name
                0x0005e278        0x8 build/default/debug/_ext/1360937237/azure_iot_pnp_pic32cmls60-curiosity.o

.rodata.property_telemetry_interval_name%661
                0x0005e280        0x8
 .rodata.property_telemetry_interval_name
                0x0005e280        0x8 build/default/debug/_ext/1360937237/azure_iot_pnp_pic32cmls60-curiosity.o

.rodata.telemetry_potentiometer_name%662
                0x0005e288        0x8
 .rodata.telemetry_potentiometer_name
                0x0005e288        0x8 build/default/debug/_ext/1360937237/azure_iot_pnp_pic32cmls60-curiosity.o

.text.ewf_interface_poll%663
                0x0005e290        0x8
 .text.ewf_interface_poll
                0x0005e290        0x8 build/default/debug/_ext/1360937237/main.o
                0x0005e290                ewf_interface_poll

.rodata.__func__.10804%664
                0x0005e298        0x8
 .rodata.__func__.10804
                0x0005e298        0x8 build/default/debug/_ext/1360937237/main.o

.rodata.command_reboot_delay_payload_span%665
                0x0005e2a0        0x8
 .rodata.command_reboot_delay_payload_span
                0x0005e2a0        0x8 build/default/debug/_ext/1360937237/pic32cmls60-curiosity-commands.o

.rodata.command_resp_alloc_error_sendMsg_span%666
                0x0005e2a8        0x8
 .rodata.command_resp_alloc_error_sendMsg_span
                0x0005e2a8        0x8 build/default/debug/_ext/1360937237/pic32cmls60-curiosity-commands.o

.rodata.command_resp_bad_payload_span%667
                0x0005e2b0        0x8
 .rodata.command_resp_bad_payload_span
                0x0005e2b0        0x8 build/default/debug/_ext/1360937237/pic32cmls60-curiosity-commands.o

.rodata.command_resp_empty_delay_payload_span%668
                0x0005e2b8        0x8
 .rodata.command_resp_empty_delay_payload_span
                0x0005e2b8        0x8 build/default/debug/_ext/1360937237/pic32cmls60-curiosity-commands.o

.rodata.command_resp_empty_sendMsg_payload_span%669
                0x0005e2c0        0x8
 .rodata.command_resp_empty_sendMsg_payload_span
                0x0005e2c0        0x8 build/default/debug/_ext/1360937237/pic32cmls60-curiosity-commands.o

.rodata.command_sendMsg_payload_span%670
                0x0005e2c8        0x8
 .rodata.command_sendMsg_payload_span
                0x0005e2c8        0x8 build/default/debug/_ext/1360937237/pic32cmls60-curiosity-commands.o

.rodata.command_status_span%671
                0x0005e2d0        0x8
 .rodata.command_status_span
                0x0005e2d0        0x8 build/default/debug/_ext/1360937237/pic32cmls60-curiosity-commands.o

.rodata.resp_success_span%672
                0x0005e2d8        0x8
 .rodata.resp_success_span
                0x0005e2d8        0x8 build/default/debug/_ext/1360937237/pic32cmls60-curiosity-commands.o

.rodata.json_delimiters%673
                0x0005e2e0        0x8
 .rodata.json_delimiters
                0x0005e2e0        0x8 build/default/debug/_ext/1414040249/az_json_reader.o

.rodata%674     0x0005e2e8       0x10
 .rodata        0x0005e2e8        0x8 build/default/debug/_ext/1414040249/az_span.o
 .rodata        0x0005e2f0        0x8 build/default/debug/_ext/1292534426/az_iot_common.o

.rodata.hub_client_param_equals_span%676
                0x0005e2f8        0x8
 .rodata.hub_client_param_equals_span
                0x0005e2f8        0x8 build/default/debug/_ext/1292534426/az_iot_common.o

.rodata.hub_client_param_separator_span%677
                0x0005e300        0x8
 .rodata.hub_client_param_separator_span
                0x0005e300        0x8 build/default/debug/_ext/1292534426/az_iot_common.o

.rodata.client_sdk_device_client_type_name%678
                0x0005e308        0x8
 .rodata.client_sdk_device_client_type_name
                0x0005e308        0x8 build/default/debug/_ext/1292534426/az_iot_hub_client.o

.rodata.client_sdk_version_default_value%679
                0x0005e310        0x8
 .rodata.client_sdk_version_default_value
                0x0005e310        0x8 build/default/debug/_ext/1292534426/az_iot_hub_client.o

.rodata.hub_digital_twin_model_id%680
                0x0005e318        0x8
 .rodata.hub_digital_twin_model_id
                0x0005e318        0x8 build/default/debug/_ext/1292534426/az_iot_hub_client.o

.rodata.hub_service_api_version%681
                0x0005e320        0x8
 .rodata.hub_service_api_version
                0x0005e320        0x8 build/default/debug/_ext/1292534426/az_iot_hub_client.o

.rodata.command_separator%682
                0x0005e328        0x8
 .rodata.command_separator
                0x0005e328        0x8 build/default/debug/_ext/1292534426/az_iot_hub_client_commands.o

.rodata.methods_response_topic_properties%683
                0x0005e330        0x8
 .rodata.methods_response_topic_properties
                0x0005e330        0x8 build/default/debug/_ext/1292534426/az_iot_hub_client_methods.o

.rodata.methods_response_topic_result%684
                0x0005e338        0x8
 .rodata.methods_response_topic_result
                0x0005e338        0x8 build/default/debug/_ext/1292534426/az_iot_hub_client_methods.o

.rodata.methods_topic_filter_suffix%685
                0x0005e340        0x8
 .rodata.methods_topic_filter_suffix
                0x0005e340        0x8 build/default/debug/_ext/1292534426/az_iot_hub_client_methods.o

.rodata.methods_topic_prefix%686
                0x0005e348        0x8
 .rodata.methods_topic_prefix
                0x0005e348        0x8 build/default/debug/_ext/1292534426/az_iot_hub_client_methods.o

.rodata.component_properties_label_name%687
                0x0005e350        0x8
 .rodata.component_properties_label_name
                0x0005e350        0x8 build/default/debug/_ext/1292534426/az_iot_hub_client_properties.o

.rodata.iot_hub_properties_desired%688
                0x0005e358        0x8
 .rodata.iot_hub_properties_desired
                0x0005e358        0x8 build/default/debug/_ext/1292534426/az_iot_hub_client_properties.o

.rodata.iot_hub_properties_desired_version%689
                0x0005e360        0x8
 .rodata.iot_hub_properties_desired_version
                0x0005e360        0x8 build/default/debug/_ext/1292534426/az_iot_hub_client_properties.o

.rodata.iot_hub_properties_reported%690
                0x0005e368        0x8
 .rodata.iot_hub_properties_reported
                0x0005e368        0x8 build/default/debug/_ext/1292534426/az_iot_hub_client_properties.o

.rodata.properties_ack_code_name%691
                0x0005e370        0x8
 .rodata.properties_ack_code_name
                0x0005e370        0x8 build/default/debug/_ext/1292534426/az_iot_hub_client_properties.o

.rodata.properties_ack_description_name%692
                0x0005e378        0x8
 .rodata.properties_ack_description_name
                0x0005e378        0x8 build/default/debug/_ext/1292534426/az_iot_hub_client_properties.o

.rodata.properties_ack_version_name%693
                0x0005e380        0x8
 .rodata.properties_ack_version_name
                0x0005e380        0x8 build/default/debug/_ext/1292534426/az_iot_hub_client_properties.o

.rodata.properties_response_value_name%694
                0x0005e388        0x8
 .rodata.properties_response_value_name
                0x0005e388        0x8 build/default/debug/_ext/1292534426/az_iot_hub_client_properties.o

.rodata.telemetry_topic_modules_mid%695
                0x0005e390        0x8
 .rodata.telemetry_topic_modules_mid
                0x0005e390        0x8 build/default/debug/_ext/1292534426/az_iot_hub_client_telemetry.o

.rodata.telemetry_topic_prefix%696
                0x0005e398        0x8
 .rodata.telemetry_topic_prefix
                0x0005e398        0x8 build/default/debug/_ext/1292534426/az_iot_hub_client_telemetry.o

.rodata.telemetry_topic_suffix%697
                0x0005e3a0        0x8
 .rodata.telemetry_topic_suffix
                0x0005e3a0        0x8 build/default/debug/_ext/1292534426/az_iot_hub_client_telemetry.o

.rodata.az_iot_hub_client_request_id_span%698
                0x0005e3a8        0x8
 .rodata.az_iot_hub_client_request_id_span
                0x0005e3a8        0x8 build/default/debug/_ext/1292534426/az_iot_hub_client_twin.o

.rodata.az_iot_hub_twin_get_pub_topic%699
                0x0005e3b0        0x8
 .rodata.az_iot_hub_twin_get_pub_topic
                0x0005e3b0        0x8 build/default/debug/_ext/1292534426/az_iot_hub_client_twin.o

.rodata.az_iot_hub_twin_patch_pub_topic%700
                0x0005e3b8        0x8
 .rodata.az_iot_hub_twin_patch_pub_topic
                0x0005e3b8        0x8 build/default/debug/_ext/1292534426/az_iot_hub_client_twin.o

.rodata.az_iot_hub_twin_patch_sub_topic%701
                0x0005e3c0        0x8
 .rodata.az_iot_hub_twin_patch_sub_topic
                0x0005e3c0        0x8 build/default/debug/_ext/1292534426/az_iot_hub_client_twin.o

.rodata.az_iot_hub_twin_response_sub_topic%702
                0x0005e3c8        0x8
 .rodata.az_iot_hub_twin_response_sub_topic
                0x0005e3c8        0x8 build/default/debug/_ext/1292534426/az_iot_hub_client_twin.o

.rodata.az_iot_hub_twin_topic_prefix%703
                0x0005e3d0        0x8
 .rodata.az_iot_hub_twin_topic_prefix
                0x0005e3d0        0x8 build/default/debug/_ext/1292534426/az_iot_hub_client_twin.o

.rodata.az_iot_hub_twin_version_prop%704
                0x0005e3d8        0x8
 .rodata.az_iot_hub_twin_version_prop
                0x0005e3d8        0x8 build/default/debug/_ext/1292534426/az_iot_hub_client_twin.o

.rodata.prov_payload_label%705
                0x0005e3e0        0x8
 .rodata.prov_payload_label
                0x0005e3e0        0x8 build/default/debug/_ext/1292534426/az_iot_provisioning_client.o

.rodata.prov_registration_id_label%706
                0x0005e3e8        0x8
 .rodata.prov_registration_id_label
                0x0005e3e8        0x8 build/default/debug/_ext/1292534426/az_iot_provisioning_client.o

.rodata.str_get_iotdps_get_operationstatus%707
                0x0005e3f0        0x8
 .rodata.str_get_iotdps_get_operationstatus
                0x0005e3f0        0x8 build/default/debug/_ext/1292534426/az_iot_provisioning_client.o

.rodata.str_put_iotdps_register%708
                0x0005e3f8        0x8
 .rodata.str_put_iotdps_register
                0x0005e3f8        0x8 build/default/debug/_ext/1292534426/az_iot_provisioning_client.o

.text.putc%709  0x0005e400        0x8
 .text.putc     0x0005e400        0x8 /Applications/microchip/xc32/v4.10/bin/bin/../../lib/gcc/pic32c/8.3.1/../../../../pic32c/lib/thumb/v8-m.base/nofp/libg-musl.a(putc.o)
                0x0005e400                putc_unlocked
                0x0005e400                putc
                0x0005e400                fputc
                0x0005e400                _IO_putc

.text.do_read%710
                0x0005e408        0x8
 .text.do_read  0x0005e408        0x8 /Applications/microchip/xc32/v4.10/bin/bin/../../lib/gcc/pic32c/8.3.1/../../../../pic32c/lib/thumb/v8-m.base/nofp/libg-musl.a(vsscanf.o)

.text.abs%711   0x0005e410        0x8
 .text.abs      0x0005e410        0x8 /Applications/microchip/xc32/v4.10/bin/bin/../../lib/gcc/pic32c/8.3.1/../../../../pic32c/lib/thumb/v8-m.base/nofp/libg-musl.a(abs.o)
                0x0005e410                abs

.rodata%712     0x0005e418        0x8
 .rodata        0x0005e418        0x8 /Applications/microchip/xc32/v4.10/bin/bin/../../lib/gcc/pic32c/8.3.1/../../../../pic32c/lib/thumb/v8-m.base/nofp/libg-musl.a(__scan_fp.o)

.text.__get_stdout%713
                0x0005e420        0x8
 .text.__get_stdout
                0x0005e420        0x8 /Applications/microchip/xc32/v4.10/bin/bin/../../lib/gcc/pic32c/8.3.1/../../../../pic32c/lib/thumb/v8-m.base/nofp/libg-musl.a(__stdout.o)
                0x0005e420                __init_stdout_needed
                0x0005e420                __get_stdout

.text.scalbnl%714
                0x0005e428        0x8
 .text.scalbnl  0x0005e428        0x8 /Applications/microchip/xc32/v4.10/bin/bin/../../lib/gcc/pic32c/8.3.1/../../../../pic32c/lib/thumb/v8-m.base/nofp/libm-emfloat.a(lib_a-_SCALBN.o)
                0x0005e428                scalbnl

.text.fmodl%715
                0x0005e430        0x8
 .text.fmodl    0x0005e430        0x8 /Applications/microchip/xc32/v4.10/bin/bin/../../lib/gcc/pic32c/8.3.1/../../../../pic32c/lib/thumb/v8-m.base/nofp/libm-emfloat.a(lib_a-_FMOD.o)
                0x0005e430                fmodl

.text.fabsl%716
                0x0005e438        0x8
 .text.fabsl    0x0005e438        0x8 /Applications/microchip/xc32/v4.10/bin/bin/../../lib/gcc/pic32c/8.3.1/../../../../pic32c/lib/thumb/v8-m.base/nofp/libm-emfloat.a(lib_a-_FABS.o)
                0x0005e438                fabsl

.text.close%717
                0x0005e440        0x8
 .text.close    0x0005e440        0x8 /Applications/microchip/xc32/v4.10/bin/bin/../../lib/gcc/pic32c/8.3.1/../../../../pic32c/lib/thumb/v8-m.base/nofp/libpic32c.a(close.o)
                0x0005e440                close

.rodata%718     0x0005e448        0x7
 .rodata        0x0005e448        0x7 /Applications/microchip/xc32/v4.10/bin/bin/../../lib/gcc/pic32c/8.3.1/../../../../pic32c/lib/thumb/v8-m.base/nofp/libg-musl.a(__fmt_s.o)

.text.read%719  0x0005e450        0x6
 .text.read     0x0005e450        0x6 build/default/debug/_ext/163028504/xc32_monitor.o
                0x0005e450                read

.text.__dummy%720
                0x0005e456        0x6
 .text.__dummy  0x0005e456        0x6 /Applications/microchip/xc32/v4.10/bin/bin/../../lib/gcc/pic32c/8.3.1/../../../../pic32c/lib/thumb/v8-m.base/nofp/libg-musl.a(stdin.o)
                0x0005e456                __stdio_seek_rw

.text._Exit%721
                0x0005e45c        0x6
 .text._Exit    0x0005e45c        0x6 /Applications/microchip/xc32/v4.10/bin/bin/../../lib/gcc/pic32c/8.3.1/../../../../pic32c/lib/thumb/v8-m.base/nofp/libg-musl.a(_Exit.o)
                0x0005e45c                _Exit

.text.__gettimeofday%722
                0x0005e462        0x6
 .text.__gettimeofday
                0x0005e462        0x6 /Applications/microchip/xc32/v4.10/bin/bin/../../lib/gcc/pic32c/8.3.1/../../../../pic32c/lib/thumb/v8-m.base/nofp/libg-musl.a(gettimeofday.o)
                0x0005e462                gettimeofday

.text.ewf_allocator_memory_pool_stop%723
                0x0005e468        0x4
 .text.ewf_allocator_memory_pool_stop
                0x0005e468        0x4 build/default/debug/_ext/1360937237/main.o
                0x0005e468                ewf_allocator_memory_pool_stop

.text.ewf_adapter_quectel_common_tls_basic_clean%724
                0x0005e46c        0x4
 .text.ewf_adapter_quectel_common_tls_basic_clean
                0x0005e46c        0x4 build/default/debug/_ext/1360937237/main.o
                0x0005e46c                ewf_adapter_quectel_common_tls_basic_clean

.rodata%725     0x0005e470        0x4
 .rodata        0x0005e470        0x4 build/default/debug/_ext/1292534426/az_iot_hub_client_commands.o

.text.Dummy_Handler%726
                0x0005e474        0x4
 .text.Dummy_Handler
                0x0005e474        0x4 build/default/debug/_ext/1171490990/interrupts.o
                0x0005e474                SERCOM3_OTHER_Handler
                0x0005e474                SERCOM3_1_Handler
                0x0005e474                SysTick_Handler
                0x0005e474                SERCOM3_2_Handler
                0x0005e474                PendSV_Handler
                0x0005e474                Dummy_Handler
                0x0005e474                SERCOM3_0_Handler
                0x0005e474                SVCall_Handler

.text.NonMaskableInt_Handler%727
                0x0005e478        0x4
 .text.NonMaskableInt_Handler
                0x0005e478        0x4 build/default/debug/_ext/1171490990/exceptions.o
                0x0005e478                NonMaskableInt_Handler

.text.HardFault_Handler%728
                0x0005e47c        0x4
 .text.HardFault_Handler
                0x0005e47c        0x4 build/default/debug/_ext/1171490990/exceptions.o
                0x0005e47c                HardFault_Handler

.text._exit%729
                0x0005e480        0x4
 .text._exit    0x0005e480        0x4 build/default/debug/_ext/1171490990/libc_syscalls.o
                0x0005e480                _exit

.text.__dummy1%730
                0x0005e484        0x4
 .text.__dummy1
                0x0005e484        0x4 /Applications/microchip/xc32/v4.10/bin/bin/../../lib/gcc/pic32c/8.3.1/../../../../pic32c/lib/thumb/v8-m.base/nofp/libg-musl.a(fflush.o)
                0x0005e484                __fflush_ofl

.rodata%731     0x0005e488        0x8
 .rodata        0x0005e488        0x4 /Applications/microchip/xc32/v4.10/bin/bin/../../lib/gcc/pic32c/8.3.1/../../../../pic32c/lib/thumb/v8-m.base/nofp/libg-musl.a(__tz.o)
                0x0005e488                __gmt
 .rodata        0x0005e48c        0x4 /Applications/microchip/xc32/v4.10/bin/bin/../../lib/gcc/pic32c/8.3.1/../../../../pic32c/lib/thumb/v8-m.base/nofp/libg-musl.a(gmtime_r.o)

.text%733       0x0005e490        0x4
 .text          0x0005e490        0x4 /Applications/microchip/xc32/v4.10/bin/bin/../../lib/gcc/pic32c/8.3.1/thumb/v8-m.base/nofp/libgcc.a(_dvmd_tls.o)
                0x0005e490                __aeabi_ldiv0
                0x0005e490                __aeabi_idiv0

.text.lseek%734
                0x0005e494        0x4
 .text.lseek    0x0005e494        0x4 /Applications/microchip/xc32/v4.10/bin/bin/../../lib/gcc/pic32c/8.3.1/../../../../pic32c/lib/thumb/v8-m.base/nofp/libpic32c.a(lseek.o)
                0x0005e494                lseek

.text.az_precondition_failed_default%735
                0x000480f2        0x2
 .text.az_precondition_failed_default
                0x000480f2        0x2 build/default/debug/_ext/1414040249/az_precondition.o

.text.Dummy_App_Func%736
                0x00048f12        0x2
 .text.Dummy_App_Func
                0x00048f12        0x2 build/default/debug/_ext/1171490990/startup_xc32.o
                0x00048f12                __xc32_on_bootstrap
                0x00048f12                _on_reset
                0x00048f12                _on_bootstrap
                0x00048f12                __xc32_on_reset
                0x00048f12                Dummy_App_Func

.text.__dummy%737
                0x00049836        0x2
 .text.__dummy  0x00049836        0x2 /Applications/microchip/xc32/v4.10/bin/bin/../../lib/gcc/pic32c/8.3.1/../../../../pic32c/lib/thumb/v8-m.base/nofp/libg-musl.a(__libc_start_main.o)
                0x00049836                __init_host

.text.dummy%738
                0x0004a4c6        0x2
 .text.dummy    0x0004a4c6        0x2 /Applications/microchip/xc32/v4.10/bin/bin/../../lib/gcc/pic32c/8.3.1/../../../../pic32c/lib/thumb/v8-m.base/nofp/libg-musl.a(exit.o)
                0x0004a4c6                __funcs_on_exit

.text.__dummy%739
                0x0004b6a2        0x2
 .text.__dummy  0x0004b6a2        0x2 /Applications/microchip/xc32/v4.10/bin/bin/../../lib/gcc/pic32c/8.3.1/../../../../pic32c/lib/thumb/v8-m.base/nofp/libg-musl.a(__init_stdio.o)
                0x0004b6a2                __init_stderr
                0x0004b6a2                __init_stdin

.text.__dummy%740
                0x0004bffe        0x2
 .text.__dummy  0x0004bffe        0x2 /Applications/microchip/xc32/v4.10/bin/bin/../../lib/gcc/pic32c/8.3.1/../../../../pic32c/lib/thumb/v8-m.base/nofp/libg-musl.a(__stderr.o)
                0x0004bffe                __stdio_seek

.text.__dummy%741
                0x0004e486        0x2
 .text.__dummy  0x0004e486        0x2 /Applications/microchip/xc32/v4.10/bin/bin/../../lib/gcc/pic32c/8.3.1/../../../../pic32c/lib/thumb/v8-m.base/nofp/libg-musl.a(__stdio_exit.o)
                0x0004e486                __stdio_exit_ofl
